 ray

 Timestamp is 5ea0fb59 (Thu Apr 23 10:20:09 2020)

 Preferred load address is 00400000

 Start         Length     Name                   Class
 0001:00000000 000001e0H .text$di                CODE
 0001:000001e0 00077a60H .text$mn                CODE
 0001:00077c40 00002410H .text$x                 CODE
 0001:0007a050 000000d9H .text$yd                CODE
 0002:00000000 000006b4H .idata$5                DATA
 0002:000006b4 00000008H .00cfg                  DATA
 0002:000006bc 00000004H .CRT$XCA                DATA
 0002:000006c0 00000004H .CRT$XCAA               DATA
 0002:000006c4 00000004H .CRT$XCL                DATA
 0002:000006c8 0000002cH .CRT$XCU                DATA
 0002:000006f4 00000004H .CRT$XCZ                DATA
 0002:000006f8 00000004H .CRT$XIA                DATA
 0002:000006fc 00000004H .CRT$XIAA               DATA
 0002:00000700 00000004H .CRT$XIAC               DATA
 0002:00000704 00000004H .CRT$XIC                DATA
 0002:00000708 00000004H .CRT$XIZ                DATA
 0002:0000070c 00000004H .CRT$XLA                DATA
 0002:00000710 00000004H .CRT$XLZ                DATA
 0002:00000714 00000004H .CRT$XPA                DATA
 0002:00000718 00000004H .CRT$XPZ                DATA
 0002:0000071c 00000004H .CRT$XTA                DATA
 0002:00000720 00000010H .CRT$XTZ                DATA
 0002:00000724 00000000H .gfids$y                DATA
 0002:00000730 00007e28H .rdata                  DATA
 0002:00008558 00000018H .rdata$T                DATA
 0002:00008570 000024a8H .rdata$r                DATA
 0002:0000aa18 000003ccH .rdata$zzzdbg           DATA
 0002:0000ade4 00000004H .rtc$IAA                DATA
 0002:0000ade8 00000004H .rtc$IZZ                DATA
 0002:0000adec 00000004H .rtc$TAA                DATA
 0002:0000adf0 00000004H .rtc$TZZ                DATA
 0002:0000adf4 00000004H .tls                    DATA
 0002:0000adf8 00000004H .tls$                   DATA
 0002:0000adfc 00000004H .tls$ZZZ                DATA
 0002:0000ae00 000022c8H .xdata$x                DATA
 0002:0000d0c8 00000000H .edata                  DATA
 0002:0000d0c8 000001b8H .idata$2                DATA
 0002:0000d280 00000014H .idata$3                DATA
 0002:0000d294 000006b4H .idata$4                DATA
 0002:0000d948 0000245cH .idata$6                DATA
 0003:00000000 00001f98H .data                   DATA
 0003:00001f98 00000e68H .data$r                 DATA
 0003:00002e00 000055e0H .bss                    DATA
 0004:00000000 00000060H .rsrc$01                DATA
 0004:00000060 00000180H .rsrc$02                DATA

  Address         Publics by Value              Rva+Base       Lib:Object

 0000:00000000       ___guard_longjmp_table     00000000     <absolute>
 0000:00000000       ___safe_se_handler_count   00000000     <absolute>
 0000:00000000       ___guard_fids_table        00000000     <absolute>
 0000:00000000       ___volatile_metadata       00000000     <absolute>
 0000:00000000       ___guard_iat_count         00000000     <absolute>
 0000:00000000       ___safe_se_handler_table   00000000     <absolute>
 0000:00000000       ___guard_eh_cont_count     00000000     <absolute>
 0000:00000000       ___hybrid_code_map         00000000     <absolute>
 0000:00000000       ___guard_fids_count        00000000     <absolute>
 0000:00000000       ___guard_longjmp_count     00000000     <absolute>
 0000:00000000       ___guard_iat_table         00000000     <absolute>
 0000:00000000       ___guard_eh_cont_table     00000000     <absolute>
 0000:00000000       ___enclave_config          00000000     <absolute>
 0000:00000000       ___AbsoluteZero            00000000     <absolute>
 0000:00000000       ___hybrid_code_map_count   00000000     <absolute>
 0000:00000000       ___hybrid_auxiliary_iat    00000000     <absolute>
 0000:00000000       ___dynamic_value_reloc_table 00000000     <absolute>
 0000:0000002c       __tls_array                0000002c     <absolute>
 0000:00000100       ___guard_flags             00000100     <absolute>
 0000:00000000       ___ImageBase               00400000     <linker-defined>
 0001:000001e0       ?GetOption@@YAHHPAPADPAD0@Z 004011e0 f   getopt.obj
 0001:000002c0       ?getopt@@YAHHPAPADPAD@Z    004012c0 f   getopt.obj
 0001:000003b0       ??_H@YGXPAXIIP6EPAX0@Z@Z   004013b0 f i main.obj
 0001:000003e0       ?processArgs@@YA_NHPAPAD@Z 004013e0 f   main.obj
 0001:000004d0       ?usage@@YAXXZ              004014d0 f   main.obj
 0001:000004f0       ___local_stdio_printf_options 004014f0 f i main.obj
 0001:00000500       _fprintf                   00401500 f i main.obj
 0001:00000530       _main                      00401530 f   main.obj
 0001:00000ad0       ??$_Allocate@$07U_Default_allocate_traits@std@@$0A@@std@@YAPAXI@Z 00401ad0 f i RayTracer.obj
 0001:00000b20       ??$_Allocate_manually_vector_aligned@U_Default_allocate_traits@std@@@std@@YAPAXI@Z 00401b20 f i RayTracer.obj
 0001:00000b60       ??$_Construct_in_place@PADABQAD@std@@YAXAAPADABQAD@Z 00401b60 f i RayTracer.obj
 0001:00000b70       ??$_Construct_in_place@U_Container_proxy@std@@PAU_Container_base12@2@@std@@YAXAAU_Container_proxy@0@$$QAPAU_Container_base12@0@@Z 00401b70 f i RayTracer.obj
 0001:00000b90       ??$_Copy_memmove@PAPAPBVSceneObject@@PAPAPBV1@@std@@YAPAPAPBVSceneObject@@PAPAPBV1@00@Z 00401b90 f i RayTracer.obj
 0001:00000bc0       ??$_Deallocate@$07$0A@@std@@YAXPAXI@Z 00401bc0 f i RayTracer.obj
 0001:00000c00       ??$_Deallocate_plain@V?$allocator@U_Container_proxy@std@@@std@@@std@@YAXAAV?$allocator@U_Container_proxy@std@@@0@QAU_Container_proxy@0@@Z 00401c00 f i RayTracer.obj
 0001:00000c20       ??$_Delete_plain_internal@V?$allocator@U_Container_proxy@std@@@std@@@std@@YAXAAV?$allocator@U_Container_proxy@std@@@0@QAU_Container_proxy@0@@Z 00401c20 f i RayTracer.obj
 0001:00000c40       ??$_Destroy_in_place@PAD@std@@YAXAAPAD@Z 00401c40 f i RayTracer.obj
 0001:00000c50       ??$_Destroy_in_place@PAPBVSceneObject@@@std@@YAXAAPAPBVSceneObject@@@Z 00401c50 f i RayTracer.obj
 0001:00000c60       ??$_Destroy_range@PAPAPBVSceneObject@@@std@@YAXPAPAPBVSceneObject@@QAPAPBV1@@Z 00401c60 f i RayTracer.obj
 0001:00000c70       ??$_Idl_distance@PAPAPBVSceneObject@@PAPAPBV1@@std@@YAHABQAPAPBVSceneObject@@0@Z 00401c70 f i RayTracer.obj
 0001:00000c90       ??$_Pocca@V?$allocator@PBVSceneObject@@@std@@@std@@YAXAAV?$allocator@PBVSceneObject@@@0@ABV10@@Z 00401c90 f i RayTracer.obj
 0001:00000ca0       ??$_Uninitialized_value_construct_n_unchecked1@PAPAPBVSceneObject@@I@std@@YAPAPAPBVSceneObject@@PAPAPBV1@I@Z 00401ca0 f i RayTracer.obj
 0001:00000cd0       ??$_Zero_range@PAPAPBVSceneObject@@@std@@YAPAPAPBVSceneObject@@QAPAPBV1@0@Z 00401cd0 f i RayTracer.obj
 0001:00000cf0       ??$assign@V?$_Deque_unchecked_const_iterator@V?$_Deque_val@U?$_Deque_simple_types@PBVSceneObject@@@std@@@std@@@std@@$0A@@?$deque@PBVSceneObject@@V?$allocator@PBVSceneObject@@@std@@@std@@QAEXV?$_Deque_unchecked_const_iterator@V?$_Deque_val@U?$_Deque_simple_types@PBVSceneObject@@@std@@@std@@@1@0@Z 00401cf0 f i RayTracer.obj
 0001:00000e60       ??$exchange@PAU_Container_proxy@std@@$$T@std@@YAPAU_Container_proxy@0@AAPAU10@$$QA$$T@Z 00401e60 f i RayTracer.obj
 0001:00000e80       ??$uninitialized_copy@PAPAPBVSceneObject@@PAPAPBV1@@std@@YAPAPAPBVSceneObject@@QAPAPBV1@0PAPAPBV1@@Z 00401e80 f i RayTracer.obj
 0001:00000eb0       ??0RayData@RayTracer@@QAE@XZ 00401eb0 f i RayTracer.obj
 0001:00000f60       ??0RayTracer@@QAE@XZ       00401f60 f   RayTracer.obj
 0001:00000f90       ??0bad_alloc@std@@QAE@ABV01@@Z 00401f90 f i RayTracer.obj
 0001:00000fd0       ??0bad_array_new_length@std@@QAE@ABV01@@Z 00401fd0 f i RayTracer.obj
 0001:00001010       ??0bad_array_new_length@std@@QAE@XZ 00402010 f i RayTracer.obj
 0001:00001030       ??0exception@std@@QAE@ABV01@@Z 00402030 f i RayTracer.obj
 0001:00001060       ??0vec2f@@QAE@XZ           00402060 f i RayTracer.obj
 0001:00001070       ??0vec3f@@QAE@XZ           00402070 f i RayTracer.obj
 0001:00001080       ??1?$_Container_proxy_ptr12@V?$allocator@U_Container_proxy@std@@@std@@@std@@QAE@XZ 00402080 f i RayTracer.obj
 0001:000010a0       ??1?$_Tidy_guard@V?$deque@PBVSceneObject@@V?$allocator@PBVSceneObject@@@std@@@std@@@std@@QAE@XZ 004020a0 f i RayTracer.obj
 0001:000010b0       ??1?$basic_string@DU?$char_traits@D@std@@V?$allocator@D@2@@std@@QAE@XZ 004020b0 f i RayTracer.obj
 0001:00001100       ??1?$stack@PBVSceneObject@@V?$deque@PBVSceneObject@@V?$allocator@PBVSceneObject@@@std@@@std@@@std@@QAE@XZ 00402100 f i RayTracer.obj
 0001:00001120       ??1ParseError@@QAE@XZ      00402120 f i RayTracer.obj
 0001:00001170       ??1RayData@RayTracer@@QAE@XZ 00402170 f i RayTracer.obj
 0001:00001190       ??1RayTracer@@QAE@XZ       00402190 f   RayTracer.obj
 0001:000011b0       ??1bad_array_new_length@std@@UAE@XZ 004021b0 f i RayTracer.obj
 0001:000011d0       ??1exception@std@@UAE@XZ   004021d0 f i RayTracer.obj
 0001:000011f0       ??1isect@@QAE@XZ           004021f0 f i RayTracer.obj
 0001:00001210       ??_Gbad_alloc@std@@UAEPAXI@Z 00402210 f i RayTracer.obj
 0001:00001210       ??_Ebad_alloc@std@@UAEPAXI@Z 00402210 f i RayTracer.obj
 0001:00001240       ??_Gbad_array_new_length@std@@UAEPAXI@Z 00402240 f i RayTracer.obj
 0001:00001240       ??_Ebad_array_new_length@std@@UAEPAXI@Z 00402240 f i RayTracer.obj
 0001:00001270       ??_Eexception@std@@UAEPAXI@Z 00402270 f i RayTracer.obj
 0001:00001270       ??_Gexception@std@@UAEPAXI@Z 00402270 f i RayTracer.obj
 0001:000018c0       ?_Growmap@?$deque@PBVSceneObject@@V?$allocator@PBVSceneObject@@@std@@@std@@AAEXI@Z 004028c0 f i RayTracer.obj
 0001:00001a60       ?_Throw_bad_array_new_length@std@@YAXXZ 00402a60 f i RayTracer.obj
 0001:00001a80       ?_Tidy@?$deque@PBVSceneObject@@V?$allocator@PBVSceneObject@@@std@@@std@@AAEXXZ 00402a80 f i RayTracer.obj
 0001:00001b10       ?_Xlen@?$basic_string@DU?$char_traits@D@std@@V?$allocator@D@2@@std@@CAXXZ 00402b10 f i RayTracer.obj
 0001:00001b20       ?_Xlen@?$deque@PBVSceneObject@@V?$allocator@PBVSceneObject@@@std@@@std@@ABEXXZ 00402b20 f i RayTracer.obj
 0001:00001b30       ?allocate@?$allocator@D@std@@QAEPADI@Z 00402b30 f i RayTracer.obj
 0001:00001b90       ?aspectRatio@RayTracer@@QAENXZ 00402b90 f   RayTracer.obj
 0001:00001bd0       ?assign@?$basic_string@DU?$char_traits@D@std@@V?$allocator@D@2@@std@@QAEAAV12@QBDI@Z 00402bd0 f i RayTracer.obj
 0001:00001cc0       ?getBuffer@RayTracer@@QAEXAAPAEAAH1@Z 00402cc0 f   RayTracer.obj
 0001:00001ce0       ?loadScene@RayTracer@@QAE_NPAD@Z 00402ce0 f   RayTracer.obj
 0001:00001e40       ?push@?$stack@PBVSceneObject@@V?$deque@PBVSceneObject@@V?$allocator@PBVSceneObject@@@std@@@std@@@std@@QAEXABQBVSceneObject@@@Z 00402e40 f i RayTracer.obj
 0001:00001ed0       ?sceneLoaded@RayTracer@@QAE_NXZ 00402ed0 f   RayTracer.obj
 0001:00001ee0       ?top@?$stack@PBVSceneObject@@V?$deque@PBVSceneObject@@V?$allocator@PBVSceneObject@@@std@@@std@@@std@@QBEABQBVSceneObject@@XZ 00402ee0 f i RayTracer.obj
 0001:00001f10       ?trace@RayTracer@@QAE?AVvec3f@@PAVScene@@NN@Z 00402f10 f   RayTracer.obj
 0001:00002130       ?traceLightSource@RayTracer@@IAE?AVvec3f@@PBVRayData@1@@Z 00403130 f   RayTracer.obj
 0001:000026a0       ?traceLines@RayTracer@@QAEXHH@Z 004036a0 f   RayTracer.obj
 0001:00002a50       ?tracePixel@RayTracer@@QAEXHH@Z 00403a50 f   RayTracer.obj
 0001:00002dd0       ?traceRay@RayTracer@@QAE?AVvec3f@@PAVRayData@1@@Z 00403dd0 f   RayTracer.obj
 0001:00002f90       ?traceRay@RayTracer@@QAE?AVvec3f@@PAVScene@@ABVray@@ABV2@H@Z 00403f90 f   RayTracer.obj
 0001:00003110       ?traceReflection@RayTracer@@IAE?AVvec3f@@PBVRayData@1@@Z 00404110 f   RayTracer.obj
 0001:00003960       ?traceRefraction@RayTracer@@IAE?AVvec3f@@PBVRayData@1@@Z 00404960 f   RayTracer.obj
 0001:00004760       ?traceSetup@RayTracer@@QAEXHH@Z 00405760 f   RayTracer.obj
 0001:000047c0       ?what@exception@std@@UBEPBDXZ 004057c0 f i RayTracer.obj
 0001:000047d0       ??0TraceGLWindow@@QAE@HHHHPBD@Z 004057d0 f   TraceGLWindow.obj
 0001:00004850       ??_EFl_Gl_Window@@UAEPAXI@Z 00405850 f i TraceGLWindow.obj
 0001:00004850       ??_GFl_Gl_Window@@UAEPAXI@Z 00405850 f i TraceGLWindow.obj
 0001:00004880       ??_ETraceGLWindow@@UAEPAXI@Z 00405880 f i TraceGLWindow.obj
 0001:00004880       ??_GTraceGLWindow@@UAEPAXI@Z 00405880 f i TraceGLWindow.obj
 0001:000048b0       ?as_gl_window@Fl_Gl_Window@@UAEPAV1@XZ 004058b0 f i TraceGLWindow.obj
 0001:000048c0       ?as_group@Fl_Group@@UAEPAV1@XZ 004058c0 f i TraceGLWindow.obj
 0001:000048d0       ?as_window@Fl_Window@@UAEPAV1@XZ 004058d0 f i TraceGLWindow.obj
 0001:000048e0       ?draw@TraceGLWindow@@UAEXXZ 004058e0 f   TraceGLWindow.obj
 0001:000049c0       ?handle@TraceGLWindow@@UAEHH@Z 004059c0 f   TraceGLWindow.obj
 0001:000049d0       ?refresh@TraceGLWindow@@QAEXXZ 004059d0 f   TraceGLWindow.obj
 0001:000049e0       ?resizeWindow@TraceGLWindow@@QAEXHH@Z 004059e0 f   TraceGLWindow.obj
 0001:00004a10       ?saveImage@TraceGLWindow@@QAEXPAD@Z 00405a10 f   TraceGLWindow.obj
 0001:00004a60       ?setRayTracer@TraceGLWindow@@QAEXPAVRayTracer@@@Z 00405a60 f   TraceGLWindow.obj
 0001:00004a70       ?cb_load_scene@TraceUI@@KAXPAVFl_Menu_@@PAX@Z 00405a70 f   TraceUI.obj
 0001:00004b10       ?cb_save_image@TraceUI@@KAXPAVFl_Menu_@@PAX@Z 00405b10 f   TraceUI.obj
 0001:00004b50       ?cb_menu_load_background@TraceUI@@KAXPAVFl_Menu_@@PAX@Z 00405b50 f   TraceUI.obj
 0001:00004b60       ?cb_exit@TraceUI@@KAXPAVFl_Menu_@@PAX@Z 00405b60 f   TraceUI.obj
 0001:00004b90       ?cb_about@TraceUI@@KAXPAVFl_Menu_@@PAX@Z 00405b90 f   TraceUI.obj
 0001:00004ba0       ?cb_choice_super_sampling@TraceUI@@KAXPAVFl_Menu_@@PAX@Z 00405ba0 f   TraceUI.obj
 0001:00004bd0       ??0TraceUI@@QAE@XZ         00405bd0 f   TraceUI.obj
 0001:00005590       ?cb_button_background@TraceUI@@KAXPAVFl_Widget@@PAX@Z 00406590 f   TraceUI.obj
 0001:000055b0       ?cb_button_diffuse@TraceUI@@KAXPAVFl_Widget@@PAX@Z 004065b0 f   TraceUI.obj
 0001:000055d0       ?cb_button_dof@TraceUI@@KAXPAVFl_Widget@@PAX@Z 004065d0 f   TraceUI.obj
 0001:000055f0       ?cb_button_glossy@TraceUI@@KAXPAVFl_Widget@@PAX@Z 004065f0 f   TraceUI.obj
 0001:00005610       ?cb_button_override_ambient@TraceUI@@KAXPAVFl_Widget@@PAX@Z 00406610 f   TraceUI.obj
 0001:00005630       ?cb_button_override_atten@TraceUI@@KAXPAVFl_Widget@@PAX@Z 00406630 f   TraceUI.obj
 0001:00005650       ?cb_button_render@TraceUI@@KAXPAVFl_Widget@@PAX@Z 00406650 f   TraceUI.obj
 0001:00005860       ?cb_button_soft_shadow@TraceUI@@KAXPAVFl_Widget@@PAX@Z 00406860 f   TraceUI.obj
 0001:00005880       ?cb_button_stop@TraceUI@@KAXPAVFl_Widget@@PAX@Z 00406880 f   TraceUI.obj
 0001:00005890       ?cb_exit2@TraceUI@@KAXPAVFl_Widget@@PAX@Z 00406890 f   TraceUI.obj
 0001:000058c0       ?cb_slider_atten_ambient@TraceUI@@KAXPAVFl_Widget@@PAX@Z 004068c0 f   TraceUI.obj
 0001:000058e0       ?cb_slider_atten_constant@TraceUI@@KAXPAVFl_Widget@@PAX@Z 004068e0 f   TraceUI.obj
 0001:00005900       ?cb_slider_atten_linear@TraceUI@@KAXPAVFl_Widget@@PAX@Z 00406900 f   TraceUI.obj
 0001:00005920       ?cb_slider_atten_quadric@TraceUI@@KAXPAVFl_Widget@@PAX@Z 00406920 f   TraceUI.obj
 0001:00005940       ?cb_slider_depth@TraceUI@@KAXPAVFl_Widget@@PAX@Z 00406940 f   TraceUI.obj
 0001:00005960       ?cb_slider_size@TraceUI@@KAXPAVFl_Widget@@PAX@Z 00406960 f   TraceUI.obj
 0001:000059b0       ?cb_slider_sub_pixel@TraceUI@@KAXPAVFl_Widget@@PAX@Z 004069b0 f   TraceUI.obj
 0001:000059d0       ?cb_slider_threshold@TraceUI@@KAXPAVFl_Widget@@PAX@Z 004069d0 f   TraceUI.obj
 0001:000059f0       ?getAmbient@TraceUI@@QAENXZ 004069f0 f   TraceUI.obj
 0001:00005a00       ?getAttenConstant@TraceUI@@QAENXZ 00406a00 f   TraceUI.obj
 0001:00005a10       ?getAttenLinear@TraceUI@@QAENXZ 00406a10 f   TraceUI.obj
 0001:00005a20       ?getAttenQuadric@TraceUI@@QAENXZ 00406a20 f   TraceUI.obj
 0001:00005a30       ?getDepth@TraceUI@@QAEHXZ  00406a30 f   TraceUI.obj
 0001:00005a40       ?getIsBackground@TraceUI@@QAE_NXZ 00406a40 f   TraceUI.obj
 0001:00005a50       ?getIsDOF@TraceUI@@QAE_NXZ 00406a50 f   TraceUI.obj
 0001:00005a60       ?getIsDiffuse@TraceUI@@QAE_NXZ 00406a60 f   TraceUI.obj
 0001:00005a70       ?getIsGlossy@TraceUI@@QAE_NXZ 00406a70 f   TraceUI.obj
 0001:00005a80       ?getIsOverrideAmbient@TraceUI@@QAE_NXZ 00406a80 f   TraceUI.obj
 0001:00005a90       ?getIsOverrideAtten@TraceUI@@QAE_NXZ 00406a90 f   TraceUI.obj
 0001:00005aa0       ?getIsSoftShadow@TraceUI@@QAE_NXZ 00406aa0 f   TraceUI.obj
 0001:00005ab0       ?getSize@TraceUI@@QAEHXZ   00406ab0 f   TraceUI.obj
 0001:00005ac0       ?getSubPixel@TraceUI@@QAEHXZ 00406ac0 f   TraceUI.obj
 0001:00005ad0       ?getSuperSamplingMethod@TraceUI@@QAE?AW4RayTracing_SuperSampling_Method@@XZ 00406ad0 f   TraceUI.obj
 0001:00005ae0       ?getThreshold@TraceUI@@QAENXZ 00406ae0 f   TraceUI.obj
 0001:00005af0       ?setRayTracer@TraceUI@@QAEXPAVRayTracer@@@Z 00406af0 f   TraceUI.obj
 0001:00005b10       ?show@TraceUI@@QAEXXZ      00406b10 f   TraceUI.obj
 0001:00005b20       ?whoami@TraceUI@@KAPAV1@PAVFl_Menu_@@@Z 00406b20 f   TraceUI.obj
 0001:00005b30       _sprintf                   00406b30 f i TraceUI.obj
 0001:00005b70       ?readBMP@@YAPAEPADAAH1@Z   00406b70 f   bitmap.obj
 0001:00005d00       ?writeBMP@@YAXPADHHPAE@Z   00406d00 f   bitmap.obj
 0001:00005e90       ??$?0ABV?$basic_string@DU?$char_traits@D@std@@V?$allocator@D@2@@std@@$$Z$$V@?$pair@$$CBV?$basic_string@DU?$char_traits@D@std@@V?$allocator@D@2@@std@@PAVObj@@@std@@QAE@Upiecewise_construct_t@1@V?$tuple@ABV?$basic_string@DU?$char_traits@D@std@@V?$allocator@D@2@@std@@@1@V?$tuple@$$V@1@@Z 00406e90 f i parse.obj
 0001:00005ec0       ??$?0V?$tuple@ABV?$basic_string@DU?$char_traits@D@std@@V?$allocator@D@2@@std@@@std@@V?$tuple@$$V@1@$0A@$$Z$S@?$pair@$$CBV?$basic_string@DU?$char_traits@D@std@@V?$allocator@D@2@@std@@PAVObj@@@std@@QAE@AAV?$tuple@ABV?$basic_string@DU?$char_traits@D@std@@V?$allocator@D@2@@std@@@1@AAV?$tuple@$$V@1@U?$integer_sequence@I$0A@@1@U?$integer_sequence@I$S@1@@Z 00406ec0 f i parse.obj
 0001:00005ef0       ??$?6DU?$char_traits@D@std@@V?$allocator@D@1@@std@@YAAAV?$basic_ostream@DU?$char_traits@D@std@@@0@AAV10@ABV?$basic_string@DU?$char_traits@D@std@@V?$allocator@D@2@@0@@Z 00406ef0 f i parse.obj
 0001:00005f20       ??$?6U?$char_traits@D@std@@@std@@YAAAV?$basic_ostream@DU?$char_traits@D@std@@@0@AAV10@D@Z 00406f20 f i parse.obj
 0001:000060f0       ??$?6U?$char_traits@D@std@@@std@@YAAAV?$basic_ostream@DU?$char_traits@D@std@@@0@AAV10@PBD@Z 004070f0 f i parse.obj
 0001:000062e0       ??$?8DU?$char_traits@D@std@@V?$allocator@D@1@@std@@YA_NABV?$basic_string@DU?$char_traits@D@std@@V?$allocator@D@2@@0@QBD@Z 004072e0 f i parse.obj
 0001:00006370       ??$?HDU?$char_traits@D@std@@V?$allocator@D@1@@std@@YA?AV?$basic_string@DU?$char_traits@D@std@@V?$allocator@D@2@@0@$$QAV10@0@Z 00407370 f i parse.obj
 0001:000063f0       ??$?HDU?$char_traits@D@std@@V?$allocator@D@1@@std@@YA?AV?$basic_string@DU?$char_traits@D@std@@V?$allocator@D@2@@0@$$QAV10@ABV10@@Z 004073f0 f i parse.obj
 0001:00006450       ??$?MDU?$char_traits@D@std@@V?$allocator@D@1@@std@@YA_NABV?$basic_string@DU?$char_traits@D@std@@V?$allocator@D@2@@0@0@Z 00407450 f i parse.obj
 0001:00006490       ??$_Construct_in_place@PAU?$_Tree_node@U?$pair@$$CBV?$basic_string@DU?$char_traits@D@std@@V?$allocator@D@2@@std@@PAVObj@@@std@@PAX@std@@AAPAU12@@std@@YAXAAPAU?$_Tree_node@U?$pair@$$CBV?$basic_string@DU?$char_traits@D@std@@V?$allocator@D@2@@std@@PAVObj@@@std@@PAX@0@0@Z 00407490 f i parse.obj
 0001:000064a0       ??$_Construct_in_place@PAU?$_Tree_node@U?$pair@$$CBV?$basic_string@DU?$char_traits@D@std@@V?$allocator@D@2@@std@@PAVObj@@@std@@PAX@std@@ABQAU12@@std@@YAXAAPAU?$_Tree_node@U?$pair@$$CBV?$basic_string@DU?$char_traits@D@std@@V?$allocator@D@2@@std@@PAVObj@@@std@@PAX@0@ABQAU10@@Z 004074a0 f i parse.obj
 0001:000064b0       ??$_Copy_memmove@PAPAVObj@@PAPAV1@@std@@YAPAPAVObj@@PAPAV1@00@Z 004074b0 f i parse.obj
 0001:000064e0       ??$_Copy_nodes@U_Copy_tag@?$_Tree@V?$_Tmap_traits@V?$basic_string@DU?$char_traits@D@std@@V?$allocator@D@2@@std@@PAVObj@@U?$less@V?$basic_string@DU?$char_traits@D@std@@V?$allocator@D@2@@std@@@2@V?$allocator@U?$pair@$$CBV?$basic_string@DU?$char_traits@D@std@@V?$allocator@D@2@@std@@PAVObj@@@std@@@2@$0A@@std@@@std@@@?$_Tree@V?$_Tmap_traits@V?$basic_string@DU?$char_traits@D@std@@V?$allocator@D@2@@std@@PAVObj@@U?$less@V?$basic_string@DU?$char_traits@D@std@@V?$allocator@D@2@@std@@@2@V?$allocator@U?$pair@$$CBV?$basic_string@DU?$char_traits@D@std@@V?$allocator@D@2@@std@@PAVObj@@@std@@@2@$0A@@std@@@std@@IAEPAU?$_Tree_node@U?$pair@$$CBV?$basic_string@DU?$char_traits@D@std@@V?$allocator@D@2@@std@@PAVObj@@@std@@PAX@1@PAU21@0U_Copy_tag@01@@Z 004074e0 f i parse.obj
 0001:000065e0       ??$_Destroy_in_place@PAU?$_Tree_node@U?$pair@$$CBV?$basic_string@DU?$char_traits@D@std@@V?$allocator@D@2@@std@@PAVObj@@@std@@PAX@std@@@std@@YAXAAPAU?$_Tree_node@U?$pair@$$CBV?$basic_string@DU?$char_traits@D@std@@V?$allocator@D@2@@std@@PAVObj@@@std@@PAX@0@@Z 004075e0 f i parse.obj
 0001:000065f0       ??$_Destroy_range@V?$allocator@PAVObj@@@std@@@std@@YAXPAPAVObj@@QAPAV1@AAV?$allocator@PAVObj@@@0@@Z 004075f0 f i parse.obj
 0001:00006600       ??$_Emplace_reallocate@PAVObj@@@?$vector@PAVObj@@V?$allocator@PAVObj@@@std@@@std@@QAEPAPAVObj@@QAPAV2@$$QAPAV2@@Z 00407600 f i parse.obj
 0001:00006710       ??$_Erase_tree@V?$allocator@U?$_Tree_node@U?$pair@$$CBV?$basic_string@DU?$char_traits@D@std@@V?$allocator@D@2@@std@@PAVObj@@@std@@PAX@std@@@std@@@?$_Tree_val@U?$_Tree_simple_types@U?$pair@$$CBV?$basic_string@DU?$char_traits@D@std@@V?$allocator@D@2@@std@@PAVObj@@@std@@@std@@@std@@QAEXAAV?$allocator@U?$_Tree_node@U?$pair@$$CBV?$basic_string@DU?$char_traits@D@std@@V?$allocator@D@2@@std@@PAVObj@@@std@@PAX@std@@@1@PAU?$_Tree_node@U?$pair@$$CBV?$basic_string@DU?$char_traits@D@std@@V?$allocator@D@2@@std@@PAVObj@@@std@@PAX@1@@Z 00407710 f i parse.obj
 0001:000067a0       ??$_Erase_tree_and_orphan@V?$allocator@U?$_Tree_node@U?$pair@$$CBV?$basic_string@DU?$char_traits@D@std@@V?$allocator@D@2@@std@@PAVObj@@@std@@PAX@std@@@std@@@?$_Tree_val@U?$_Tree_simple_types@U?$pair@$$CBV?$basic_string@DU?$char_traits@D@std@@V?$allocator@D@2@@std@@PAVObj@@@std@@@std@@@std@@QAEXAAV?$allocator@U?$_Tree_node@U?$pair@$$CBV?$basic_string@DU?$char_traits@D@std@@V?$allocator@D@2@@std@@PAVObj@@@std@@PAX@std@@@1@PAU?$_Tree_node@U?$pair@$$CBV?$basic_string@DU?$char_traits@D@std@@V?$allocator@D@2@@std@@PAVObj@@@std@@PAX@1@@Z 004077a0 f i parse.obj
 0001:00006830       ??$_Insert_string@DU?$char_traits@D@std@@I@std@@YAAAV?$basic_ostream@DU?$char_traits@D@std@@@0@AAV10@QBDI@Z 00407830 f i parse.obj
 0001:000069e0       ??$_Pocma@V?$allocator@D@std@@@std@@YAXAAV?$allocator@D@0@0@Z 004079e0 f i parse.obj
 0001:000069f0       ??$_Traits_compare@U?$char_traits@D@std@@@std@@YAHQBDI0I@Z 004079f0 f i parse.obj
 0001:00006a80       ??$_Uninitialized_copy@PAPAVObj@@V?$allocator@PAVObj@@@std@@@std@@YAPAPAVObj@@QAPAV1@0PAPAV1@AAV?$allocator@PAVObj@@@0@@Z 00407a80 f i parse.obj
 0001:00006ab0       ??$_Uninitialized_move@PAPAVObj@@V?$allocator@PAVObj@@@std@@@std@@YAPAPAVObj@@QAPAV1@0PAPAV1@AAV?$allocator@PAVObj@@@0@@Z 00407ab0 f i parse.obj
 0001:00006ae0       ??$exchange@PAU?$_Tree_node@U?$pair@$$CBV?$basic_string@DU?$char_traits@D@std@@V?$allocator@D@2@@std@@PAVObj@@@std@@PAX@std@@$$T@std@@YAPAU?$_Tree_node@U?$pair@$$CBV?$basic_string@DU?$char_traits@D@std@@V?$allocator@D@2@@std@@PAVObj@@@std@@PAX@0@AAPAU10@$$QA$$T@Z 00407ae0 f i parse.obj
 0001:00006b00       ??$exchange@PAU?$_Tree_node@U?$pair@$$CBV?$basic_string@DU?$char_traits@D@std@@V?$allocator@D@2@@std@@PAVObj@@@std@@PAX@std@@AAPAU12@@std@@YAPAU?$_Tree_node@U?$pair@$$CBV?$basic_string@DU?$char_traits@D@std@@V?$allocator@D@2@@std@@PAVObj@@@std@@PAX@0@AAPAU10@0@Z 00407b00 f i parse.obj
 0001:00006b20       ??0?$basic_string@DU?$char_traits@D@std@@V?$allocator@D@2@@std@@QAE@ABV01@@Z 00407b20 f i parse.obj
 0001:00006bb0       ??0?$basic_string@DU?$char_traits@D@std@@V?$allocator@D@2@@std@@QAE@QBD@Z 00407bb0 f i parse.obj
 0001:00006bf0       ??0Exception@@QAE@ABV0@@Z  00407bf0 f i parse.obj
 0001:00006c10       ??0IdObj@@QAE@ABV?$basic_string@DU?$char_traits@D@std@@V?$allocator@D@2@@std@@@Z 00407c10 f i parse.obj
 0001:00006c70       ??0ObjTypeMismatch@@QAE@ABV0@@Z 00407c70 f i parse.obj
 0001:00006c90       ??0ObjTypeMismatch@@QAE@V?$basic_string@DU?$char_traits@D@std@@V?$allocator@D@2@@std@@0@Z 00407c90 f i parse.obj
 0001:000070e0       ??0ParseError@@QAE@ABV0@@Z 004080e0 f i parse.obj
 0001:00007100       ??0ParseError@@QAE@ABV?$basic_string@DU?$char_traits@D@std@@V?$allocator@D@2@@std@@@Z 00408100 f i parse.obj
 0001:00007120       ??0sentry@?$basic_ostream@DU?$char_traits@D@std@@@std@@QAE@AAV12@@Z 00408120 f i parse.obj
 0001:000071c0       ??1?$_Alloc_construct_ptr@V?$allocator@U?$_Tree_node@U?$pair@$$CBV?$basic_string@DU?$char_traits@D@std@@V?$allocator@D@2@@std@@PAVObj@@@std@@PAX@std@@@std@@@std@@QAE@XZ 004081c0 f i parse.obj
 0001:000071e0       ??1?$_Tree_head_scoped_ptr@V?$allocator@U?$_Tree_node@U?$pair@$$CBV?$basic_string@DU?$char_traits@D@std@@V?$allocator@D@2@@std@@PAVObj@@@std@@PAX@std@@@std@@V?$_Tree_val@U?$_Tree_simple_types@U?$pair@$$CBV?$basic_string@DU?$char_traits@D@std@@V?$allocator@D@2@@std@@PAVObj@@@std@@@std@@@2@@std@@QAE@XZ 004081e0 f i parse.obj
 0001:00007210       ??1?$_Tree_temp_node_alloc@V?$allocator@U?$_Tree_node@U?$pair@$$CBV?$basic_string@DU?$char_traits@D@std@@V?$allocator@D@2@@std@@PAVObj@@@std@@PAX@std@@@std@@@std@@QAE@XZ 00408210 f i parse.obj
 0001:00007230       ??1?$map@V?$basic_string@DU?$char_traits@D@std@@V?$allocator@D@2@@std@@PAVObj@@U?$less@V?$basic_string@DU?$char_traits@D@std@@V?$allocator@D@2@@std@@@2@V?$allocator@U?$pair@$$CBV?$basic_string@DU?$char_traits@D@std@@V?$allocator@D@2@@std@@PAVObj@@@std@@@2@@std@@QAE@XZ 00408230 f i parse.obj
 0001:00007250       ??1?$vector@PAVObj@@V?$allocator@PAVObj@@@std@@@std@@QAE@XZ 00408250 f i parse.obj
 0001:000072b0       ??1BooleanObj@@UAE@XZ      004082b0 f i parse.obj
 0001:000072c0       ??1DictObj@@UAE@XZ         004082c0 f i parse.obj
 0001:00007330       ??1IdObj@@UAE@XZ           00408330 f i parse.obj
 0001:00007390       ??1NamedObj@@UAE@XZ        00408390 f i parse.obj
 0001:00007400       ??1Obj@@UAE@XZ             00408400 f i parse.obj
 0001:00007410       ??1ObjTypeMismatch@@QAE@XZ 00408410 f i parse.obj
 0001:00007460       ??1ScalarObj@@UAE@XZ       00408460 f i parse.obj
 0001:00007470       ??1StringObj@@UAE@XZ       00408470 f i parse.obj
 0001:000074d0       ??1TupleObj@@UAE@XZ        004084d0 f i parse.obj
 0001:00007550       ??1_Sentry_base@?$basic_ostream@DU?$char_traits@D@std@@@std@@QAE@XZ 00408550 f i parse.obj
 0001:000075a0       ??1sentry@?$basic_ostream@DU?$char_traits@D@std@@@std@@QAE@XZ 004085a0 f i parse.obj
 0001:00007610       ??E?$_Tree_const_iterator@V?$_Tree_val@U?$_Tree_simple_types@U?$pair@$$CBV?$basic_string@DU?$char_traits@D@std@@V?$allocator@D@2@@std@@PAVObj@@@std@@@std@@@std@@@std@@QAEAAV01@XZ 00408610 f i parse.obj
 0001:00007670       ??_EBooleanObj@@UAEPAXI@Z  00408670 f i parse.obj
 0001:00007670       ??_GBooleanObj@@UAEPAXI@Z  00408670 f i parse.obj
 0001:000076a0       ??_GDictObj@@UAEPAXI@Z     004086a0 f i parse.obj
 0001:000076a0       ??_EDictObj@@UAEPAXI@Z     004086a0 f i parse.obj
 0001:00007720       ??_EIdObj@@UAEPAXI@Z       00408720 f i parse.obj
 0001:00007720       ??_GIdObj@@UAEPAXI@Z       00408720 f i parse.obj
 0001:000077a0       ??_GNamedObj@@UAEPAXI@Z    004087a0 f i parse.obj
 0001:000077a0       ??_ENamedObj@@UAEPAXI@Z    004087a0 f i parse.obj
 0001:00007820       ??_EObj@@UAEPAXI@Z         00408820 f i parse.obj
 0001:00007820       ??_GObj@@UAEPAXI@Z         00408820 f i parse.obj
 0001:00007850       ??_EScalarObj@@UAEPAXI@Z   00408850 f i parse.obj
 0001:00007850       ??_GScalarObj@@UAEPAXI@Z   00408850 f i parse.obj
 0001:00007880       ??_EStringObj@@UAEPAXI@Z   00408880 f i parse.obj
 0001:00007880       ??_GStringObj@@UAEPAXI@Z   00408880 f i parse.obj
 0001:00007900       ??_GTupleObj@@UAEPAXI@Z    00408900 f i parse.obj
 0001:00007900       ??_ETupleObj@@UAEPAXI@Z    00408900 f i parse.obj
 0001:000079a0       ?_Getal@?$_Tree@V?$_Tmap_traits@V?$basic_string@DU?$char_traits@D@std@@V?$allocator@D@2@@std@@PAVObj@@U?$less@V?$basic_string@DU?$char_traits@D@std@@V?$allocator@D@2@@std@@@2@V?$allocator@U?$pair@$$CBV?$basic_string@DU?$char_traits@D@std@@V?$allocator@D@2@@std@@PAVObj@@@std@@@2@$0A@@std@@@std@@IAEAAV?$allocator@U?$_Tree_node@U?$pair@$$CBV?$basic_string@DU?$char_traits@D@std@@V?$allocator@D@2@@std@@PAVObj@@@std@@PAX@std@@@2@XZ 004089a0 f i parse.obj
 0001:000079b0       ?_Insert_node@?$_Tree_val@U?$_Tree_simple_types@U?$pair@$$CBV?$basic_string@DU?$char_traits@D@std@@V?$allocator@D@2@@std@@PAVObj@@@std@@@std@@@std@@QAEPAU?$_Tree_node@U?$pair@$$CBV?$basic_string@DU?$char_traits@D@std@@V?$allocator@D@2@@std@@PAVObj@@@std@@PAX@2@U?$_Tree_id@PAU?$_Tree_node@U?$pair@$$CBV?$basic_string@DU?$char_traits@D@std@@V?$allocator@D@2@@std@@PAVObj@@@std@@PAX@std@@@2@QAU32@@Z 004089b0 f i parse.obj
 0001:00007bc0       ?_Throw_tree_length_error@std@@YAXXZ 00408bc0 f i parse.obj
 0001:00007bd0       ?_Xlength@?$vector@PAVObj@@V?$allocator@PAVObj@@@std@@@std@@CAXXZ 00408bd0 f i parse.obj
 0001:00007be0       ?_Xran@?$_String_val@U?$_Simple_types@D@std@@@std@@SAXXZ 00408be0 f i parse.obj
 0001:00007bf0       ?allocate@?$allocator@PAVObj@@@std@@QAEPAPAVObj@@I@Z 00408bf0 f i parse.obj
 0001:00007c50       ?append@?$basic_string@DU?$char_traits@D@std@@V?$allocator@D@2@@std@@QAEAAV12@QBDI@Z 00408c50 f i parse.obj
 0001:00007f80       ?getBoolean@BooleanObj@@UBE_NXZ 00408f80 f i parse.obj
 0001:00007f90       ?getBoolean@Obj@@UBE_NXZ   00408f90 f i parse.obj
 0001:00008000       ?getChild@NamedObj@@UBEPAVObj@@XZ 00409000 f i parse.obj
 0001:00008010       ?getChild@Obj@@UBEPAV1@XZ  00409010 f i parse.obj
 0001:00008080       ?getDict@DictObj@@UBEABV?$map@V?$basic_string@DU?$char_traits@D@std@@V?$allocator@D@2@@std@@PAVObj@@U?$less@V?$basic_string@DU?$char_traits@D@std@@V?$allocator@D@2@@std@@@2@V?$allocator@U?$pair@$$CBV?$basic_string@DU?$char_traits@D@std@@V?$allocator@D@2@@std@@PAVObj@@@std@@@2@@std@@XZ 00409080 f i parse.obj
 0001:00008090       ?getDict@Obj@@UBEABV?$map@V?$basic_string@DU?$char_traits@D@std@@V?$allocator@D@2@@std@@PAVObj@@U?$less@V?$basic_string@DU?$char_traits@D@std@@V?$allocator@D@2@@std@@@2@V?$allocator@U?$pair@$$CBV?$basic_string@DU?$char_traits@D@std@@V?$allocator@D@2@@std@@PAVObj@@@std@@@2@@std@@XZ 00409090 f i parse.obj
 0001:00008100       ?getID@IdObj@@UBE?AV?$basic_string@DU?$char_traits@D@std@@V?$allocator@D@2@@std@@XZ 00409100 f i parse.obj
 0001:00008120       ?getID@Obj@@UBE?AV?$basic_string@DU?$char_traits@D@std@@V?$allocator@D@2@@std@@XZ 00409120 f i parse.obj
 0001:00008190       ?getName@NamedObj@@UBE?AV?$basic_string@DU?$char_traits@D@std@@V?$allocator@D@2@@std@@XZ 00409190 f i parse.obj
 0001:000081b0       ?getName@Obj@@UBE?AV?$basic_string@DU?$char_traits@D@std@@V?$allocator@D@2@@std@@XZ 004091b0 f i parse.obj
 0001:00008220       ?getScalar@Obj@@UBENXZ     00409220 f i parse.obj
 0001:00008290       ?getScalar@ScalarObj@@UBENXZ 00409290 f i parse.obj
 0001:000082a0       ?getString@Obj@@UBE?AV?$basic_string@DU?$char_traits@D@std@@V?$allocator@D@2@@std@@XZ 004092a0 f i parse.obj
 0001:00008310       ?getString@StringObj@@UBE?AV?$basic_string@DU?$char_traits@D@std@@V?$allocator@D@2@@std@@XZ 00409310 f i parse.obj
 0001:00008330       ?getTuple@Obj@@UBEABV?$vector@PAVObj@@V?$allocator@PAVObj@@@std@@@std@@XZ 00409330 f i parse.obj
 0001:000083a0       ?getTuple@TupleObj@@UBEABV?$vector@PAVObj@@V?$allocator@PAVObj@@@std@@@std@@XZ 004093a0 f i parse.obj
 0001:000083b0       ?getTypeName@BooleanObj@@UBE?AV?$basic_string@DU?$char_traits@D@std@@V?$allocator@D@2@@std@@XZ 004093b0 f i parse.obj
 0001:000083e0       ?getTypeName@DictObj@@UBE?AV?$basic_string@DU?$char_traits@D@std@@V?$allocator@D@2@@std@@XZ 004093e0 f i parse.obj
 0001:00008410       ?getTypeName@IdObj@@UBE?AV?$basic_string@DU?$char_traits@D@std@@V?$allocator@D@2@@std@@XZ 00409410 f i parse.obj
 0001:00008440       ?getTypeName@NamedObj@@UBE?AV?$basic_string@DU?$char_traits@D@std@@V?$allocator@D@2@@std@@XZ 00409440 f i parse.obj
 0001:00008480       ?getTypeName@Obj@@UBE?AV?$basic_string@DU?$char_traits@D@std@@V?$allocator@D@2@@std@@XZ 00409480 f i parse.obj
 0001:000084c0       ?getTypeName@ScalarObj@@UBE?AV?$basic_string@DU?$char_traits@D@std@@V?$allocator@D@2@@std@@XZ 004094c0 f i parse.obj
 0001:00008500       ?getTypeName@StringObj@@UBE?AV?$basic_string@DU?$char_traits@D@std@@V?$allocator@D@2@@std@@XZ 00409500 f i parse.obj
 0001:00008540       ?getTypeName@TupleObj@@UBE?AV?$basic_string@DU?$char_traits@D@std@@V?$allocator@D@2@@std@@XZ 00409540 f i parse.obj
 0001:00008580       ?insert@?$basic_string@DU?$char_traits@D@std@@V?$allocator@D@2@@std@@QAEAAV12@IQBDI@Z 00409580 f i parse.obj
 0001:00008770       ?printOn@BooleanObj@@UBEXAAV?$basic_ostream@DU?$char_traits@D@std@@@std@@@Z 00409770 f i parse.obj
 0001:000087a0       ?printOn@DictObj@@UBEXAAV?$basic_ostream@DU?$char_traits@D@std@@@std@@@Z 004097a0 f i parse.obj
 0001:00008880       ?printOn@IdObj@@UBEXAAV?$basic_ostream@DU?$char_traits@D@std@@@std@@@Z 00409880 f i parse.obj
 0001:000088b0       ?printOn@NamedObj@@UBEXAAV?$basic_ostream@DU?$char_traits@D@std@@@std@@@Z 004098b0 f i parse.obj
 0001:000088f0       ?printOn@Obj@@UBEXAAV?$basic_ostream@DU?$char_traits@D@std@@@std@@@Z 004098f0 f i parse.obj
 0001:00008900       ?printOn@ScalarObj@@UBEXAAV?$basic_ostream@DU?$char_traits@D@std@@@std@@@Z 00409900 f i parse.obj
 0001:00008920       ?printOn@StringObj@@UBEXAAV?$basic_ostream@DU?$char_traits@D@std@@@std@@@Z 00409920 f i parse.obj
 0001:00008960       ?printOn@TupleObj@@UBEXAAV?$basic_ostream@DU?$char_traits@D@std@@@std@@@Z 00409960 f i parse.obj
 0001:00008e60       ?readFile@@YAPAVObj@@AAV?$basic_istream@DU?$char_traits@D@std@@@std@@@Z 00409e60 f   parse.obj
 0001:00009b10       ??$?0ABV?$basic_string@DU?$char_traits@D@std@@V?$allocator@D@2@@std@@$$Z$$V@?$pair@$$CBV?$basic_string@DU?$char_traits@D@std@@V?$allocator@D@2@@std@@PAVMaterial@@@std@@QAE@Upiecewise_construct_t@1@V?$tuple@ABV?$basic_string@DU?$char_traits@D@std@@V?$allocator@D@2@@std@@@1@V?$tuple@$$V@1@@Z 0040ab10 f i read.obj
 0001:00009b40       ??$?0V?$tuple@ABV?$basic_string@DU?$char_traits@D@std@@V?$allocator@D@2@@std@@@std@@V?$tuple@$$V@1@$0A@$$Z$S@?$pair@$$CBV?$basic_string@DU?$char_traits@D@std@@V?$allocator@D@2@@std@@PAVMaterial@@@std@@QAE@AAV?$tuple@ABV?$basic_string@DU?$char_traits@D@std@@V?$allocator@D@2@@std@@@1@AAV?$tuple@$$V@1@U?$integer_sequence@I$0A@@1@U?$integer_sequence@I$S@1@@Z 0040ab40 f i read.obj
 0001:00009b70       ??$?HDU?$char_traits@D@std@@V?$allocator@D@1@@std@@YA?AV?$basic_string@DU?$char_traits@D@std@@V?$allocator@D@2@@0@$$QAV10@QBD@Z 0040ab70 f i read.obj
 0001:00009bd0       ??$_Construct_in_place@PAU?$_List_node@PAVAmbientLight@@PAX@std@@AAPAU12@@std@@YAXAAPAU?$_List_node@PAVAmbientLight@@PAX@0@0@Z 0040abd0 f i read.obj
 0001:00009be0       ??$_Construct_in_place@PAU?$_List_node@PAVAmbientLight@@PAX@std@@ABQAU12@@std@@YAXAAPAU?$_List_node@PAVAmbientLight@@PAX@0@ABQAU10@@Z 0040abe0 f i read.obj
 0001:00009bf0       ??$_Construct_in_place@PAU?$_List_node@PAVGeometry@@PAX@std@@AAPAU12@@std@@YAXAAPAU?$_List_node@PAVGeometry@@PAX@0@0@Z 0040abf0 f i read.obj
 0001:00009c00       ??$_Construct_in_place@PAU?$_List_node@PAVGeometry@@PAX@std@@ABQAU12@@std@@YAXAAPAU?$_List_node@PAVGeometry@@PAX@0@ABQAU10@@Z 0040ac00 f i read.obj
 0001:00009c10       ??$_Construct_in_place@PAU?$_List_node@PAVLight@@PAX@std@@AAPAU12@@std@@YAXAAPAU?$_List_node@PAVLight@@PAX@0@0@Z 0040ac10 f i read.obj
 0001:00009c20       ??$_Construct_in_place@PAU?$_List_node@PAVLight@@PAX@std@@ABQAU12@@std@@YAXAAPAU?$_List_node@PAVLight@@PAX@0@ABQAU10@@Z 0040ac20 f i read.obj
 0001:00009c30       ??$_Construct_in_place@PAU?$_List_node@PAVTransformNode@@PAX@std@@AAPAU12@@std@@YAXAAPAU?$_List_node@PAVTransformNode@@PAX@0@0@Z 0040ac30 f i read.obj
 0001:00009c40       ??$_Construct_in_place@PAU?$_List_node@PAVTransformNode@@PAX@std@@ABQAU12@@std@@YAXAAPAU?$_List_node@PAVTransformNode@@PAX@0@ABQAU10@@Z 0040ac40 f i read.obj
 0001:00009c50       ??$_Construct_in_place@PAU?$_Tree_node@U?$pair@$$CBV?$basic_string@DU?$char_traits@D@std@@V?$allocator@D@2@@std@@PAVMaterial@@@std@@PAX@std@@AAPAU12@@std@@YAXAAPAU?$_Tree_node@U?$pair@$$CBV?$basic_string@DU?$char_traits@D@std@@V?$allocator@D@2@@std@@PAVMaterial@@@std@@PAX@0@0@Z 0040ac50 f i read.obj
 0001:00009c60       ??$_Construct_in_place@PAU?$_Tree_node@U?$pair@$$CBV?$basic_string@DU?$char_traits@D@std@@V?$allocator@D@2@@std@@PAVMaterial@@@std@@PAX@std@@ABQAU12@@std@@YAXAAPAU?$_Tree_node@U?$pair@$$CBV?$basic_string@DU?$char_traits@D@std@@V?$allocator@D@2@@std@@PAVMaterial@@@std@@PAX@0@ABQAU10@@Z 0040ac60 f i read.obj
 0001:00009c70       ??$_Destroy_in_place@PAU?$_List_node@PAVAmbientLight@@PAX@std@@@std@@YAXAAPAU?$_List_node@PAVAmbientLight@@PAX@0@@Z 0040ac70 f i read.obj
 0001:00009c80       ??$_Destroy_in_place@PAU?$_List_node@PAVGeometry@@PAX@std@@@std@@YAXAAPAU?$_List_node@PAVGeometry@@PAX@0@@Z 0040ac80 f i read.obj
 0001:00009c90       ??$_Destroy_in_place@PAU?$_List_node@PAVLight@@PAX@std@@@std@@YAXAAPAU?$_List_node@PAVLight@@PAX@0@@Z 0040ac90 f i read.obj
 0001:00009ca0       ??$_Destroy_in_place@PAU?$_List_node@PAVTransformNode@@PAX@std@@@std@@YAXAAPAU?$_List_node@PAVTransformNode@@PAX@0@@Z 0040aca0 f i read.obj
 0001:00009cb0       ??$_Destroy_in_place@PAU?$_Tree_node@U?$pair@$$CBV?$basic_string@DU?$char_traits@D@std@@V?$allocator@D@2@@std@@PAVMaterial@@@std@@PAX@std@@@std@@YAXAAPAU?$_Tree_node@U?$pair@$$CBV?$basic_string@DU?$char_traits@D@std@@V?$allocator@D@2@@std@@PAVMaterial@@@std@@PAX@0@@Z 0040acb0 f i read.obj
 0001:00009cc0       ??$_Destroy_range@V?$allocator@PAVMaterial@@@std@@@std@@YAXPAPAVMaterial@@QAPAV1@AAV?$allocator@PAVMaterial@@@0@@Z 0040acc0 f i read.obj
 0001:00009cd0       ??$_Destroy_range@V?$allocator@PAVTrimeshFace@@@std@@@std@@YAXPAPAVTrimeshFace@@QAPAV1@AAV?$allocator@PAVTrimeshFace@@@0@@Z 0040acd0 f i read.obj
 0001:00009ce0       ??$_Destroy_range@V?$allocator@Vvec3f@@@std@@@std@@YAXPAVvec3f@@QAV1@AAV?$allocator@Vvec3f@@@0@@Z 0040ace0 f i read.obj
 0001:00009cf0       ??$_Erase_tree@V?$allocator@U?$_Tree_node@U?$pair@$$CBV?$basic_string@DU?$char_traits@D@std@@V?$allocator@D@2@@std@@PAVMaterial@@@std@@PAX@std@@@std@@@?$_Tree_val@U?$_Tree_simple_types@U?$pair@$$CBV?$basic_string@DU?$char_traits@D@std@@V?$allocator@D@2@@std@@PAVMaterial@@@std@@@std@@@std@@QAEXAAV?$allocator@U?$_Tree_node@U?$pair@$$CBV?$basic_string@DU?$char_traits@D@std@@V?$allocator@D@2@@std@@PAVMaterial@@@std@@PAX@std@@@1@PAU?$_Tree_node@U?$pair@$$CBV?$basic_string@DU?$char_traits@D@std@@V?$allocator@D@2@@std@@PAVMaterial@@@std@@PAX@1@@Z 0040acf0 f i read.obj
 0001:00009d80       ??$_Find_lower_bound@V?$basic_string@DU?$char_traits@D@std@@V?$allocator@D@2@@std@@@?$_Tree@V?$_Tmap_traits@V?$basic_string@DU?$char_traits@D@std@@V?$allocator@D@2@@std@@PAVMaterial@@U?$less@V?$basic_string@DU?$char_traits@D@std@@V?$allocator@D@2@@std@@@2@V?$allocator@U?$pair@$$CBV?$basic_string@DU?$char_traits@D@std@@V?$allocator@D@2@@std@@PAVMaterial@@@std@@@2@$0A@@std@@@std@@IBE?AU?$_Tree_find_result@PAU?$_Tree_node@U?$pair@$$CBV?$basic_string@DU?$char_traits@D@std@@V?$allocator@D@2@@std@@PAVMaterial@@@std@@PAX@std@@@1@ABV?$basic_string@DU?$char_traits@D@std@@V?$allocator@D@2@@1@@Z 0040ad80 f i read.obj
 0001:00009e10       ??$_Fputc@D@std@@YA_NDPAU_iobuf@@@Z 0040ae10 f i read.obj
 0001:00009e30       ??$endl@DU?$char_traits@D@std@@@std@@YAAAV?$basic_ostream@DU?$char_traits@D@std@@@0@AAV10@@Z 0040ae30 f i read.obj
 0001:00009e60       ??$ends@DU?$char_traits@D@std@@@std@@YAAAV?$basic_ostream@DU?$char_traits@D@std@@@0@AAV10@@Z 0040ae60 f i read.obj
 0001:00009e80       ??$exchange@PAU?$_Tree_node@U?$pair@$$CBV?$basic_string@DU?$char_traits@D@std@@V?$allocator@D@2@@std@@PAVMaterial@@@std@@PAX@std@@$$T@std@@YAPAU?$_Tree_node@U?$pair@$$CBV?$basic_string@DU?$char_traits@D@std@@V?$allocator@D@2@@std@@PAVMaterial@@@std@@PAX@0@AAPAU10@$$QA$$T@Z 0040ae80 f i read.obj
 0001:00009ea0       ??$exchange@PAU?$_Tree_node@U?$pair@$$CBV?$basic_string@DU?$char_traits@D@std@@V?$allocator@D@2@@std@@PAVMaterial@@@std@@PAX@std@@AAPAU12@@std@@YAPAU?$_Tree_node@U?$pair@$$CBV?$basic_string@DU?$char_traits@D@std@@V?$allocator@D@2@@std@@PAVMaterial@@@std@@PAX@0@AAPAU10@0@Z 0040aea0 f i read.obj
 0001:00009ec0       ??$exchange@PAV_Facet_base@std@@PAV12@@std@@YAPAV_Facet_base@0@AAPAV10@$$QAPAV10@@Z 0040aec0 f i read.obj
 0001:00009ee0       ??$use_facet@V?$codecvt@DDU_Mbstatet@@@std@@@std@@YAABV?$codecvt@DDU_Mbstatet@@@0@ABVlocale@0@@Z 0040aee0 f i read.obj
 0001:00009fd0       ??0?$basic_ifstream@DU?$char_traits@D@std@@@std@@QAE@PBDHH@Z 0040afd0 f i read.obj
 0001:0000a1b0       ??0?$fpos@U_Mbstatet@@@std@@QAE@_J@Z 0040b1b0 f i read.obj
 0001:0000a1e0       ??0Scene@@QAE@XZ           0040b1e0 f i read.obj
 0001:0000a3b0       ??0TransformNode@@IAE@PAV0@ABVmat4f@@@Z 0040b3b0 f i read.obj
 0001:0000a840       ??0bad_cast@std@@QAE@ABV01@@Z 0040b840 f i read.obj
 0001:0000a880       ??0bad_cast@std@@QAE@XZ    0040b880 f i read.obj
 0001:0000a8a0       ??0mat4f@@QAE@ABVvec4f@@000@Z 0040b8a0 f i read.obj
 0001:0000a970       ??0ostrstream@std@@QAE@XZ  0040b970 f i read.obj
 0001:0000aa60       ??0vec4f@@QAE@XZ           0040ba60 f i read.obj
 0001:0000aa70       ??1?$_Alloc_construct_ptr@V?$allocator@U?$_List_node@PAVAmbientLight@@PAX@std@@@std@@@std@@QAE@XZ 0040ba70 f i read.obj
 0001:0000aa90       ??1?$_Alloc_construct_ptr@V?$allocator@U?$_List_node@PAVGeometry@@PAX@std@@@std@@@std@@QAE@XZ 0040ba90 f i read.obj
 0001:0000aab0       ??1?$_Alloc_construct_ptr@V?$allocator@U?$_List_node@PAVLight@@PAX@std@@@std@@@std@@QAE@XZ 0040bab0 f i read.obj
 0001:0000aad0       ??1?$_Alloc_construct_ptr@V?$allocator@U?$_List_node@PAVTransformNode@@PAX@std@@@std@@@std@@QAE@XZ 0040bad0 f i read.obj
 0001:0000aaf0       ??1?$_Alloc_construct_ptr@V?$allocator@U?$_Tree_node@U?$pair@$$CBV?$basic_string@DU?$char_traits@D@std@@V?$allocator@D@2@@std@@PAVMaterial@@@std@@PAX@std@@@std@@@std@@QAE@XZ 0040baf0 f i read.obj
 0001:0000ab10       ??1?$_Tree_temp_node_alloc@V?$allocator@U?$_Tree_node@U?$pair@$$CBV?$basic_string@DU?$char_traits@D@std@@V?$allocator@D@2@@std@@PAVMaterial@@@std@@PAX@std@@@std@@@std@@QAE@XZ 0040bb10 f i read.obj
 0001:0000ab30       ??1?$basic_filebuf@DU?$char_traits@D@std@@@std@@UAE@XZ 0040bb30 f i read.obj
 0001:0000abf0       ??1?$basic_ifstream@DU?$char_traits@D@std@@@std@@UAE@XZ 0040bbf0 f i read.obj
 0001:0000ac20       ??1?$list@PAVAmbientLight@@V?$allocator@PAVAmbientLight@@@std@@@std@@QAE@XZ 0040bc20 f i read.obj
 0001:0000ac60       ??1?$list@PAVGeometry@@V?$allocator@PAVGeometry@@@std@@@std@@QAE@XZ 0040bc60 f i read.obj
 0001:0000aca0       ??1?$list@PAVLight@@V?$allocator@PAVLight@@@std@@@std@@QAE@XZ 0040bca0 f i read.obj
 0001:0000ace0       ??1?$list@PAVTransformNode@@V?$allocator@PAVTransformNode@@@std@@@std@@QAE@XZ 0040bce0 f i read.obj
 0001:0000ad20       ??1?$map@V?$basic_string@DU?$char_traits@D@std@@V?$allocator@D@2@@std@@PAVMaterial@@U?$less@V?$basic_string@DU?$char_traits@D@std@@V?$allocator@D@2@@std@@@2@V?$allocator@U?$pair@$$CBV?$basic_string@DU?$char_traits@D@std@@V?$allocator@D@2@@std@@PAVMaterial@@@std@@@2@@std@@QAE@XZ 0040bd20 f i read.obj
 0001:0000ad40       ??1?$unique_ptr@V_Facet_base@std@@U?$default_delete@V_Facet_base@std@@@2@@std@@QAE@XZ 0040bd40 f i read.obj
 0001:0000ad50       ??1MaterialSceneObject@@UAE@XZ 0040bd50 f i read.obj
 0001:0000ad80       ??1SceneElement@@UAE@XZ    0040bd80 f i read.obj
 0001:0000ad90       ??1TransformNode@@QAE@XZ   0040bd90 f i read.obj
 0001:0000ae10       ??1TransformRoot@@QAE@XZ   0040be10 f i read.obj
 0001:0000ae20       ??1bad_cast@std@@UAE@XZ    0040be20 f i read.obj
 0001:0000ae40       ??1locale@std@@QAE@XZ      0040be40 f i read.obj
 0001:0000ae60       ??1ostrstream@std@@UAE@XZ  0040be60 f i read.obj
 0001:0000af00       ??1strstreambuf@std@@UAE@XZ 0040bf00 f i read.obj
 0001:0000af80       ??4?$basic_string@DU?$char_traits@D@std@@V?$allocator@D@2@@std@@QAEAAV01@$$QAV01@@Z 0040bf80 f i read.obj
 0001:0000b000       ??6@YAAAV?$basic_ostream@DU?$char_traits@D@std@@@std@@AAV01@ABVException@@@Z 0040c000 f i read.obj
 0001:0000b0b0       ??D@YA?AVmat4f@@ABV0@0@Z   0040c0b0 f i read.obj
 0001:0000b550       ??_D?$basic_ifstream@DU?$char_traits@D@std@@@std@@QAEXXZ 0040c550 f i read.obj
 0001:0000b590       ??_Dostrstream@std@@QAEXXZ 0040c590 f i read.obj
 0001:0000b638       ??_E?$basic_ifstream@DU?$char_traits@D@std@@@std@@$4PPPPPPPM@A@AEPAXI@Z 0040c638 f i read.obj
 0001:0000b640       ??_Eostrstream@std@@$4PPPPPPPM@A@AEPAXI@Z 0040c640 f i read.obj
 0001:0000b650       ??_E?$basic_filebuf@DU?$char_traits@D@std@@@std@@UAEPAXI@Z 0040c650 f i read.obj
 0001:0000b650       ??_G?$basic_filebuf@DU?$char_traits@D@std@@@std@@UAEPAXI@Z 0040c650 f i read.obj
 0001:0000b680       ??_G?$basic_ifstream@DU?$char_traits@D@std@@@std@@UAEPAXI@Z 0040c680 f i read.obj
 0001:0000b680       ??_E?$basic_ifstream@DU?$char_traits@D@std@@@std@@UAEPAXI@Z 0040c680 f i read.obj
 0001:0000b6e0       ??_EBox@@UAEPAXI@Z         0040c6e0 f i read.obj
 0001:0000b6e0       ??_GBox@@UAEPAXI@Z         0040c6e0 f i read.obj
 0001:0000b720       ??_ECone@@UAEPAXI@Z        0040c720 f i read.obj
 0001:0000b720       ??_GCone@@UAEPAXI@Z        0040c720 f i read.obj
 0001:0000b770       ??_ECylinder@@UAEPAXI@Z    0040c770 f i read.obj
 0001:0000b770       ??_GCylinder@@UAEPAXI@Z    0040c770 f i read.obj
 0001:0000b7b0       ??_EDirectionalLight@@UAEPAXI@Z 0040c7b0 f i read.obj
 0001:0000b7b0       ??_GDirectionalLight@@UAEPAXI@Z 0040c7b0 f i read.obj
 0001:0000b7e0       ??_EGeometry@@UAEPAXI@Z    0040c7e0 f i read.obj
 0001:0000b7e0       ??_GGeometry@@UAEPAXI@Z    0040c7e0 f i read.obj
 0001:0000b810       ??_GLight@@UAEPAXI@Z       0040c810 f i read.obj
 0001:0000b810       ??_ELight@@UAEPAXI@Z       0040c810 f i read.obj
 0001:0000b840       ??_EMaterialSceneObject@@UAEPAXI@Z 0040c840 f i read.obj
 0001:0000b840       ??_GMaterialSceneObject@@UAEPAXI@Z 0040c840 f i read.obj
 0001:0000b880       ??_EPointLight@@UAEPAXI@Z  0040c880 f i read.obj
 0001:0000b880       ??_GPointLight@@UAEPAXI@Z  0040c880 f i read.obj
 0001:0000b8b0       ??_GScene@@UAEPAXI@Z       0040c8b0 f i read.obj
 0001:0000b8b0       ??_EScene@@UAEPAXI@Z       0040c8b0 f i read.obj
 0001:0000b8e0       ??_ESceneElement@@UAEPAXI@Z 0040c8e0 f i read.obj
 0001:0000b8e0       ??_GSceneElement@@UAEPAXI@Z 0040c8e0 f i read.obj
 0001:0000b910       ??_ESceneObject@@UAEPAXI@Z 0040c910 f i read.obj
 0001:0000b910       ??_GSceneObject@@UAEPAXI@Z 0040c910 f i read.obj
 0001:0000b940       ??_GSphere@@UAEPAXI@Z      0040c940 f i read.obj
 0001:0000b940       ??_ESphere@@UAEPAXI@Z      0040c940 f i read.obj
 0001:0000b980       ??_GSquare@@UAEPAXI@Z      0040c980 f i read.obj
 0001:0000b980       ??_ESquare@@UAEPAXI@Z      0040c980 f i read.obj
 0001:0000b9c0       ??_GTrimesh@@UAEPAXI@Z     0040c9c0 f i read.obj
 0001:0000b9c0       ??_ETrimesh@@UAEPAXI@Z     0040c9c0 f i read.obj
 0001:0000b9f0       ??_Ebad_cast@std@@UAEPAXI@Z 0040c9f0 f i read.obj
 0001:0000b9f0       ??_Gbad_cast@std@@UAEPAXI@Z 0040c9f0 f i read.obj
 0001:0000ba20       ??_Eostrstream@std@@UAEPAXI@Z 0040ca20 f i read.obj
 0001:0000ba20       ??_Gostrstream@std@@UAEPAXI@Z 0040ca20 f i read.obj
 0001:0000ba50       ??_Gstrstreambuf@std@@UAEPAXI@Z 0040ca50 f i read.obj
 0001:0000ba50       ??_Estrstreambuf@std@@UAEPAXI@Z 0040ca50 f i read.obj
 0001:0000bae0       ?ComputeBoundingBox@Geometry@@UAEXXZ 0040cae0 f i read.obj
 0001:0000c030       ?ComputeLocalBoundingBox@Box@@UAE?AVBoundingBox@@XZ 0040d030 f i read.obj
 0001:0000c060       ?ComputeLocalBoundingBox@Cone@@UAE?AVBoundingBox@@XZ 0040d060 f i read.obj
 0001:0000c0c0       ?ComputeLocalBoundingBox@Cylinder@@UAE?AVBoundingBox@@XZ 0040d0c0 f i read.obj
 0001:0000c0f0       ?ComputeLocalBoundingBox@Geometry@@UAE?AVBoundingBox@@XZ 0040d0f0 f i read.obj
 0001:0000c130       ?ComputeLocalBoundingBox@Sphere@@UAE?AVBoundingBox@@XZ 0040d130 f i read.obj
 0001:0000c160       ?ComputeLocalBoundingBox@Square@@UAE?AVBoundingBox@@XZ 0040d160 f i read.obj
 0001:0000c1a0       ?_Endwrite@?$basic_filebuf@DU?$char_traits@D@std@@@std@@IAE_NXZ 0040d1a0 f i read.obj
 0001:0000c270       ?_Free@strstreambuf@std@@ABEXPAD@Z 0040d270 f i read.obj
 0001:0000c2a0       ?_Insert_node@?$_Tree_val@U?$_Tree_simple_types@U?$pair@$$CBV?$basic_string@DU?$char_traits@D@std@@V?$allocator@D@2@@std@@PAVMaterial@@@std@@@std@@@std@@QAEPAU?$_Tree_node@U?$pair@$$CBV?$basic_string@DU?$char_traits@D@std@@V?$allocator@D@2@@std@@PAVMaterial@@@std@@PAX@2@U?$_Tree_id@PAU?$_Tree_node@U?$pair@$$CBV?$basic_string@DU?$char_traits@D@std@@V?$allocator@D@2@@std@@PAVMaterial@@@std@@PAX@std@@@2@QAU32@@Z 0040d2a0 f i read.obj
 0001:0000c4b0       ?_Lock@?$basic_filebuf@DU?$char_traits@D@std@@@std@@UAEXXZ 0040d4b0 f i read.obj
 0001:0000c4c0       ?_Reset_back@?$basic_filebuf@DU?$char_traits@D@std@@@std@@AAEXXZ 0040d4c0 f i read.obj
 0001:0000c4f0       ?_Throw_bad_cast@std@@YAXXZ 0040d4f0 f i read.obj
 0001:0000c510       ?_Unlock@?$basic_filebuf@DU?$char_traits@D@std@@@std@@UAEXXZ 0040d510 f i read.obj
 0001:0000c520       ?add@Scene@@QAEXPAVGeometry@@@Z 0040d520 f i read.obj
 0001:0000c5c0       ?add@Scene@@QAEXPAVLight@@@Z 0040d5c0 f i read.obj
 0001:0000c650       ?allocate@?$allocator@U?$_List_node@PAVAmbientLight@@PAX@std@@@std@@QAEPAU?$_List_node@PAVAmbientLight@@PAX@2@I@Z 0040d650 f i read.obj
 0001:0000c6b0       ?createChild@TransformNode@@QAEPAV1@ABVmat4f@@@Z 0040d6b0 f i read.obj
 0001:0000c780       ?find@?$_Tree@V?$_Tmap_traits@V?$basic_string@DU?$char_traits@D@std@@V?$allocator@D@2@@std@@PAVMaterial@@U?$less@V?$basic_string@DU?$char_traits@D@std@@V?$allocator@D@2@@std@@@2@V?$allocator@U?$pair@$$CBV?$basic_string@DU?$char_traits@D@std@@V?$allocator@D@2@@std@@PAVMaterial@@@std@@@2@$0A@@std@@@std@@QBE?AV?$_Tree_const_iterator@V?$_Tree_val@U?$_Tree_simple_types@U?$pair@$$CBV?$basic_string@DU?$char_traits@D@std@@V?$allocator@D@2@@std@@PAVMaterial@@@std@@@std@@@std@@@2@ABV?$basic_string@DU?$char_traits@D@std@@V?$allocator@D@2@@2@@Z 0040d780 f i read.obj
 0001:0000c7f0       ?find@?$_Tree@V?$_Tmap_traits@V?$basic_string@DU?$char_traits@D@std@@V?$allocator@D@2@@std@@PAVObj@@U?$less@V?$basic_string@DU?$char_traits@D@std@@V?$allocator@D@2@@std@@@2@V?$allocator@U?$pair@$$CBV?$basic_string@DU?$char_traits@D@std@@V?$allocator@D@2@@std@@PAVObj@@@std@@@2@$0A@@std@@@std@@QBE?AV?$_Tree_const_iterator@V?$_Tree_val@U?$_Tree_simple_types@U?$pair@$$CBV?$basic_string@DU?$char_traits@D@std@@V?$allocator@D@2@@std@@PAVObj@@@std@@@std@@@std@@@2@ABV?$basic_string@DU?$char_traits@D@std@@V?$allocator@D@2@@2@@Z 0040d7f0 f i read.obj
 0001:0000cc50       ?getMaterial@MaterialSceneObject@@UBEABVMaterial@@XZ 0040dc50 f i read.obj
 0001:0000cc60       ?hasBoundingBoxCapability@Box@@UBE_NXZ 0040dc60 f i read.obj
 0001:0000cc70       ?hasBoundingBoxCapability@Cone@@UBE_NXZ 0040dc70 f i read.obj
 0001:0000cc80       ?hasBoundingBoxCapability@Cylinder@@UBE_NXZ 0040dc80 f i read.obj
 0001:0000cc90       ?hasBoundingBoxCapability@Sphere@@UBE_NXZ 0040dc90 f i read.obj
 0001:0000cca0       ?hasBoundingBoxCapability@Square@@UBE_NXZ 0040dca0 f i read.obj
 0001:0000ccb0       ?imbue@?$basic_filebuf@DU?$char_traits@D@std@@@std@@MAEXABVlocale@2@@Z 0040dcb0 f i read.obj
 0001:0000cdb0       ?overflow@?$basic_filebuf@DU?$char_traits@D@std@@@std@@MAEHH@Z 0040ddb0 f i read.obj
 0001:0000cf20       ?overflow@strstreambuf@std@@MAEHH@Z 0040df20 f i read.obj
 0001:0000d080       ?pbackfail@?$basic_filebuf@DU?$char_traits@D@std@@@std@@MAEHH@Z 0040e080 f i read.obj
 0001:0000d130       ?pbackfail@strstreambuf@std@@MAEHH@Z 0040e130 f i read.obj
 0001:000111b0       ?readScene@@YAPAVScene@@AAV?$basic_istream@DU?$char_traits@D@std@@@std@@@Z 004121b0 f   read.obj
 0001:00011410       ?readScene@@YAPAVScene@@ABV?$basic_string@DU?$char_traits@D@std@@V?$allocator@D@2@@std@@@Z 00412410 f   read.obj
 0001:000115d0       ?seekoff@?$basic_filebuf@DU?$char_traits@D@std@@@std@@MAE?AV?$fpos@U_Mbstatet@@@2@_JHH@Z 004125d0 f i read.obj
 0001:000116b0       ?seekoff@strstreambuf@std@@MAE?AV?$fpos@U_Mbstatet@@@2@_JHH@Z 004126b0 f i read.obj
 0001:00011860       ?seekpos@?$basic_filebuf@DU?$char_traits@D@std@@@std@@MAE?AV?$fpos@U_Mbstatet@@@2@V32@H@Z 00412860 f i read.obj
 0001:00011930       ?seekpos@strstreambuf@std@@MAE?AV?$fpos@U_Mbstatet@@@2@V32@H@Z 00412930 f i read.obj
 0001:00011a00       ?setMaterial@MaterialSceneObject@@UAEXPAVMaterial@@@Z 00412a00 f i read.obj
 0001:00011a10       ?setbuf@?$basic_filebuf@DU?$char_traits@D@std@@@std@@MAEPAV?$basic_streambuf@DU?$char_traits@D@std@@@2@PAD_J@Z 00412a10 f i read.obj
 0001:00011ae0       ?size@?$vector@PAVObj@@V?$allocator@PAVObj@@@std@@@std@@QBEIXZ 00412ae0 f i read.obj
 0001:00011af0       ?str@ostrstream@std@@QAEPADXZ 00412af0 f i read.obj
 0001:00011b30       ?sync@?$basic_filebuf@DU?$char_traits@D@std@@@std@@MAEHXZ 00412b30 f i read.obj
 0001:00011bd0       ?uflow@?$basic_filebuf@DU?$char_traits@D@std@@@std@@MAEHXZ 00412bd0 f i read.obj
 0001:00011ef0       ?underflow@?$basic_filebuf@DU?$char_traits@D@std@@@std@@MAEHXZ 00412ef0 f i read.obj
 0001:00011f30       ?underflow@strstreambuf@std@@MAEHXZ 00412f30 f i read.obj
 0001:00012060       ?xsgetn@?$basic_filebuf@DU?$char_traits@D@std@@@std@@MAE_JPAD_J@Z 00413060 f i read.obj
 0001:000121c0       ?xsputn@?$basic_filebuf@DU?$char_traits@D@std@@@std@@MAE_JPBD_J@Z 004131c0 f i read.obj
 0001:000122a0       ?inverse@mat3f@@QBE?AV1@XZ 004132a0 f   vecmath.obj
 0001:00012590       ?inverse@mat4f@@QBE?AV1@XZ 00413590 f   vecmath.obj
 0001:00012a10       ??0Camera@@QAE@XZ          00413a10 f   camera.obj
 0001:00012a90       ?rayThrough@Camera@@QAEXNNAAVray@@@Z 00413a90 f   camera.obj
 0001:00012ba0       ?setAspectRatio@Camera@@QAEXN@Z 00413ba0 f   camera.obj
 0001:00012d30       ?setEye@Camera@@QAEXABVvec3f@@@Z 00413d30 f   camera.obj
 0001:00012d60       ?setFOV@Camera@@QAEXN@Z    00413d60 f   camera.obj
 0001:00012f10       ?setLook@Camera@@QAEXABVvec3f@@0@Z 00413f10 f   camera.obj
 0001:00013180       ?setLook@Camera@@QAEXNNNN@Z 00414180 f   camera.obj
 0001:00013440       ?update@Camera@@AAEXXZ     00414440 f   camera.obj
 0001:000135d0       ?distanceAttenuation@DirectionalLight@@UBENABVvec3f@@@Z 004145d0 f   light.obj
 0001:000135e0       ?distanceAttenuation@PointLight@@UBENABVvec3f@@@Z 004145e0 f   light.obj
 0001:00013710       ?getColor@AmbientLight@@QBE?AVvec3f@@ABV2@@Z 00414710 f   light.obj
 0001:00013730       ?getColor@DirectionalLight@@UBE?AVvec3f@@ABV2@@Z 00414730 f   light.obj
 0001:00013750       ?getColor@PointLight@@UBE?AVvec3f@@ABV2@@Z 00414750 f   light.obj
 0001:00013770       ?getDirection@DirectionalLight@@UBE?AVvec3f@@ABV2@@Z 00414770 f   light.obj
 0001:000137a0       ?getDirection@PointLight@@UBE?AVvec3f@@ABV2@@Z 004147a0 f   light.obj
 0001:00013830       ?setDistanceAttenuationCoeff@PointLight@@QAEXABVvec3f@@@Z 00414830 f   light.obj
 0001:00013860       ?shadowAttenuation@DirectionalLight@@UBE?AVvec3f@@ABV2@@Z 00414860 f   light.obj
 0001:00013b20       ?shadowAttenuation@PointLight@@UBE?AVvec3f@@ABV2@@Z 00414b20 f   light.obj
 0001:00013e50       ??$_Construct_in_place@PAU?$_List_node@PAVAmbientLight@@PAX@std@@PAU12@@std@@YAXAAPAU?$_List_node@PAVAmbientLight@@PAX@0@$$QAPAU10@@Z 00414e50 f i material.obj
 0001:00013e60       ??$_Construct_in_place@PAU?$_List_node@PAVLight@@PAX@std@@PAU12@@std@@YAXAAPAU?$_List_node@PAVLight@@PAX@0@$$QAPAU10@@Z 00414e60 f i material.obj
 0001:00013e70       ??$exchange@II@std@@YAIAAI$$QAI@Z 00414e70 f i material.obj
 0001:00013e90       ??$exchange@PAU?$_List_node@PAVAmbientLight@@PAX@std@@$$T@std@@YAPAU?$_List_node@PAVAmbientLight@@PAX@0@AAPAU10@$$QA$$T@Z 00414e90 f i material.obj
 0001:00013eb0       ??$exchange@PAU?$_List_node@PAVAmbientLight@@PAX@std@@AAPAU12@@std@@YAPAU?$_List_node@PAVAmbientLight@@PAX@0@AAPAU10@0@Z 00414eb0 f i material.obj
 0001:00013ed0       ??$exchange@PAU?$_List_node@PAVAmbientLight@@PAX@std@@PAU12@@std@@YAPAU?$_List_node@PAVAmbientLight@@PAX@0@AAPAU10@$$QAPAU10@@Z 00414ed0 f i material.obj
 0001:00013ef0       ??$exchange@PAU?$_List_node@PAVLight@@PAX@std@@$$T@std@@YAPAU?$_List_node@PAVLight@@PAX@0@AAPAU10@$$QA$$T@Z 00414ef0 f i material.obj
 0001:00013f10       ??$exchange@PAU?$_List_node@PAVLight@@PAX@std@@AAPAU12@@std@@YAPAU?$_List_node@PAVLight@@PAX@0@AAPAU10@0@Z 00414f10 f i material.obj
 0001:00013f30       ??$exchange@PAU?$_List_node@PAVLight@@PAX@std@@PAU12@@std@@YAPAU?$_List_node@PAVLight@@PAX@0@AAPAU10@$$QAPAU10@@Z 00414f30 f i material.obj
 0001:00013f50       ??1?$_List_node_insert_op2@V?$allocator@U?$_List_node@PAVAmbientLight@@PAX@std@@@std@@@std@@QAE@XZ 00414f50 f i material.obj
 0001:00013f90       ??1?$_List_node_insert_op2@V?$allocator@U?$_List_node@PAVLight@@PAX@std@@@std@@@std@@QAE@XZ 00414f90 f i material.obj
 0001:000141b0       ?shade@Material@@UBE?AVvec3f@@PAVScene@@ABVray@@ABVisect@@@Z 004151b0 f   material.obj
 0001:00014920       ?getMaterial@isect@@QBEABVMaterial@@XZ 00415920 f   ray.obj
 0001:00014930       ??1Scene@@UAE@XZ           00415930 f   scene.obj
 0001:00014b00       ??4BoundingBox@@QAEXABV0@@Z 00415b00 f   scene.obj
 0001:00014b50       ?hasBoundingBoxCapability@Geometry@@UBE_NXZ 00415b50 f   scene.obj
 0001:00014b60       ?initScene@Scene@@QAEXXZ   00415b60 f   scene.obj
 0001:00014d90       ?intersect@BoundingBox@@QBE_NABVray@@AAN1@Z 00415d90 f   scene.obj
 0001:00014eb0       ?intersect@Geometry@@UBE_NABVray@@AAVisect@@@Z 00415eb0 f   scene.obj
 0001:000151f0       ?intersect@Scene@@QBE_NABVray@@AAVisect@@@Z 004161f0 f   scene.obj
 0001:000157d0       ?intersectLocal@Geometry@@UBE_NABVray@@AAVisect@@@Z 004167d0 f   scene.obj
 0001:000157e0       ?intersects@BoundingBox@@QBE_NABV1@@Z 004167e0 f   scene.obj
 0001:00015870       ?intersects@BoundingBox@@QBE_NABVvec3f@@@Z 00416870 f   scene.obj
 0001:000158f0       ??$swap@N$0A@@std@@YAXAAN0@Z 004168f0 f i Box.obj
 0001:00015910       ?intersectLocal@Box@@UBE_NABVray@@AAVisect@@@Z 00416910 f   Box.obj
 0001:00015b40       ?intersectBody@Cone@@QBE_NABVray@@AAVisect@@@Z 00416b40 f   Cone.obj
 0001:00015ee0       ?intersectCaps@Cone@@QBE_NABVray@@AAVisect@@@Z 00416ee0 f   Cone.obj
 0001:00016070       ?intersectLocal@Cone@@UBE_NABVray@@AAVisect@@@Z 00417070 f   Cone.obj
 0001:000164f0       ?intersectBody@Cylinder@@QBE_NABVray@@AAVisect@@@Z 004174f0 f   Cylinder.obj
 0001:000167c0       ?intersectCaps@Cylinder@@QBE_NABVray@@AAVisect@@@Z 004177c0 f   Cylinder.obj
 0001:000168e0       ?intersectLocal@Cylinder@@UBE_NABVray@@AAVisect@@@Z 004178e0 f   Cylinder.obj
 0001:00016d00       ?intersectLocal@Sphere@@UBE_NABVray@@AAVisect@@@Z 00417d00 f   Sphere.obj
 0001:00016ee0       ?intersectLocal@Square@@UBE_NABVray@@AAVisect@@@Z 00417ee0 f   Square.obj
 0001:00016fb0       ??$_Copy_memmove@PAPAVMaterial@@PAPAV1@@std@@YAPAPAVMaterial@@PAPAV1@00@Z 00417fb0 f i trimesh.obj
 0001:00016fe0       ??$_Copy_memmove@PAPAVTrimeshFace@@PAPAV1@@std@@YAPAPAVTrimeshFace@@PAPAV1@00@Z 00417fe0 f i trimesh.obj
 0001:00017010       ??$_Emplace_reallocate@ABQAVMaterial@@@?$vector@PAVMaterial@@V?$allocator@PAVMaterial@@@std@@@std@@QAEPAPAVMaterial@@QAPAV2@ABQAV2@@Z 00418010 f i trimesh.obj
 0001:00017170       ??$_Emplace_reallocate@ABQAVTrimeshFace@@@?$vector@PAVTrimeshFace@@V?$allocator@PAVTrimeshFace@@@std@@@std@@QAEPAPAVTrimeshFace@@QAPAV2@ABQAV2@@Z 00418170 f i trimesh.obj
 0001:000172d0       ??$_Emplace_reallocate@ABVvec3f@@@?$vector@Vvec3f@@V?$allocator@Vvec3f@@@std@@@std@@QAEPAVvec3f@@QAV2@ABV2@@Z 004182d0 f i trimesh.obj
 0001:000173e0       ??$_Resize_reallocate@U_Value_init_tag@std@@@?$vector@Vvec3f@@V?$allocator@Vvec3f@@@std@@@std@@AAEXIABU_Value_init_tag@1@@Z 004183e0 f i trimesh.obj
 0001:000174d0       ??$_Uninitialized_copy@PAVvec3f@@V?$allocator@Vvec3f@@@std@@@std@@YAPAVvec3f@@QAV1@0PAV1@AAV?$allocator@Vvec3f@@@0@@Z 004184d0 f i trimesh.obj
 0001:00017520       ??$_Uninitialized_move@PAPAVMaterial@@V?$allocator@PAVMaterial@@@std@@@std@@YAPAPAVMaterial@@QAPAV1@0PAPAV1@AAV?$allocator@PAVMaterial@@@0@@Z 00418520 f i trimesh.obj
 0001:00017550       ??$_Uninitialized_move@PAPAVTrimeshFace@@V?$allocator@PAVTrimeshFace@@@std@@@std@@YAPAPAVTrimeshFace@@QAPAV1@0PAPAV1@AAV?$allocator@PAVTrimeshFace@@@0@@Z 00418550 f i trimesh.obj
 0001:00017580       ??$_Uninitialized_move@PAVvec3f@@V?$allocator@Vvec3f@@@std@@@std@@YAPAVvec3f@@QAV1@0PAV1@AAV?$allocator@Vvec3f@@@0@@Z 00418580 f i trimesh.obj
 0001:000175d0       ??$_Uninitialized_value_construct_n@V?$allocator@Vvec3f@@@std@@@std@@YAPAVvec3f@@PAV1@IAAV?$allocator@Vvec3f@@@0@@Z 004185d0 f i trimesh.obj
 0001:00017600       ??0Material@@QAE@ABV0@@Z   00418600 f i trimesh.obj
 0001:00017700       ??1?$vector@Vvec3f@@V?$allocator@Vvec3f@@@std@@@std@@QAE@XZ 00418700 f i trimesh.obj
 0001:00017770       ??1Trimesh@@UAE@XZ         00418770 f   trimesh.obj
 0001:00017870       ??_GTrimeshFace@@UAEPAXI@Z 00418870 f i trimesh.obj
 0001:00017870       ??_ETrimeshFace@@UAEPAXI@Z 00418870 f i trimesh.obj
 0001:000178b0       ?ComputeLocalBoundingBox@TrimeshFace@@UAE?AVBoundingBox@@XZ 004188b0 f i trimesh.obj
 0001:000179d0       ?_Change_array@?$vector@Vvec3f@@V?$allocator@Vvec3f@@@std@@@std@@AAEXQAVvec3f@@II@Z 004189d0 f i trimesh.obj
 0001:00017a50       ?_Umove@?$vector@Vvec3f@@V?$allocator@Vvec3f@@@std@@@std@@AAEPAVvec3f@@PAV3@00@Z 00418a50 f i trimesh.obj
 0001:00017ab0       ?_Umove_if_noexcept@?$vector@Vvec3f@@V?$allocator@Vvec3f@@@std@@@std@@AAEXPAVvec3f@@00@Z 00418ab0 f i trimesh.obj
 0001:00017b00       ?_Xlength@?$vector@PAVMaterial@@V?$allocator@PAVMaterial@@@std@@@std@@CAXXZ 00418b00 f i trimesh.obj
 0001:00017b10       ?_Xlength@?$vector@PAVTrimeshFace@@V?$allocator@PAVTrimeshFace@@@std@@@std@@CAXXZ 00418b10 f i trimesh.obj
 0001:00017b20       ?_Xlength@?$vector@Vvec3f@@V?$allocator@Vvec3f@@@std@@@std@@CAXXZ 00418b20 f i trimesh.obj
 0001:00017b30       ?addFace@Trimesh@@QAE_NHHH@Z 00418b30 f   trimesh.obj
 0001:00017cd0       ?addMaterial@Trimesh@@QAEXPAVMaterial@@@Z 00418cd0 f   trimesh.obj
 0001:00017d00       ?addNormal@Trimesh@@QAEXABVvec3f@@@Z 00418d00 f   trimesh.obj
 0001:00017d50       ?addVertex@Trimesh@@QAEXABVvec3f@@@Z 00418d50 f   trimesh.obj
 0001:00017da0       ?allocate@?$allocator@Vvec3f@@@std@@QAEPAVvec3f@@I@Z 00418da0 f i trimesh.obj
 0001:00017e00       ?doubleCheck@Trimesh@@QAEPADXZ 00418e00 f   trimesh.obj
 0001:00017e80       ?generateNormals@Trimesh@@QAEXXZ 00418e80 f   trimesh.obj
 0001:00018190       ?hasBoundingBoxCapability@TrimeshFace@@UBE_NXZ 00419190 f i trimesh.obj
 0001:000181a0       ?intersectLocal@TrimeshFace@@UBE_NABVray@@AAVisect@@@Z 004191a0 f   trimesh.obj
 0001:00018b30       ?visual@Fl@@SAHH@Z         00419b30 f   fltk:Fl_visual.obj
 0001:00018b90       ?option@Fl@@SA_NW4Fl_Option@1@@Z 00419b90 f   fltk:Fl.obj
 0001:00018e20       ?option@Fl@@SAXW4Fl_Option@1@_N@Z 00419e20 f   fltk:Fl.obj
 0001:00018e60       ?version@Fl@@SANXZ         00419e60 f   fltk:Fl.obj
 0001:00018e70       ?scrollbar_size@Fl@@SAHXZ  00419e70 f   fltk:Fl.obj
 0001:00018e80       ?scrollbar_size@Fl@@SAXH@Z 00419e80 f   fltk:Fl.obj
 0001:00018e90       ?wait@Fl@@SAHXZ            00419e90 f   fltk:Fl.obj
 0001:00018ee0       ?wait@Fl@@SANN@Z           00419ee0 f   fltk:Fl.obj
 0001:00018f10       ?check@Fl@@SAHXZ           00419f10 f   fltk:Fl.obj
 0001:00018f50       ?ready@Fl@@SAHXZ           00419f50 f   fltk:Fl.obj
 0001:00018f60       ?run@Fl@@SAHXZ             00419f60 f   fltk:Fl.obj
 0001:00018f90       ?add_timeout@Fl@@SAXNP6AXPAX@Z0@Z 00419f90 f   fltk:Fl.obj
 0001:00018fc0       ?repeat_timeout@Fl@@SAXNP6AXPAX@Z0@Z 00419fc0 f   fltk:Fl.obj
 0001:00019170       ?has_timeout@Fl@@SAHP6AXPAX@Z0@Z 0041a170 f   fltk:Fl.obj
 0001:000191d0       ?remove_timeout@Fl@@SAXP6AXPAX@Z0@Z 0041a1d0 f   fltk:Fl.obj
 0001:00019240       ?add_check@Fl@@SAXP6AXPAX@Z0@Z 0041a240 f   fltk:Fl.obj
 0001:000192c0       ?has_check@Fl@@SAHP6AXPAX@Z0@Z 0041a2c0 f   fltk:Fl.obj
 0001:00019310       ?remove_check@Fl@@SAXP6AXPAX@Z0@Z 0041a310 f   fltk:Fl.obj
 0001:00019390       ?add_fd@Fl@@SAXHHP6AXHPAX@Z0@Z 0041a390 f   fltk:Fl.obj
 0001:00019660       ?add_fd@Fl@@SAXHP6AXHPAX@Z0@Z 0041a660 f   fltk:Fl.obj
 0001:00019680       ?remove_fd@Fl@@SAXHH@Z     0041a680 f   fltk:Fl.obj
 0001:00019980       ?remove_fd@Fl@@SAXH@Z      0041a980 f   fltk:Fl.obj
 0001:000199a0       ?redraw@Fl@@SAXXZ          0041a9a0 f   fltk:Fl.obj
 0001:000199d0       ?flush@Fl@@SAXXZ           0041a9d0 f   fltk:Fl.obj
 0001:00019aa0       ?first_window@Fl@@SAPAVFl_Window@@XZ 0041aaa0 f   fltk:Fl.obj
 0001:00019ad0       ?first_window@Fl@@SAXPAVFl_Window@@@Z 0041aad0 f   fltk:Fl.obj
 0001:00019b20       ?next_window@Fl@@SAPAVFl_Window@@PBV2@@Z 0041ab20 f   fltk:Fl.obj
 0001:00019b60       ?get_mouse@Fl@@SAXAAH0@Z   0041ab60 f   fltk:Fl.obj
 0001:00019b90       ?event_inside@Fl@@SAHHHHH@Z 0041ab90 f   fltk:Fl.obj
 0001:00019be0       ?event_inside@Fl@@SAHPBVFl_Widget@@@Z 0041abe0 f   fltk:Fl.obj
 0001:00019c60       ?enable_im@Fl@@SAXXZ       0041ac60 f   fltk:Fl.obj
 0001:00019ca0       ?disable_im@Fl@@SAXXZ      0041aca0 f   fltk:Fl.obj
 0001:00019ce0       ?handle@Fl@@SAHHPAVFl_Window@@@Z 0041ace0 f   fltk:Fl.obj
 0001:00019d20       ?handle_@Fl@@SAHHPAVFl_Window@@@Z 0041ad20 f   fltk:Fl.obj
 0001:0001a400       ?belowmouse@Fl@@SAXPAVFl_Widget@@@Z 0041b400 f   fltk:Fl.obj
 0001:0001a4a0       ?pushed@Fl@@SAXPAVFl_Widget@@@Z 0041b4a0 f   fltk:Fl.obj
 0001:0001a4b0       ?focus@Fl@@SAXPAVFl_Widget@@@Z 0041b4b0 f   fltk:Fl.obj
 0001:0001a5b0       ?add_handler@Fl@@SAXP6AHH@Z@Z 0041b5b0 f   fltk:Fl.obj
 0001:0001a5f0       ?remove_handler@Fl@@SAXP6AHH@Z@Z 0041b5f0 f   fltk:Fl.obj
 0001:0001a670       ?add_system_handler@Fl@@SAXP6AHPAX0@Z0@Z 0041b670 f   fltk:Fl.obj
 0001:0001a6c0       ?remove_system_handler@Fl@@SAXP6AHPAX0@Z@Z 0041b6c0 f   fltk:Fl.obj
 0001:0001a740       ?event_dispatch@Fl@@SAXP6AHHPAVFl_Window@@@Z@Z 0041b740 f   fltk:Fl.obj
 0001:0001a750       ?event_dispatch@Fl@@SAP6AHHPAVFl_Window@@@ZXZ 0041b750 f   fltk:Fl.obj
 0001:0001a760       ?copy@Fl@@SAXPBDHH0@Z      0041b760 f   fltk:Fl.obj
 0001:0001a890       ?copy@Fl@@SAXPBDHH@Z       0041b890 f   fltk:Fl.obj
 0001:0001a8b0       ?paste@Fl@@SAXAAVFl_Widget@@HPBD@Z 0041b8b0 f   fltk:Fl.obj
 0001:0001b5a0       ?paste@Fl@@SAXAAVFl_Widget@@H@Z 0041c5a0 f   fltk:Fl.obj
 0001:0001b5c0       ?add_clipboard_notify@Fl@@SAXP6AXHPAX@Z0@Z 0041c5c0 f   fltk:Fl.obj
 0001:0001b620       ?remove_clipboard_notify@Fl@@SAXP6AXHPAX@Z@Z 0041c620 f   fltk:Fl.obj
 0001:0001b690       ?clipboard_contains@Fl@@SAHPBD@Z 0041c690 f   fltk:Fl.obj
 0001:0001b740       ?selection_owner@Fl@@SAXPAVFl_Widget@@@Z 0041c740 f   fltk:Fl.obj
 0001:0001b750       ?selection@Fl@@SAXAAVFl_Widget@@PBDH@Z 0041c750 f   fltk:Fl.obj
 0001:0001b770       ?paste@Fl@@SAXAAVFl_Widget@@@Z 0041c770 f   fltk:Fl.obj
 0001:0001b790       ?x@Fl@@SAHXZ               0041c790 f   fltk:Fl.obj
 0001:0001b7d0       ?y@Fl@@SAHXZ               0041c7d0 f   fltk:Fl.obj
 0001:0001b810       ?w@Fl@@SAHXZ               0041c810 f   fltk:Fl.obj
 0001:0001b850       ?h@Fl@@SAHXZ               0041c850 f   fltk:Fl.obj
 0001:0001b890       ?thread_message@Fl@@SAPAXXZ 0041c890 f   fltk:Fl.obj
 0001:0001b8b0       ?delete_widget@Fl@@SAXPAVFl_Widget@@@Z 0041c8b0 f   fltk:Fl.obj
 0001:0001b9b0       ?do_widget_deletion@Fl@@SAXXZ 0041c9b0 f   fltk:Fl.obj
 0001:0001ba30       ?watch_widget_pointer@Fl@@SAXAAPAVFl_Widget@@@Z 0041ca30 f   fltk:Fl.obj
 0001:0001bad0       ?release_widget_pointer@Fl@@SAXAAPAVFl_Widget@@@Z 0041cad0 f   fltk:Fl.obj
 0001:0001bb50       ?clear_widget_pointer@Fl@@SAXPBVFl_Widget@@@Z 0041cb50 f   fltk:Fl.obj
 0001:0001bbc0       ??0Fl_Widget_Tracker@@QAE@PAVFl_Widget@@@Z 0041cbc0 f   fltk:Fl.obj
 0001:0001bbf0       ??1Fl_Widget_Tracker@@QAE@XZ 0041cbf0 f   fltk:Fl.obj
 0001:0001bc40       ?redraw@Fl_Widget@@QAEXXZ  0041cc40 f   fltk:Fl.obj
 0001:0001bc60       ?redraw_label@Fl_Widget@@QAEXXZ 0041cc60 f   fltk:Fl.obj
 0001:0001c260       ?damage@Fl_Widget@@QAEXE@Z 0041d260 f   fltk:Fl.obj
 0001:0001c320       ?damage@Fl_Widget@@QAEXEHHHH@Z 0041d320 f   fltk:Fl.obj
 0001:0001c510       ?size_range_@Fl_Window@@AAEXXZ 0041d510 f   fltk:Fl.obj
 0001:0001c530       ?fullscreen_x@Fl_Window@@AAEXXZ 0041d530 f   fltk:Fl.obj
 0001:0001c5a0       ?fullscreen_off_x@Fl_Window@@AAEXHHHH@Z 0041d5a0 f   fltk:Fl.obj
 0001:0001c780       ?flush@Fl_Window@@MAEXXZ   0041d780 f   fltk:Fl.obj
 0001:0001c7f0       ?handle@Fl_Window@@UAEHH@Z 0041d7f0 f   fltk:Fl.obj
 0001:0001c960       ?resize@Fl_Window@@UAEXHHHH@Z 0041d960 f   fltk:Fl.obj
 0001:0001cc40       ?label@Fl_Window@@QAEXPBD0@Z 0041dc40 f   fltk:Fl.obj
 0001:0001cd30       ?default_icons@Fl_Window@@SAXPAUHICON__@@0@Z 0041dd30 f   fltk:Fl.obj
 0001:0001cd50       ?icons@Fl_Window@@QAEXPAUHICON__@@0@Z 0041dd50 f   fltk:Fl.obj
 0001:0001cdb0       ?show@Fl_Window@@UAEXXZ    0041ddb0 f   fltk:Fl.obj
 0001:0001ce70       ?hide@Fl_Window@@UAEXXZ    0041de70 f   fltk:Fl.obj
 0001:0001d2d0       ?make_current@Fl_Window@@QAEXXZ 0041e2d0 f   fltk:Fl.obj
 0001:0001d330       ?decorated_w@Fl_Window@@QAEHXZ 0041e330 f   fltk:Fl.obj
 0001:0001d400       ?decorated_h@Fl_Window@@QAEHXZ 0041e400 f   fltk:Fl.obj
 0001:0001d4d0       ?XRectangleRegion@@YAPAUHRGN__@@HHHH@Z 0041e4d0 f   fltk:Fl.obj
 0001:0001d580       ?fake_X_wm@Fl_X@@SAHPBVFl_Window@@AAH1111@Z 0041e580 f   fltk:Fl.obj
 0001:0001dcb0       ?make_fullscreen@Fl_X@@QAEXHHHH@Z 0041ecb0 f   fltk:Fl.obj
 0001:0001de10       ?set_minmax@Fl_X@@QAEXPAUtagMINMAXINFO@@@Z 0041ee10 f   fltk:Fl.obj
 0001:0001df00       ?set_default_icons@Fl_X@@SAXQAPBVFl_RGB_Image@@H@Z 0041ef00 f   fltk:Fl.obj
 0001:0001dfc0       ?set_default_icons@Fl_X@@SAXPAUHICON__@@0@Z 0041efc0 f   fltk:Fl.obj
 0001:0001e030       ?set_icons@Fl_X@@QAEXXZ    0041f030 f   fltk:Fl.obj
 0001:0001e1d0       ?set_cursor@Fl_X@@QAEHW4Fl_Cursor@@@Z 0041f1d0 f   fltk:Fl.obj
 0001:0001e360       ?set_cursor@Fl_X@@QAEHPBVFl_RGB_Image@@HH@Z 0041f360 f   fltk:Fl.obj
 0001:0001e3e0       ?make@Fl_X@@SAPAV1@PAVFl_Window@@@Z 0041f3e0 f   fltk:Fl.obj
 0001:0001f080       ?fl_release_dc@@YAXPAUHWND__@@PAUHDC__@@@Z 00420080 f   fltk:Fl.obj
 0001:0001f120       ?fl_save_dc@@YAXPAUHWND__@@PAUHDC__@@@Z 00420120 f   fltk:Fl.obj
 0001:0001f190       ?fl_open_display@@YAXXZ    00420190 f   fltk:Fl.obj
 0001:0001f1c0       ?fl_find@@YAPAVFl_Window@@PAUHWND__@@@Z 004201c0 f   fltk:Fl.obj
 0001:0001f240       ?fl_GetDC@@YAPAUHDC__@@PAUHWND__@@@Z 00420240 f   fltk:Fl.obj
 0001:0001f2e0       ?fl_free_fonts@@YAXXZ      004202e0 f   fltk:Fl.obj
 0001:0001f3a0       ?fl_cleanup_dc_list@@YAXXZ 004203a0 f   fltk:Fl.obj
 0001:0001f470       ?fl_clipboard_notify_change@@YAXXZ 00420470 f   fltk:Fl.obj
 0001:0001f4f0       ?fl_clipboard_notify_empty@@YA_NXZ 004204f0 f   fltk:Fl.obj
 0001:0001f520       ?fl_trigger_clipboard_notify@@YAXH@Z 00420520 f   fltk:Fl.obj
 0001:0001f560       ?fl_ready@@YAHXZ           00420560 f   fltk:Fl.obj
 0001:0001f640       ?fl_wait@@YAHN@Z           00420640 f   fltk:Fl.obj
 0001:0001fa50       ?fl_send_system_handlers@@YAHPAX@Z 00420a50 f   fltk:Fl.obj
 0001:0001fab0       ?fl_fix_focus@@YAXXZ       00420ab0 f   fltk:Fl.obj
 0001:0001fc90       ?fl_throw_focus@@YAXPAVFl_Widget@@@Z 00420c90 f   fltk:Fl.obj
 0001:0001fe60       ?fl_clipboard_notify_retarget@@YAXPAUHWND__@@@Z 00420e60 f   fltk:Fl.obj
 0001:0001fec0       ?fl_update_clipboard@@YAXXZ 00420ec0 f   fltk:Fl.obj
 0001:0001ffd0       ?fl_set_status@@YAXHHHH@Z  00420fd0 f   fltk:Fl.obj
 0001:0001ffe0       ?fl_set_spot@@YAXHHHHHHPAVFl_Window@@@Z 00420fe0 f   fltk:Fl.obj
 0001:00020140       ?fl_reset_spot@@YAXXZ      00421140 f   fltk:Fl.obj
 0001:00020150       ?print_window@Fl_Paged_Device@@QAEXPAVFl_Window@@HH@Z 00421150 f   fltk:Fl.obj
 0001:00020780       ?fl_get_lcid_codepage@@YAIK@Z 00421780 f   fltk:Fl.obj
 0001:000207e0       ?fl_get_codepage@@YAXXZ    004217e0 f   fltk:Fl.obj
 0001:00021da0       ?fl_filename_name@@YAPBDPBD@Z 00422da0 f   fltk:Fl.obj
 0001:000223a0       ?fl_xid_@@YAPAUHWND__@@PBVFl_Window@@@Z 004233a0 f   fltk:Fl.obj
 0001:000223d0       ??0Lf2CrlfConvert@@QAE@PBDH@Z 004233d0 f i fltk:Fl.obj
 0001:00022590       ??1Fl_Win32_At_Exit@@QAE@XZ 00423590 f i fltk:Fl.obj
 0001:00022600       ??1Lf2CrlfConvert@@QAE@XZ  00423600 f i fltk:Fl.obj
 0001:00022630       ??1NameList@@QAE@XZ        00423630 f i fltk:Fl.obj
 0001:00022690       ??_GFl_Device@@UAEPAXI@Z   00423690 f i fltk:Fl.obj
 0001:00022690       ??_EFl_Device@@UAEPAXI@Z   00423690 f i fltk:Fl.obj
 0001:000226c0       ??_EFl_GDI_Graphics_Driver@@UAEPAXI@Z 004236c0 f i fltk:Fl.obj
 0001:000226c0       ??_GFl_GDI_Graphics_Driver@@UAEPAXI@Z 004236c0 f i fltk:Fl.obj
 0001:00022720       ??_EFl_Graphics_Driver@@UAEPAXI@Z 00423720 f i fltk:Fl.obj
 0001:00022720       ??_GFl_Graphics_Driver@@UAEPAXI@Z 00423720 f i fltk:Fl.obj
 0001:00022780       ??_EFl_Image@@UAEPAXI@Z    00423780 f i fltk:Fl.obj
 0001:00022780       ??_GFl_Image@@UAEPAXI@Z    00423780 f i fltk:Fl.obj
 0001:000227b0       ??_EFl_RGB_Image@@UAEPAXI@Z 004237b0 f i fltk:Fl.obj
 0001:000227b0       ??_GFl_RGB_Image@@UAEPAXI@Z 004237b0 f i fltk:Fl.obj
 0001:000227e0       ??_GFl_Surface_Device@@UAEPAXI@Z 004237e0 f i fltk:Fl.obj
 0001:000227e0       ??_EFl_Surface_Device@@UAEPAXI@Z 004237e0 f i fltk:Fl.obj
 0001:00022820       ?add_name@NameList@@QAEXPBD@Z 00423820 f i fltk:Fl.obj
 0001:000228a0       ?class_name@Fl_Device@@UAEPBDXZ 004238a0 f i fltk:Fl.obj
 0001:000228b0       ?class_name@Fl_GDI_Graphics_Driver@@UAEPBDXZ 004238b0 f i fltk:Fl.obj
 0001:000228c0       ?class_name@Fl_Graphics_Driver@@UAEPBDXZ 004238c0 f i fltk:Fl.obj
 0001:000228d0       ?class_name@Fl_Surface_Device@@UAEPBDXZ 004238d0 f i fltk:Fl.obj
 0001:000228e0       ?color@Fl_Graphics_Driver@@MAEXEEE@Z 004238e0 f i fltk:Fl.obj
 0001:000228f0       ?color@Fl_Graphics_Driver@@MAEXI@Z 004238f0 f i fltk:Fl.obj
 0001:00022910       ?descent@Fl_Graphics_Driver@@UAEHXZ 00423910 f i fltk:Fl.obj
 0001:00022920       ?draw@Fl_Graphics_Driver@@MAEXHPBDHHH@Z 00423920 f i fltk:Fl.obj
 0001:00022930       ?draw@Fl_Graphics_Driver@@MAEXPAVFl_Bitmap@@HHHHHH@Z 00423930 f i fltk:Fl.obj
 0001:00022940       ?draw@Fl_Graphics_Driver@@MAEXPAVFl_Pixmap@@HHHHHH@Z 00423940 f i fltk:Fl.obj
 0001:00022950       ?draw@Fl_Graphics_Driver@@MAEXPAVFl_RGB_Image@@HHHHHH@Z 00423950 f i fltk:Fl.obj
 0001:00022960       ?draw@Fl_Graphics_Driver@@MAEXPBDHHH@Z 00423960 f i fltk:Fl.obj
 0001:00022970       ?draw_image@Fl_Graphics_Driver@@MAEXP6AXPAXHHHPAE@Z0HHHHH@Z 00423970 f i fltk:Fl.obj
 0001:00022980       ?draw_image@Fl_Graphics_Driver@@MAEXPBEHHHHHH@Z 00423980 f i fltk:Fl.obj
 0001:00022990       ?draw_image_mono@Fl_Graphics_Driver@@MAEXP6AXPAXHHHPAE@Z0HHHHH@Z 00423990 f i fltk:Fl.obj
 0001:000229a0       ?draw_image_mono@Fl_Graphics_Driver@@MAEXPBEHHHHHH@Z 004239a0 f i fltk:Fl.obj
 0001:000229b0       ?font@Fl_Graphics_Driver@@UAEXHH@Z 004239b0 f i fltk:Fl.obj
 0001:000229d0       ?height@Fl_Graphics_Driver@@UAEHXZ 004239d0 f i fltk:Fl.obj
 0001:000229f0       ?rtl_draw@Fl_Graphics_Driver@@MAEXPBDHHH@Z 004239f0 f i fltk:Fl.obj
 0001:00022a00       ?width@Fl_Graphics_Driver@@UAENI@Z 00423a00 f i fltk:Fl.obj
 0001:00022a30       ?width@Fl_Graphics_Driver@@UAENPBDH@Z 00423a30 f i fltk:Fl.obj
 0001:00022a40       ?fl_beep@@YAXH@Z           00423a40 f   fltk:fl_ask.obj
 0001:00022ab0       ?fl_message@@YAXPBDZZ      00423ab0 f   fltk:fl_ask.obj
 0001:00022b10       ?fl_alert@@YAXPBDZZ        00423b10 f   fltk:fl_ask.obj
 0001:00022b70       ?fl_ask@@YAHPBDZZ          00423b70 f   fltk:fl_ask.obj
 0001:00022bc0       ?fl_choice@@YAHPBD000ZZ    00423bc0 f   fltk:fl_ask.obj
 0001:00022c10       ?fl_input@@YAPBDPBD0ZZ     00423c10 f   fltk:fl_ask.obj
 0001:00022c60       ?fl_password@@YAPBDPBD0ZZ  00423c60 f   fltk:fl_ask.obj
 0001:00022cb0       ?fl_message_icon@@YAPAVFl_Widget@@XZ 00423cb0 f   fltk:fl_ask.obj
 0001:00022cc0       ?fl_message_hotspot@@YAXH@Z 00423cc0 f   fltk:fl_ask.obj
 0001:00022cf0       ?fl_message_hotspot@@YAHXZ 00423cf0 f   fltk:fl_ask.obj
 0001:00022d00       ?fl_message_title@@YAXPBD@Z 00423d00 f   fltk:fl_ask.obj
 0001:00022d20       ?fl_message_title_default@@YAXPBD@Z 00423d20 f   fltk:fl_ask.obj
 0001:00023ba0       ??$__vcrt_va_start_verify_argument_type@PBD@@YAXXZ 00424ba0 f i fltk:fl_ask.obj
 0001:00023bb0       ?default_atclose@Fl@@SAXPAVFl_Window@@PAX@Z 00424bb0 f   fltk:Fl_Window.obj
 0001:00023be0       ?window@Fl_Widget@@QBEPAVFl_Window@@XZ 00424be0 f   fltk:Fl_Window.obj
 0001:00023c30       ?top_window@Fl_Widget@@QBEPAVFl_Window@@XZ 00424c30 f   fltk:Fl_Window.obj
 0001:00023c70       ?top_window_offset@Fl_Widget@@QBEPAVFl_Window@@AAH0@Z 00424c70 f   fltk:Fl_Window.obj
 0001:00023cf0       ?_Fl_Window@Fl_Window@@AAEXXZ 00424cf0 f   fltk:Fl_Window.obj
 0001:00023de0       ?free_icons@Fl_Window@@IAEXXZ 00424de0 f   fltk:Fl_Window.obj
 0001:00023ef0       ??0Fl_Window@@QAE@HHPBD@Z  00424ef0 f   fltk:Fl_Window.obj
 0001:00023f90       ??0Fl_Window@@QAE@HHHHPBD@Z 00424f90 f   fltk:Fl_Window.obj
 0001:00024030       ??1Fl_Window@@UAE@XZ       00425030 f   fltk:Fl_Window.obj
 0001:00024120       ?label@Fl_Window@@QAEXPBD@Z 00425120 f   fltk:Fl_Window.obj
 0001:00024150       ?iconlabel@Fl_Window@@QAEXPBD@Z 00425150 f   fltk:Fl_Window.obj
 0001:00024180       ?copy_label@Fl_Window@@QAEXPBD@Z 00425180 f   fltk:Fl_Window.obj
 0001:000241c0       ?default_xclass@Fl_Window@@SAXPBD@Z 004251c0 f   fltk:Fl_Window.obj
 0001:00024200       ?default_xclass@Fl_Window@@SAPBDXZ 00425200 f   fltk:Fl_Window.obj
 0001:00024220       ?xclass@Fl_Window@@QBEPBDXZ 00425220 f   fltk:Fl_Window.obj
 0001:00024250       ?xclass@Fl_Window@@QAEXPBD@Z 00425250 f   fltk:Fl_Window.obj
 0001:000242b0       ?default_icon@Fl_Window@@SAXPBVFl_RGB_Image@@@Z 004252b0 f   fltk:Fl_Window.obj
 0001:000242d0       ?default_icons@Fl_Window@@SAXQAPBVFl_RGB_Image@@H@Z 004252d0 f   fltk:Fl_Window.obj
 0001:000242f0       ?icon@Fl_Window@@QAEXPBVFl_RGB_Image@@@Z 004252f0 f   fltk:Fl_Window.obj
 0001:00024310       ?icons@Fl_Window@@QAEXQAPBVFl_RGB_Image@@H@Z 00425310 f   fltk:Fl_Window.obj
 0001:000243e0       ?icon@Fl_Window@@QBEPBXXZ  004253e0 f   fltk:Fl_Window.obj
 0001:00024400       ?icon@Fl_Window@@QAEXPBX@Z 00425400 f   fltk:Fl_Window.obj
 0001:00024420       ?wait_for_expose@Fl_Window@@QAEXXZ 00425420 f   fltk:Fl_Window.obj
 0001:00024470       ?x_root@Fl_Window@@QBEHXZ  00425470 f   fltk:Fl_Window.obj
 0001:000244b0       ?y_root@Fl_Window@@QBEHXZ  004254b0 f   fltk:Fl_Window.obj
 0001:000244f0       ?current@Fl_Window@@SAPAV1@XZ 004254f0 f   fltk:Fl_Window.obj
 0001:00024500       ?default_callback@Fl_Window@@SAXPAV1@PAX@Z 00425500 f   fltk:Fl_Window.obj
 0001:00024520       ??_GFl_Window@@UAEPAXI@Z   00425520 f i fltk:Fl_Window.obj
 0001:00024520       ??_EFl_Window@@UAEPAXI@Z   00425520 f i fltk:Fl_Window.obj
 0001:00024560       ?as_gl_window@Fl_Widget@@UAEPAVFl_Gl_Window@@XZ 00425560 f i fltk:Fl_Window.obj
 0001:00024570       ?readqueue@Fl@@SAPAVFl_Widget@@XZ 00425570 f   fltk:Fl_Widget.obj
 0001:000245c0       ??0Fl_Widget@@IAE@HHHHPBD@Z 004255c0 f   fltk:Fl_Widget.obj
 0001:000246d0       ?draw_focus@Fl_Widget@@IBEXW4Fl_Boxtype@@HHHH@Z 004256d0 f   fltk:Fl_Widget.obj
 0001:00024900       ??1Fl_Widget@@UAE@XZ       00425900 f   fltk:Fl_Widget.obj
 0001:000249e0       ?handle@Fl_Widget@@UAEHH@Z 004259e0 f   fltk:Fl_Widget.obj
 0001:000249f0       ?resize@Fl_Widget@@UAEXHHHH@Z 004259f0 f   fltk:Fl_Widget.obj
 0001:00024a30       ?damage_resize@Fl_Widget@@QAEHHHHH@Z 00425a30 f   fltk:Fl_Widget.obj
 0001:00024ac0       ?label@Fl_Widget@@QAEXPBD@Z 00425ac0 f   fltk:Fl_Widget.obj
 0001:00024b30       ?copy_label@Fl_Widget@@QAEXPBD@Z 00425b30 f   fltk:Fl_Widget.obj
 0001:00024ba0       ?visible_r@Fl_Widget@@QBEHXZ 00425ba0 f   fltk:Fl_Widget.obj
 0001:00024bf0       ?show@Fl_Widget@@UAEXXZ    00425bf0 f   fltk:Fl_Widget.obj
 0001:00024ca0       ?hide@Fl_Widget@@UAEXXZ    00425ca0 f   fltk:Fl_Widget.obj
 0001:00024d40       ?active_r@Fl_Widget@@QBEHXZ 00425d40 f   fltk:Fl_Widget.obj
 0001:00024d90       ?activate@Fl_Widget@@QAEXXZ 00425d90 f   fltk:Fl_Widget.obj
 0001:00024e40       ?deactivate@Fl_Widget@@QAEXXZ 00425e40 f   fltk:Fl_Widget.obj
 0001:00024eb0       ?take_focus@Fl_Widget@@QAEHXZ 00425eb0 f   fltk:Fl_Widget.obj
 0001:00024f40       ?default_callback@Fl_Widget@@SAXPAV1@PAX@Z 00425f40 f   fltk:Fl_Widget.obj
 0001:00024fb0       ?do_callback@Fl_Widget@@QAEXPAV1@PAX@Z 00425fb0 f   fltk:Fl_Widget.obj
 0001:00025070       ?contains@Fl_Widget@@QBEHPBV1@@Z 00426070 f   fltk:Fl_Widget.obj
 0001:00025160       ??_GFl_Widget@@UAEPAXI@Z   00426160 f i fltk:Fl_Widget.obj
 0001:00025160       ??_EFl_Widget@@UAEPAXI@Z   00426160 f i fltk:Fl_Widget.obj
 0001:00025190       ?as_group@Fl_Widget@@UAEPAVFl_Group@@XZ 00426190 f i fltk:Fl_Widget.obj
 0001:000251a0       ?as_window@Fl_Widget@@UAEPAVFl_Window@@XZ 004261a0 f i fltk:Fl_Widget.obj
 0001:000251b0       ?navigation@Fl_Group@@AAEHH@Z 004261b0 f   fltk:Fl_Group.obj
 0001:00025370       ?draw@Fl_Group@@MAEXXZ     00426370 f   fltk:Fl_Group.obj
 0001:000253b0       ?draw_child@Fl_Group@@IBEXAAVFl_Widget@@@Z 004263b0 f   fltk:Fl_Group.obj
 0001:00025460       ?draw_children@Fl_Group@@IAEXXZ 00426460 f   fltk:Fl_Group.obj
 0001:00025640       ?draw_outside_label@Fl_Group@@IBEXABVFl_Widget@@@Z 00426640 f   fltk:Fl_Group.obj
 0001:000258d0       ?update_child@Fl_Group@@IBEXAAVFl_Widget@@@Z 004268d0 f   fltk:Fl_Group.obj
 0001:00025990       ?sizes@Fl_Group@@IAEPAHXZ  00426990 f   fltk:Fl_Group.obj
 0001:00025cd0       ?handle@Fl_Group@@UAEHH@Z  00426cd0 f   fltk:Fl_Group.obj
 0001:00026690       ?begin@Fl_Group@@QAEXXZ    00427690 f   fltk:Fl_Group.obj
 0001:000266b0       ?end@Fl_Group@@QAEXXZ      004276b0 f   fltk:Fl_Group.obj
 0001:000266d0       ?current@Fl_Group@@SAPAV1@XZ 004276d0 f   fltk:Fl_Group.obj
 0001:000266e0       ?current@Fl_Group@@SAXPAV1@@Z 004276e0 f   fltk:Fl_Group.obj
 0001:000266f0       ?find@Fl_Group@@QBEHPBVFl_Widget@@@Z 004276f0 f   fltk:Fl_Group.obj
 0001:00026750       ?array@Fl_Group@@QBEPBQAVFl_Widget@@XZ 00427750 f   fltk:Fl_Group.obj
 0001:00026780       ?resize@Fl_Group@@UAEXHHHH@Z 00427780 f   fltk:Fl_Group.obj
 0001:00026b90       ??0Fl_Group@@QAE@HHHHPBD@Z 00427b90 f   fltk:Fl_Group.obj
 0001:00026c40       ??1Fl_Group@@UAE@XZ        00427c40 f   fltk:Fl_Group.obj
 0001:00026c90       ?add@Fl_Group@@QAEXAAVFl_Widget@@@Z 00427c90 f   fltk:Fl_Group.obj
 0001:00026cb0       ?insert@Fl_Group@@QAEXAAVFl_Widget@@H@Z 00427cb0 f   fltk:Fl_Group.obj
 0001:00026e50       ?remove@Fl_Group@@QAEXH@Z  00427e50 f   fltk:Fl_Group.obj
 0001:00026f50       ?remove@Fl_Group@@QAEXAAVFl_Widget@@@Z 00427f50 f   fltk:Fl_Group.obj
 0001:00026f90       ?clear@Fl_Group@@QAEXXZ    00427f90 f   fltk:Fl_Group.obj
 0001:00027120       ?init_sizes@Fl_Group@@QAEXXZ 00428120 f   fltk:Fl_Group.obj
 0001:00027150       ??0Fl_Input_Choice@@QAE@HHHHPBD@Z 00428150 f   fltk:Fl_Group.obj
 0001:00027400       ??0Fl_Spinner@@QAE@HHHHPBD@Z 00428400 f   fltk:Fl_Group.obj
 0001:00027830       ??$__vcrt_va_start_verify_argument_type@QBD@@YAXXZ 00428830 f i fltk:Fl_Group.obj
 0001:00027840       ??1Fl_Input@@UAE@XZ        00428840 f i fltk:Fl_Group.obj
 0001:00027860       ??1Fl_Repeat_Button@@UAE@XZ 00428860 f i fltk:Fl_Group.obj
 0001:00027880       ??1Fl_Spinner@@UAE@XZ      00428880 f i fltk:Fl_Group.obj
 0001:000278c0       ??_GFl_Group@@UAEPAXI@Z    004288c0 f i fltk:Fl_Group.obj
 0001:000278c0       ??_EFl_Group@@UAEPAXI@Z    004288c0 f i fltk:Fl_Group.obj
 0001:000278f0       ??_GFl_Input_Choice@@UAEPAXI@Z 004288f0 f i fltk:Fl_Group.obj
 0001:000278f0       ??_EFl_Input_Choice@@UAEPAXI@Z 004288f0 f i fltk:Fl_Group.obj
 0001:00027920       ??_GFl_Spinner@@UAEPAXI@Z  00428920 f i fltk:Fl_Group.obj
 0001:00027920       ??_EFl_Spinner@@UAEPAXI@Z  00428920 f i fltk:Fl_Group.obj
 0001:00027960       ??_GInputMenuButton@Fl_Input_Choice@@UAEPAXI@Z 00428960 f i fltk:Fl_Group.obj
 0001:00027960       ??_EInputMenuButton@Fl_Input_Choice@@UAEPAXI@Z 00428960 f i fltk:Fl_Group.obj
 0001:00027990       ?draw@InputMenuButton@Fl_Input_Choice@@EAEXXZ 00428990 f i fltk:Fl_Group.obj
 0001:00027a90       ?draw_focus@Fl_Widget@@IAEXXZ 00428a90 f i fltk:Fl_Group.obj
 0001:00027af0       ?handle@Fl_Spinner@@UAEHH@Z 00428af0 f i fltk:Fl_Group.obj
 0001:00027bc0       ?inp_cb@Fl_Input_Choice@@CAXPAVFl_Widget@@PAX@Z 00428bc0 f i fltk:Fl_Group.obj
 0001:00027ce0       ?menu_cb@Fl_Input_Choice@@CAXPAVFl_Widget@@PAX@Z 00428ce0 f i fltk:Fl_Group.obj
 0001:00027ee0       ?menu_x@Fl_Input_Choice@@AAEHXZ 00428ee0 f i fltk:Fl_Group.obj
 0001:00027f30       ?resize@Fl_Input_Choice@@UAEXHHHH@Z 00428f30 f i fltk:Fl_Group.obj
 0001:00028090       ?resize@Fl_Spinner@@UAEXHHHH@Z 00429090 f i fltk:Fl_Group.obj
 0001:00028180       ?sb_cb@Fl_Spinner@@CAXPAVFl_Widget@@PAV1@@Z 00429180 f i fltk:Fl_Group.obj
 0001:00028300       ?update@Fl_Spinner@@AAEXXZ 00429300 f i fltk:Fl_Group.obj
 0001:000284e0       ?setonly@Fl_Menu_Item@@QAEXXZ 004294e0 f   fltk:Fl_Menu_.obj
 0001:00028590       ??0Fl_Menu_@@QAE@HHHHPBD@Z 00429590 f   fltk:Fl_Menu_.obj
 0001:00028640       ??1Fl_Menu_@@UAE@XZ        00429640 f   fltk:Fl_Menu_.obj
 0001:00028690       ?item_pathname@Fl_Menu_@@QBEHPADHPBUFl_Menu_Item@@@Z 00429690 f   fltk:Fl_Menu_.obj
 0001:000288e0       ?picked@Fl_Menu_@@QAEPBUFl_Menu_Item@@PBU2@@Z 004298e0 f   fltk:Fl_Menu_.obj
 0001:00028a00       ?find_item@Fl_Menu_@@QAEPBUFl_Menu_Item@@PBD@Z 00429a00 f   fltk:Fl_Menu_.obj
 0001:00028a40       ?find_item@Fl_Menu_@@QAEPBUFl_Menu_Item@@P6AXPAVFl_Widget@@PAX@Z@Z 00429a40 f   fltk:Fl_Menu_.obj
 0001:00028a90       ?find_index@Fl_Menu_@@QBEHPBD@Z 00429a90 f   fltk:Fl_Menu_.obj
 0001:00028cc0       ?find_index@Fl_Menu_@@QBEHPBUFl_Menu_Item@@@Z 00429cc0 f   fltk:Fl_Menu_.obj
 0001:00028d10       ?find_index@Fl_Menu_@@QBEHP6AXPAVFl_Widget@@PAX@Z@Z 00429d10 f   fltk:Fl_Menu_.obj
 0001:00028d60       ?menu@Fl_Menu_@@QAEXPBUFl_Menu_Item@@@Z 00429d60 f   fltk:Fl_Menu_.obj
 0001:00028d90       ?copy@Fl_Menu_@@QAEXPBUFl_Menu_Item@@PAX@Z 00429d90 f   fltk:Fl_Menu_.obj
 0001:00028e30       ?size@Fl_Menu_@@QBEHXZ     00429e30 f   fltk:Fl_Menu_.obj
 0001:00028e60       ?clear@Fl_Menu_@@QAEXXZ    00429e60 f   fltk:Fl_Menu_.obj
 0001:00028f20       ?clear_submenu@Fl_Menu_@@QAEHH@Z 00429f20 f   fltk:Fl_Menu_.obj
 0001:00028fa0       ?value@Fl_Menu_@@QAEHPBUFl_Menu_Item@@@Z 00429fa0 f   fltk:Fl_Menu_.obj
 0001:00028fe0       ??_EFl_Menu_@@UAEPAXI@Z    00429fe0 f i fltk:Fl_Menu_.obj
 0001:00028fe0       ??_GFl_Menu_@@UAEPAXI@Z    00429fe0 f i fltk:Fl_Menu_.obj
 0001:00029010       ?draw@Fl_Menu_Bar@@MAEXXZ  0042a010 f   fltk:Fl_Menu_Bar.obj
 0001:000291c0       ?handle@Fl_Menu_Bar@@UAEHH@Z 0042a1c0 f   fltk:Fl_Menu_Bar.obj
 0001:00029330       ??0Fl_Menu_Bar@@QAE@HHHHPBD@Z 0042a330 f   fltk:Fl_Menu_Bar.obj
 0001:00029370       ??_EFl_Menu_Bar@@UAEPAXI@Z 0042a370 f i fltk:Fl_Menu_Bar.obj
 0001:00029370       ??_GFl_Menu_Bar@@UAEPAXI@Z 0042a370 f i fltk:Fl_Menu_Bar.obj
 0001:000293a0       ??0Fl_Valuator@@IAE@HHHHPBD@Z 0042a3a0 f   fltk:Fl_Valuator.obj
 0001:00029450       ?softclamp@Fl_Valuator@@IAENN@Z 0042a450 f   fltk:Fl_Valuator.obj
 0001:00029570       ?handle_drag@Fl_Valuator@@IAEXN@Z 0042a570 f   fltk:Fl_Valuator.obj
 0001:000295e0       ?handle_release@Fl_Valuator@@IAEXXZ 0042a5e0 f   fltk:Fl_Valuator.obj
 0001:00029640       ?value_damage@Fl_Valuator@@MAEXXZ 0042a640 f   fltk:Fl_Valuator.obj
 0001:00029660       ?step@Fl_Valuator@@QAEXN@Z 0042a660 f   fltk:Fl_Valuator.obj
 0001:00029750       ?precision@Fl_Valuator@@QAEXH@Z 0042a750 f   fltk:Fl_Valuator.obj
 0001:000297b0       ?value@Fl_Valuator@@QAEHN@Z 0042a7b0 f   fltk:Fl_Valuator.obj
 0001:00029810       ?format@Fl_Valuator@@UAEHPAD@Z 0042a810 f   fltk:Fl_Valuator.obj
 0001:00029960       ?round@Fl_Valuator@@QAENN@Z 0042a960 f   fltk:Fl_Valuator.obj
 0001:000299e0       ?clamp@Fl_Valuator@@QAENN@Z 0042a9e0 f   fltk:Fl_Valuator.obj
 0001:00029aa0       ?increment@Fl_Valuator@@QAENNH@Z 0042aaa0 f   fltk:Fl_Valuator.obj
 0001:00029b70       ??_GFl_Valuator@@UAEPAXI@Z 0042ab70 f i fltk:Fl_Valuator.obj
 0001:00029b70       ??_EFl_Valuator@@UAEPAXI@Z 0042ab70 f i fltk:Fl_Valuator.obj
 0001:00029bb0       ?draw@Fl_Value_Slider@@MAEXXZ 0042abb0 f   fltk:Fl_Value_Slider.obj
 0001:00029f20       ?handle@Fl_Value_Slider@@UAEHH@Z 0042af20 f   fltk:Fl_Value_Slider.obj
 0001:0002a030       ??0Fl_Value_Slider@@QAE@HHHHPBD@Z 0042b030 f   fltk:Fl_Value_Slider.obj
 0001:0002a0b0       ??0Fl_Hor_Value_Slider@@QAE@HHHHPBD@Z 0042b0b0 f   fltk:Fl_Value_Slider.obj
 0001:0002a0f0       ??_EFl_Hor_Value_Slider@@UAEPAXI@Z 0042b0f0 f i fltk:Fl_Value_Slider.obj
 0001:0002a0f0       ??_GFl_Hor_Value_Slider@@UAEPAXI@Z 0042b0f0 f i fltk:Fl_Value_Slider.obj
 0001:0002a130       ??_EFl_Value_Slider@@UAEPAXI@Z 0042b130 f i fltk:Fl_Value_Slider.obj
 0001:0002a130       ??_GFl_Value_Slider@@UAEPAXI@Z 0042b130 f i fltk:Fl_Value_Slider.obj
 0001:0002a170       ?key_release_timeout@Fl_Button@@KAXPAX@Z 0042b170 f   fltk:Fl_Button.obj
 0001:0002a210       ?simulate_key_action@Fl_Button@@IAEXXZ 0042b210 f   fltk:Fl_Button.obj
 0001:0002a2f0       ?draw@Fl_Button@@MAEXXZ    0042b2f0 f   fltk:Fl_Button.obj
 0001:0002a440       ?handle@Fl_Button@@UAEHH@Z 0042b440 f   fltk:Fl_Button.obj
 0001:0002a9f0       ??0Fl_Button@@QAE@HHHHPBD@Z 0042b9f0 f   fltk:Fl_Button.obj
 0001:0002aa60       ?value@Fl_Button@@QAEHH@Z  0042ba60 f   fltk:Fl_Button.obj
 0001:0002aaf0       ?setonly@Fl_Button@@QAEXXZ 0042baf0 f   fltk:Fl_Button.obj
 0001:0002ab70       ??0Fl_Radio_Button@@QAE@HHHHPBD@Z 0042bb70 f   fltk:Fl_Button.obj
 0001:0002abb0       ??0Fl_Toggle_Button@@QAE@HHHHPBD@Z 0042bbb0 f   fltk:Fl_Button.obj
 0001:0002abf0       ??_GFl_Button@@UAEPAXI@Z   0042bbf0 f i fltk:Fl_Button.obj
 0001:0002abf0       ??_EFl_Button@@UAEPAXI@Z   0042bbf0 f i fltk:Fl_Button.obj
 0001:0002ac20       ??_EFl_Radio_Button@@UAEPAXI@Z 0042bc20 f i fltk:Fl_Button.obj
 0001:0002ac20       ??_GFl_Radio_Button@@UAEPAXI@Z 0042bc20 f i fltk:Fl_Button.obj
 0001:0002ac50       ??_GFl_Toggle_Button@@UAEPAXI@Z 0042bc50 f i fltk:Fl_Button.obj
 0001:0002ac50       ??_EFl_Toggle_Button@@UAEPAXI@Z 0042bc50 f i fltk:Fl_Button.obj
 0001:0002ac80       ?draw@Fl_Light_Button@@MAEXXZ 0042bc80 f   fltk:Fl_Light_Button.obj
 0001:0002b7b0       ?handle@Fl_Light_Button@@UAEHH@Z 0042c7b0 f   fltk:Fl_Light_Button.obj
 0001:0002b7f0       ??0Fl_Light_Button@@QAE@HHHHPBD@Z 0042c7f0 f   fltk:Fl_Light_Button.obj
 0001:0002b840       ??0Fl_Radio_Light_Button@@QAE@HHHHPBD@Z 0042c840 f   fltk:Fl_Light_Button.obj
 0001:0002b880       ??_GFl_Light_Button@@UAEPAXI@Z 0042c880 f i fltk:Fl_Light_Button.obj
 0001:0002b880       ??_EFl_Light_Button@@UAEPAXI@Z 0042c880 f i fltk:Fl_Light_Button.obj
 0001:0002b8b0       ??_EFl_Radio_Light_Button@@UAEPAXI@Z 0042c8b0 f i fltk:Fl_Light_Button.obj
 0001:0002b8b0       ??_GFl_Radio_Light_Button@@UAEPAXI@Z 0042c8b0 f i fltk:Fl_Light_Button.obj
 0001:0002b8e0       ?draw@Fl_Choice@@MAEXXZ    0042c8e0 f   fltk:Fl_Choice.obj
 0001:0002c080       ?handle@Fl_Choice@@UAEHH@Z 0042d080 f   fltk:Fl_Choice.obj
 0001:0002c320       ??0Fl_Choice@@QAE@HHHHPBD@Z 0042d320 f   fltk:Fl_Choice.obj
 0001:0002c380       ?value@Fl_Choice@@QAEHH@Z  0042d380 f   fltk:Fl_Choice.obj
 0001:0002c3f0       ?value@Fl_Choice@@QAEHPBUFl_Menu_Item@@@Z 0042d3f0 f   fltk:Fl_Choice.obj
 0001:0002c420       ??_GFl_Choice@@UAEPAXI@Z   0042d420 f i fltk:Fl_Choice.obj
 0001:0002c420       ??_EFl_Choice@@UAEPAXI@Z   0042d420 f i fltk:Fl_Choice.obj
 0001:0002c450       ?fl_dir_chooser@@YAPADPBD0H@Z 0042d450 f   fltk:fl_file_dir.obj
 0001:0002c5f0       ?fl_file_chooser@@YAPADPBD00H@Z 0042d5f0 f   fltk:fl_file_dir.obj
 0001:0002c930       ?fl_file_chooser_callback@@YAXP6AXPBD@Z@Z 0042d930 f   fltk:fl_file_dir.obj
 0001:0002c940       ?fl_file_chooser_ok_label@@YAXPBD@Z 0042d940 f   fltk:fl_file_dir.obj
 0001:0002c9b0       _fl_utf8bytes              0042d9b0 f   fltk:fl_utf.obj
 0001:0002ca10       _fl_utf8decode             0042da10 f   fltk:fl_utf.obj
 0001:0002cd00       _fl_utf8encode             0042dd00 f   fltk:fl_utf.obj
 0001:0002ce90       _fl_utf8fwd                0042de90 f   fltk:fl_utf.obj
 0001:0002cf40       _fl_utf8back               0042df40 f   fltk:fl_utf.obj
 0001:0002cfe0       _fl_ucs_to_Utf16           0042dfe0 f   fltk:fl_utf.obj
 0001:0002d100       _fl_utf8toUtf16            0042e100 f   fltk:fl_utf.obj
 0001:0002d2a0       _fl_utf8towc               0042e2a0 f   fltk:fl_utf.obj
 0001:0002d2c0       _fl_utf8fromwc             0042e2c0 f   fltk:fl_utf.obj
 0001:0002d610       _fl_utf8toa                0042e610 f   fltk:fl_utf.obj
 0001:0002d730       _fl_utf8froma              0042e730 f   fltk:fl_utf.obj
 0001:0002d860       _fl_utf8locale             0042e860 f   fltk:fl_utf.obj
 0001:0002d8a0       _fl_utf8test               0042e8a0 f   fltk:fl_utf.obj
 0001:0002d920       _fl_wcwidth_               0042e920 f   fltk:fl_utf.obj
 0001:0002d940       _fl_wcwidth                0042e940 f   fltk:fl_utf.obj
 0001:0002d990       _fl_utf8to_mb              0042e990 f   fltk:fl_utf.obj
 0001:0002db10       _fl_utf8from_mb            0042eb10 f   fltk:fl_utf.obj
 0001:0002de40       ?call_screen_init@Fl@@SAXXZ 0042ee40 f   fltk:screen_xywh.obj
 0001:0002de50       ?screen_count@Fl@@SAHXZ    0042ee50 f   fltk:screen_xywh.obj
 0001:0002de90       ?screen_xywh@Fl@@SAXAAH000HH@Z 0042ee90 f   fltk:screen_xywh.obj
 0001:0002dec0       ?screen_xywh@Fl@@SAXAAH000H@Z 0042eec0 f   fltk:screen_xywh.obj
 0001:0002df80       ?screen_xywh@Fl@@SAXAAH000HHHH@Z 0042ef80 f   fltk:screen_xywh.obj
 0001:0002dfc0       ?screen_num@Fl@@SAHHH@Z    0042efc0 f   fltk:screen_xywh.obj
 0001:0002e050       ?screen_num@Fl@@SAHHHHH@Z  0042f050 f   fltk:screen_xywh.obj
 0001:0002e100       ?screen_dpi@Fl@@SAXAAM0H@Z 0042f100 f   fltk:screen_xywh.obj
 0001:0002e170       ?screen_work_area@Fl@@SAXAAH000HH@Z 0042f170 f   fltk:screen_xywh.obj
 0001:0002e1a0       ?screen_work_area@Fl@@SAXAAH000H@Z 0042f1a0 f   fltk:screen_xywh.obj
 0001:0002e540       ?add_awake_handler_@Fl@@SAHP6AXPAX@Z0@Z 0042f540 f   fltk:Fl_lock.obj
 0001:0002e620       ?get_awake_handler_@Fl@@SAHAAP6AXPAX@ZAAPAX@Z 0042f620 f   fltk:Fl_lock.obj
 0001:0002e6b0       ?lock@Fl@@SAHXZ            0042f6b0 f   fltk:Fl_lock.obj
 0001:0002e700       ?unlock@Fl@@SAXXZ          0042f700 f   fltk:Fl_lock.obj
 0001:0002e710       ?awake@Fl@@SAXPAX@Z        0042f710 f   fltk:Fl_lock.obj
 0001:0002e730       ?awake@Fl@@SAHP6AXPAX@Z0@Z 0042f730 f   fltk:Fl_lock.obj
 0001:0002e7e0       ?compose@Fl@@SAHAAH@Z      0042f7e0 f   fltk:Fl_compose.obj
 0001:0002e880       ?compose_reset@Fl@@SAXXZ   0042f880 f   fltk:Fl_compose.obj
 0001:0002e890       ?set_labeltype@Fl@@SAXW4Fl_Labeltype@@P6AXPBUFl_Label@@HHHHI@ZP6AX1AAH3@Z@Z 0042f890 f   fltk:fl_labeltype.obj
 0001:0002e8b0       ?draw@Fl_Label@@QBEXHHHHI@Z 0042f8b0 f   fltk:fl_labeltype.obj
 0001:0002e900       ?measure@Fl_Label@@QBEXAAH0@Z 0042f900 f   fltk:fl_labeltype.obj
 0001:0002e970       ?draw_label@Fl_Widget@@IBEXXZ 0042f970 f   fltk:fl_labeltype.obj
 0001:0002ea40       ?draw_label@Fl_Widget@@IBEXHHHH@Z 0042fa40 f   fltk:fl_labeltype.obj
 0001:0002eaa0       ?draw_label@Fl_Widget@@QBEXHHHHI@Z 0042faa0 f   fltk:fl_labeltype.obj
 0001:0002eb30       ?fl_no_label@@YAXPBUFl_Label@@HHHHI@Z 0042fb30 f   fltk:fl_labeltype.obj
 0001:0002eb40       ?fl_normal_label@@YAXPBUFl_Label@@HHHHI@Z 0042fb40 f   fltk:fl_labeltype.obj
 0001:0002ebd0       ?fl_normal_measure@@YAXPBUFl_Label@@AAH1@Z 0042fbd0 f   fltk:fl_labeltype.obj
 0001:0002ec70       ?draw_empty@Fl_Image@@IAEXHH@Z 0042fc70 f   fltk:Fl_Image.obj
 0001:0002ed80       ?labeltype@Fl_Image@@KAXPBUFl_Label@@HHHHI@Z 0042fd80 f   fltk:Fl_Image.obj
 0001:0002ee60       ?measure@Fl_Image@@KAXPBUFl_Label@@AAH1@Z 0042fe60 f   fltk:Fl_Image.obj
 0001:0002eea0       ??1Fl_Image@@UAE@XZ        0042fea0 f   fltk:Fl_Image.obj
 0001:0002eec0       ?copy@Fl_Image@@UAEPAV1@HH@Z 0042fec0 f   fltk:Fl_Image.obj
 0001:0002ef50       ?color_average@Fl_Image@@UAEXIM@Z 0042ff50 f   fltk:Fl_Image.obj
 0001:0002ef60       ?desaturate@Fl_Image@@UAEXXZ 0042ff60 f   fltk:Fl_Image.obj
 0001:0002ef70       ?label@Fl_Image@@UAEXPAVFl_Widget@@@Z 0042ff70 f   fltk:Fl_Image.obj
 0001:0002ef90       ?label@Fl_Image@@UAEXPAUFl_Menu_Item@@@Z 0042ff90 f   fltk:Fl_Image.obj
 0001:0002efc0       ?draw@Fl_Image@@UAEXHHHHHH@Z 0042ffc0 f   fltk:Fl_Image.obj
 0001:0002efe0       ?uncache@Fl_Image@@UAEXXZ  0042ffe0 f   fltk:Fl_Image.obj
 0001:0002eff0       ?RGB_scaling@Fl_Image@@SAXW4Fl_RGB_Scaling@@@Z 0042fff0 f   fltk:Fl_Image.obj
 0001:0002f000       ?RGB_scaling@Fl_Image@@SA?AW4Fl_RGB_Scaling@@XZ 00430000 f   fltk:Fl_Image.obj
 0001:0002f010       ??0Fl_RGB_Image@@QAE@PBVFl_Pixmap@@I@Z 00430010 f   fltk:Fl_Image.obj
 0001:0002f150       ??1Fl_RGB_Image@@UAE@XZ    00430150 f   fltk:Fl_Image.obj
 0001:0002f1c0       ?copy@Fl_RGB_Image@@UAEPAVFl_Image@@HH@Z 004301c0 f   fltk:Fl_Image.obj
 0001:0002fff0       ?color_average@Fl_RGB_Image@@UAEXIM@Z 00430ff0 f   fltk:Fl_Image.obj
 0001:000303b0       ?desaturate@Fl_RGB_Image@@UAEXXZ 004313b0 f   fltk:Fl_Image.obj
 0001:000305e0       ?draw@Fl_RGB_Image@@UAEXHHHHHH@Z 004315e0 f   fltk:Fl_Image.obj
 0001:00030620       ?label@Fl_RGB_Image@@UAEXPAVFl_Widget@@@Z 00431620 f   fltk:Fl_Image.obj
 0001:00030640       ?label@Fl_RGB_Image@@UAEXPAUFl_Menu_Item@@@Z 00431640 f   fltk:Fl_Image.obj
 0001:00030670       ?uncache@Fl_RGB_Image@@UAEXXZ 00431670 f   fltk:Fl_Image.obj
 0001:000306c0       ?draw@Fl_GDI_Graphics_Driver@@UAEXPAVFl_RGB_Image@@HHHHHH@Z 004316c0 f   fltk:Fl_Image.obj
 0001:00030d30       ?tooltip@Fl_Widget@@QAEXPBD@Z 00431d30 f   fltk:Fl_Tooltip.obj
 0001:00030da0       ?copy_tooltip@Fl_Widget@@QAEXPBD@Z 00431da0 f   fltk:Fl_Tooltip.obj
 0001:00030e30       ?enter_area@Fl_Tooltip@@SAXPAVFl_Widget@@HHHHPBD@Z 00431e30 f   fltk:Fl_Tooltip.obj
 0001:00030fe0       ?current@Fl_Tooltip@@SAXPAVFl_Widget@@@Z 00431fe0 f   fltk:Fl_Tooltip.obj
 0001:00031030       ?enter_@Fl_Tooltip@@CAXPAVFl_Widget@@@Z 00432030 f   fltk:Fl_Tooltip.obj
 0001:000310c0       ?exit_@Fl_Tooltip@@CAXPAVFl_Widget@@@Z 004320c0 f   fltk:Fl_Tooltip.obj
 0001:00031190       ?set_enter_exit_once_@Fl_Tooltip@@CAXXZ 00432190 f   fltk:Fl_Tooltip.obj
 0001:000311c0       ?draw@Fl_TooltipBox@@UAEXXZ 004321c0 f   fltk:Fl_Tooltip.obj
 0001:000312d0       ?layout@Fl_TooltipBox@@QAEXXZ 004322d0 f   fltk:Fl_Tooltip.obj
 0001:000315e0       ??0Fl_TooltipBox@@QAE@XZ   004325e0 f i fltk:Fl_Tooltip.obj
 0001:00031680       ??_GFl_TooltipBox@@UAEPAXI@Z 00432680 f i fltk:Fl_Tooltip.obj
 0001:00031680       ??_EFl_TooltipBox@@UAEPAXI@Z 00432680 f i fltk:Fl_Tooltip.obj
 0001:000316c0       ?show@Fl_TooltipBox@@UAEXXZ 004326c0 f i fltk:Fl_Tooltip.obj
 0001:000316e0       ?fl_inactive@@YAII@Z       004326e0 f   fltk:fl_color.obj
 0001:00031710       ?fl_contrast@@YAIII@Z      00432710 f   fltk:fl_color.obj
 0001:00031800       ?fl_color_average@@YAIIIM@Z 00432800 f   fltk:fl_color.obj
 0001:00031950       ?set_color@Fl@@SAXIEEE@Z   00432950 f   fltk:fl_color.obj
 0001:00031980       ?set_color@Fl@@SAXII@Z     00432980 f   fltk:fl_color.obj
 0001:000319c0       ?get_color@Fl@@SAII@Z      004329c0 f   fltk:fl_color.obj
 0001:000319e0       ?get_color@Fl@@SAXIAAE00@Z 004329e0 f   fltk:fl_color.obj
 0001:00031a30       ?free_color@Fl@@SAXIH@Z    00432a30 f   fltk:fl_color.obj
 0001:00031a50       ?fl_brush@@YAPAUHBRUSH__@@XZ 00432a50 f   fltk:fl_color.obj
 0001:00031a60       ?fl_brush_action@@YAPAUHBRUSH__@@H@Z 00432a60 f   fltk:fl_color.obj
 0001:00031cb0       ?color@Fl_GDI_Graphics_Driver@@UAEXI@Z 00432cb0 f   fltk:fl_color.obj
 0001:00031da0       ?color@Fl_GDI_Graphics_Driver@@UAEXEEE@Z 00432da0 f   fltk:fl_color.obj
 0001:00031e60       ?fl_cleanup_pens@@YAXXZ    00432e60 f   fltk:fl_color.obj
 0001:00031eb0       ?fl_save_pen@@YAXXZ        00432eb0 f   fltk:fl_color.obj
 0001:00031ef0       ?fl_restore_pen@@YAXXZ     00432ef0 f   fltk:fl_color.obj
 0001:00032030       ?fl_select_palette@@YAPAUHPALETTE__@@XZ 00433030 f   fltk:fl_color.obj
 0001:000321c0       ?flush@Fl_Double_Window@@IAEXH@Z 004331c0 f   fltk:Fl_Double_Window.obj
 0001:000323a0       ?show@Fl_Double_Window@@UAEXXZ 004333a0 f   fltk:Fl_Double_Window.obj
 0001:000323c0       ?flush@Fl_Double_Window@@UAEXXZ 004333c0 f   fltk:Fl_Double_Window.obj
 0001:000323e0       ?resize@Fl_Double_Window@@UAEXHHHH@Z 004333e0 f   fltk:Fl_Double_Window.obj
 0001:00032470       ?hide@Fl_Double_Window@@UAEXXZ 00433470 f   fltk:Fl_Double_Window.obj
 0001:000324b0       ??1Fl_Double_Window@@UAE@XZ 004334b0 f   fltk:Fl_Double_Window.obj
 0001:00032500       ??0Fl_Double_Window@@QAE@HHPBD@Z 00433500 f   fltk:Fl_Double_Window.obj
 0001:00032540       ??0Fl_Double_Window@@QAE@HHHHPBD@Z 00433540 f   fltk:Fl_Double_Window.obj
 0001:00032590       ??0Fl_Overlay_Window@@IAE@HHPBD@Z 00433590 f   fltk:Fl_Double_Window.obj
 0001:000325e0       ??0Fl_Overlay_Window@@IAE@HHHHPBD@Z 004335e0 f   fltk:Fl_Double_Window.obj
 0001:00032640       ?fl_makeDC@@YAPAUHDC__@@PAUHBITMAP__@@@Z 00433640 f   fltk:Fl_Double_Window.obj
 0001:000326a0       ?fl_copy_offscreen@@YAXHHHHPAUHBITMAP__@@HH@Z 004336a0 f   fltk:Fl_Double_Window.obj
 0001:00032730       ?copy_offscreen@Fl_Graphics_Driver@@IAEXHHHHPAUHBITMAP__@@HH@Z 00433730 f   fltk:Fl_Double_Window.obj
 0001:00032860       ?copy_offscreen_with_alpha@Fl_GDI_Graphics_Driver@@QAEXHHHHPAUHBITMAP__@@HH@Z 00433860 f   fltk:Fl_Double_Window.obj
 0001:00032940       ?copy_offscreen@Fl_GDI_Graphics_Driver@@QAEXHHHHPAUHBITMAP__@@HH@Z 00433940 f   fltk:Fl_Double_Window.obj
 0001:000329c0       ?fl_can_do_alpha_blending@@YADXZ 004339c0 f   fltk:Fl_Double_Window.obj
 0001:00032b00       ??_GFl_Double_Window@@UAEPAXI@Z 00433b00 f i fltk:Fl_Double_Window.obj
 0001:00032b00       ??_EFl_Double_Window@@UAEPAXI@Z 00433b00 f i fltk:Fl_Double_Window.obj
 0001:00032b40       ??_EFl_Overlay_Window@@UAEPAXI@Z 00433b40 f i fltk:Fl_Double_Window.obj
 0001:00032b40       ??_GFl_Overlay_Window@@UAEPAXI@Z 00433b40 f i fltk:Fl_Double_Window.obj
 0001:00032b80       ?newUUID@Fl_Preferences@@SAPBDXZ 00433b80 f   fltk:Fl_Preferences.obj
 0001:00032f30       ??0Fl_Preferences@@QAE@W4Root@0@PBD1@Z 00433f30 f   fltk:Fl_Preferences.obj
 0001:00033040       ??0Fl_Preferences@@QAE@PBD00@Z 00434040 f   fltk:Fl_Preferences.obj
 0001:00033150       ??0Fl_Preferences@@QAE@AAV0@PBD@Z 00434150 f   fltk:Fl_Preferences.obj
 0001:00033190       ??0Fl_Preferences@@QAE@PAV0@PBD@Z 00434190 f   fltk:Fl_Preferences.obj
 0001:00033330       ??0Fl_Preferences@@QAE@AAV0@H@Z 00434330 f   fltk:Fl_Preferences.obj
 0001:000333a0       ??0Fl_Preferences@@QAE@PAV0@H@Z 004343a0 f   fltk:Fl_Preferences.obj
 0001:00033410       ??0Fl_Preferences@@QAE@ABV0@@Z 00434410 f   fltk:Fl_Preferences.obj
 0001:00033450       ??0Fl_Preferences@@QAE@PAX@Z 00434450 f   fltk:Fl_Preferences.obj
 0001:00033490       ??1Fl_Preferences@@UAE@XZ  00434490 f   fltk:Fl_Preferences.obj
 0001:00033540       ?groups@Fl_Preferences@@QAEHXZ 00434540 f   fltk:Fl_Preferences.obj
 0001:00033560       ?group@Fl_Preferences@@QAEPBDH@Z 00434560 f   fltk:Fl_Preferences.obj
 0001:00033580       ?groupExists@Fl_Preferences@@QAEDPBD@Z 00434580 f   fltk:Fl_Preferences.obj
 0001:000335c0       ?deleteGroup@Fl_Preferences@@QAEDPBD@Z 004345c0 f   fltk:Fl_Preferences.obj
 0001:00033600       ?deleteAllGroups@Fl_Preferences@@QAEDXZ 00434600 f   fltk:Fl_Preferences.obj
 0001:00033620       ?entries@Fl_Preferences@@QAEHXZ 00434620 f   fltk:Fl_Preferences.obj
 0001:00033640       ?entry@Fl_Preferences@@QAEPBDH@Z 00434640 f   fltk:Fl_Preferences.obj
 0001:00033660       ?entryExists@Fl_Preferences@@QAEDPBD@Z 00434660 f   fltk:Fl_Preferences.obj
 0001:000336a0       ?deleteEntry@Fl_Preferences@@QAEDPBD@Z 004346a0 f   fltk:Fl_Preferences.obj
 0001:000336c0       ?deleteAllEntries@Fl_Preferences@@QAEDXZ 004346c0 f   fltk:Fl_Preferences.obj
 0001:000336e0       ?clear@Fl_Preferences@@QAEDXZ 004346e0 f   fltk:Fl_Preferences.obj
 0001:00033710       ?set@Fl_Preferences@@QAEDPBDH@Z 00434710 f   fltk:Fl_Preferences.obj
 0001:00033750       ?set@Fl_Preferences@@QAEDPBDM@Z 00434750 f   fltk:Fl_Preferences.obj
 0001:000337a0       ?set@Fl_Preferences@@QAEDPBDMH@Z 004347a0 f   fltk:Fl_Preferences.obj
 0001:000337f0       ?set@Fl_Preferences@@QAEDPBDN@Z 004347f0 f   fltk:Fl_Preferences.obj
 0001:00033840       ?set@Fl_Preferences@@QAEDPBDNH@Z 00434840 f   fltk:Fl_Preferences.obj
 0001:00033890       ?set@Fl_Preferences@@QAEDPBD0@Z 00434890 f   fltk:Fl_Preferences.obj
 0001:00033ad0       ?set@Fl_Preferences@@QAEDPBDPBXH@Z 00434ad0 f   fltk:Fl_Preferences.obj
 0001:00033b90       ?get@Fl_Preferences@@QAEDPBDAAHH@Z 00434b90 f   fltk:Fl_Preferences.obj
 0001:00033bf0       ?get@Fl_Preferences@@QAEDPBDAAMM@Z 00434bf0 f   fltk:Fl_Preferences.obj
 0001:00033c60       ?get@Fl_Preferences@@QAEDPBDAANN@Z 00434c60 f   fltk:Fl_Preferences.obj
 0001:00033cd0       ?get@Fl_Preferences@@QAEDPBDAAPAD0@Z 00434cd0 f   fltk:Fl_Preferences.obj
 0001:00033d70       ?get@Fl_Preferences@@QAEDPBDPAD0H@Z 00434d70 f   fltk:Fl_Preferences.obj
 0001:00033e30       ?get@Fl_Preferences@@QAEDPBDAAPAXPBXH@Z 00434e30 f   fltk:Fl_Preferences.obj
 0001:00033eb0       ?get@Fl_Preferences@@QAEDPBDPAXPBXHH@Z 00434eb0 f   fltk:Fl_Preferences.obj
 0001:00033f60       ?size@Fl_Preferences@@QAEHPBD@Z 00434f60 f   fltk:Fl_Preferences.obj
 0001:00033fb0       ?getUserdataPath@Fl_Preferences@@QAEDPADH@Z 00434fb0 f   fltk:Fl_Preferences.obj
 0001:00033fe0       ?flush@Fl_Preferences@@QAEXXZ 00434fe0 f   fltk:Fl_Preferences.obj
 0001:00034020       ??0Name@Fl_Preferences@@QAE@I@Z 00435020 f   fltk:Fl_Preferences.obj
 0001:00034060       ??0Name@Fl_Preferences@@QAA@PBDZZ 00435060 f   fltk:Fl_Preferences.obj
 0001:000340b0       ??1Name@Fl_Preferences@@QAE@XZ 004350b0 f   fltk:Fl_Preferences.obj
 0001:000340e0       ??4Fl_Preferences@@AAEAAV0@ABV0@@Z 004350e0 f   fltk:Fl_Preferences.obj
 0001:00034110       ?createIndex@Node@Fl_Preferences@@AAEXXZ 00435110 f   fltk:Fl_Preferences.obj
 0001:000341d0       ?updateIndex@Node@Fl_Preferences@@AAEXXZ 004351d0 f   fltk:Fl_Preferences.obj
 0001:000341f0       ?deleteIndex@Node@Fl_Preferences@@AAEXXZ 004351f0 f   fltk:Fl_Preferences.obj
 0001:00034250       ??0Node@Fl_Preferences@@QAE@PBD@Z 00435250 f   fltk:Fl_Preferences.obj
 0001:00034310       ??1Node@Fl_Preferences@@QAE@XZ 00435310 f   fltk:Fl_Preferences.obj
 0001:000343a0       ?write@Node@Fl_Preferences@@QAEHPAU_iobuf@@@Z 004353a0 f   fltk:Fl_Preferences.obj
 0001:00034570       ?name@Node@Fl_Preferences@@QAEPBDXZ 00435570 f   fltk:Fl_Preferences.obj
 0001:000345d0       ?find@Node@Fl_Preferences@@QAEPAV12@PBD@Z 004355d0 f   fltk:Fl_Preferences.obj
 0001:00034760       ?search@Node@Fl_Preferences@@QAEPAV12@PBDH@Z 00435760 f   fltk:Fl_Preferences.obj
 0001:00034930       ?childNode@Node@Fl_Preferences@@QAEPAV12@H@Z 00435930 f   fltk:Fl_Preferences.obj
 0001:000349c0       ?addChild@Node@Fl_Preferences@@QAEPAV12@PBD@Z 004359c0 f   fltk:Fl_Preferences.obj
 0001:00034a40       ?setParent@Node@Fl_Preferences@@QAEXPAV12@@Z 00435a40 f   fltk:Fl_Preferences.obj
 0001:00034ab0       ?findRoot@Node@Fl_Preferences@@QAEPAVRootNode@2@XZ 00435ab0 f   fltk:Fl_Preferences.obj
 0001:00034b10       ?remove@Node@Fl_Preferences@@QAEDXZ 00435b10 f   fltk:Fl_Preferences.obj
 0001:00034cb0       ?dirty@Node@Fl_Preferences@@QAEDXZ 00435cb0 f   fltk:Fl_Preferences.obj
 0001:00034d10       ?deleteAllChildren@Node@Fl_Preferences@@QAEXXZ 00435d10 f   fltk:Fl_Preferences.obj
 0001:00034db0       ?nChildren@Node@Fl_Preferences@@QAEHXZ 00435db0 f   fltk:Fl_Preferences.obj
 0001:00034e10       ?child@Node@Fl_Preferences@@QAEPBDH@Z 00435e10 f   fltk:Fl_Preferences.obj
 0001:00034e50       ?set@Node@Fl_Preferences@@QAEXPBD0@Z 00435e50 f   fltk:Fl_Preferences.obj
 0001:00035000       ?set@Node@Fl_Preferences@@QAEXPBD@Z 00436000 f   fltk:Fl_Preferences.obj
 0001:000350f0       ?add@Node@Fl_Preferences@@QAEXPBD@Z 004360f0 f   fltk:Fl_Preferences.obj
 0001:000351a0       ?get@Node@Fl_Preferences@@QAEPBDPBD@Z 004361a0 f   fltk:Fl_Preferences.obj
 0001:000351e0       ?getEntry@Node@Fl_Preferences@@QAEHPBD@Z 004361e0 f   fltk:Fl_Preferences.obj
 0001:00035240       ?deleteEntry@Node@Fl_Preferences@@QAEDPBD@Z 00436240 f   fltk:Fl_Preferences.obj
 0001:000352c0       ?deleteAllEntries@Node@Fl_Preferences@@QAEXXZ 004362c0 f   fltk:Fl_Preferences.obj
 0001:000353b0       ??0RootNode@Fl_Preferences@@QAE@PAV1@W4Root@1@PBD2@Z 004363b0 f   fltk:Fl_Preferences.obj
 0001:00035820       ??0RootNode@Fl_Preferences@@QAE@PAV1@PBD11@Z 00436820 f   fltk:Fl_Preferences.obj
 0001:00035960       ??0RootNode@Fl_Preferences@@QAE@PAV1@@Z 00436960 f   fltk:Fl_Preferences.obj
 0001:000359a0       ??1RootNode@Fl_Preferences@@QAE@XZ 004369a0 f   fltk:Fl_Preferences.obj
 0001:00035ac0       ?read@RootNode@Fl_Preferences@@QAEHXZ 00436ac0 f   fltk:Fl_Preferences.obj
 0001:00035d30       ?write@RootNode@Fl_Preferences@@QAEHXZ 00436d30 f   fltk:Fl_Preferences.obj
 0001:00035de0       ?getPath@RootNode@Fl_Preferences@@QAEDPADH@Z 00436de0 f   fltk:Fl_Preferences.obj
 0001:00035e90       ??0Fl_Plugin@@QAE@PBD0@Z   00436e90 f   fltk:Fl_Preferences.obj
 0001:00035f20       ??1Fl_Plugin@@UAE@XZ       00436f20 f   fltk:Fl_Preferences.obj
 0001:00035f80       ??0Fl_Plugin_Manager@@QAE@PBD@Z 00436f80 f   fltk:Fl_Preferences.obj
 0001:00036020       ??1Fl_Plugin_Manager@@UAE@XZ 00437020 f   fltk:Fl_Preferences.obj
 0001:00036040       ?plugin@Fl_Plugin_Manager@@QAEPAVFl_Plugin@@H@Z 00437040 f   fltk:Fl_Preferences.obj
 0001:00036100       ?plugin@Fl_Plugin_Manager@@QAEPAVFl_Plugin@@PBD@Z 00437100 f   fltk:Fl_Preferences.obj
 0001:000361d0       ?addPlugin@Fl_Plugin_Manager@@QAEPAXPBDPAVFl_Plugin@@@Z 004371d0 f   fltk:Fl_Preferences.obj
 0001:00036280       ?removePlugin@Fl_Plugin_Manager@@SAXPAX@Z 00437280 f   fltk:Fl_Preferences.obj
 0001:00036290       ?load@Fl_Plugin_Manager@@SAHPBD@Z 00437290 f   fltk:Fl_Preferences.obj
 0001:000362c0       ?loadAll@Fl_Plugin_Manager@@SAHPBD0@Z 004372c0 f   fltk:Fl_Preferences.obj
 0001:000367f0       ??_GFl_Plugin@@UAEPAXI@Z   004377f0 f i fltk:Fl_Preferences.obj
 0001:000367f0       ??_EFl_Plugin@@UAEPAXI@Z   004377f0 f i fltk:Fl_Preferences.obj
 0001:00036820       ??_GFl_Plugin_Manager@@UAEPAXI@Z 00437820 f i fltk:Fl_Preferences.obj
 0001:00036820       ??_EFl_Plugin_Manager@@UAEPAXI@Z 00437820 f i fltk:Fl_Preferences.obj
 0001:00036850       ??_GFl_Preferences@@UAEPAXI@Z 00437850 f i fltk:Fl_Preferences.obj
 0001:00036850       ??_EFl_Preferences@@UAEPAXI@Z 00437850 f i fltk:Fl_Preferences.obj
 0001:00036880       ??0Fl_Graphics_Driver@@IAE@XZ 00437880 f   fltk:Fl_Device.obj
 0001:00036940       ?text_extents@Fl_Graphics_Driver@@UAEXPBDHAAH111@Z 00437940 f   fltk:Fl_Device.obj
 0001:000369b0       ?set_current@Fl_Surface_Device@@UAEXXZ 004379b0 f   fltk:Fl_Device.obj
 0001:000369d0       ??0Fl_Display_Device@@QAE@PAVFl_Graphics_Driver@@@Z 004379d0 f   fltk:Fl_Device.obj
 0001:00036a50       ??1Fl_Surface_Device@@UAE@XZ 00437a50 f i fltk:Fl_Device.obj
 0001:00036a70       ??_EFl_Display_Device@@UAEPAXI@Z 00437a70 f i fltk:Fl_Device.obj
 0001:00036a70       ??_GFl_Display_Device@@UAEPAXI@Z 00437a70 f i fltk:Fl_Device.obj
 0001:00036ab0       ?class_name@Fl_Display_Device@@UAEPBDXZ 00437ab0 f i fltk:Fl_Device.obj
 0001:00036ac0       ?rect@Fl_Graphics_Driver@@MAEXHHHH@Z 00437ac0 f   fltk:fl_rect.obj
 0001:00036b70       ?rectf@Fl_Graphics_Driver@@MAEXHHHH@Z 00437b70 f   fltk:fl_rect.obj
 0001:00036be0       ?xyline@Fl_Graphics_Driver@@MAEXHHH@Z 00437be0 f   fltk:fl_rect.obj
 0001:00036c20       ?xyline@Fl_Graphics_Driver@@MAEXHHHH@Z 00437c20 f   fltk:fl_rect.obj
 0001:00036c90       ?xyline@Fl_Graphics_Driver@@MAEXHHHHH@Z 00437c90 f   fltk:fl_rect.obj
 0001:00036d10       ?yxline@Fl_Graphics_Driver@@MAEXHHH@Z 00437d10 f   fltk:fl_rect.obj
 0001:00036d70       ?yxline@Fl_Graphics_Driver@@MAEXHHHH@Z 00437d70 f   fltk:fl_rect.obj
 0001:00036de0       ?yxline@Fl_Graphics_Driver@@MAEXHHHHH@Z 00437de0 f   fltk:fl_rect.obj
 0001:00036e60       ?line@Fl_Graphics_Driver@@MAEXHHHH@Z 00437e60 f   fltk:fl_rect.obj
 0001:00036ec0       ?line@Fl_Graphics_Driver@@MAEXHHHHHH@Z 00437ec0 f   fltk:fl_rect.obj
 0001:00036f40       ?point@Fl_Graphics_Driver@@MAEXHH@Z 00437f40 f   fltk:fl_rect.obj
 0001:00036f80       ?loop@Fl_Graphics_Driver@@MAEXHHHHHH@Z 00437f80 f   fltk:fl_rect.obj
 0001:00036ff0       ?loop@Fl_Graphics_Driver@@MAEXHHHHHHHH@Z 00437ff0 f   fltk:fl_rect.obj
 0001:00037070       ?polygon@Fl_Graphics_Driver@@MAEXHHHHHH@Z 00438070 f   fltk:fl_rect.obj
 0001:00037120       ?polygon@Fl_Graphics_Driver@@MAEXHHHHHHHH@Z 00438120 f   fltk:fl_rect.obj
 0001:000371e0       ?push_clip@Fl_Graphics_Driver@@MAEXHHHH@Z 004381e0 f   fltk:fl_rect.obj
 0001:000372b0       ?clip_box@Fl_Graphics_Driver@@MAEHHHHHAAH000@Z 004382b0 f   fltk:fl_rect.obj
 0001:00037480       ?not_clipped@Fl_Graphics_Driver@@MAEHHHHH@Z 00438480 f   fltk:fl_rect.obj
 0001:000375a0       ?push_no_clip@Fl_Graphics_Driver@@MAEXXZ 004385a0 f   fltk:fl_rect.obj
 0001:00037600       ?pop_clip@Fl_Graphics_Driver@@MAEXXZ 00438600 f   fltk:fl_rect.obj
 0001:00037670       ?clip_region@Fl_Graphics_Driver@@IAEPAUHRGN__@@XZ 00438670 f   fltk:fl_rect.obj
 0001:00037690       ?clip_region@Fl_Graphics_Driver@@IAEXPAUHRGN__@@@Z 00438690 f   fltk:fl_rect.obj
 0001:000376f0       ?restore_clip@Fl_Graphics_Driver@@IAEXXZ 004386f0 f   fltk:fl_rect.obj
 0001:00037740       ?line_style@Fl_Graphics_Driver@@MAEXHHPAD@Z 00438740 f   fltk:fl_line_style.obj
 0001:000378f0       ?transformed_vertex0@Fl_Graphics_Driver@@AAEXHH@Z 004388f0 f   fltk:fl_vertex.obj
 0001:00037a00       ?fixloop@Fl_Graphics_Driver@@AAEXXZ 00438a00 f   fltk:fl_vertex.obj
 0001:00037a90       ?begin_points@Fl_Graphics_Driver@@MAEXXZ 00438a90 f   fltk:fl_vertex.obj
 0001:00037ac0       ?begin_line@Fl_Graphics_Driver@@MAEXXZ 00438ac0 f   fltk:fl_vertex.obj
 0001:00037af0       ?begin_loop@Fl_Graphics_Driver@@MAEXXZ 00438af0 f   fltk:fl_vertex.obj
 0001:00037b20       ?begin_polygon@Fl_Graphics_Driver@@MAEXXZ 00438b20 f   fltk:fl_vertex.obj
 0001:00037b50       ?vertex@Fl_Graphics_Driver@@MAEXNN@Z 00438b50 f   fltk:fl_vertex.obj
 0001:00037bd0       ?circle@Fl_Graphics_Driver@@MAEXNNN@Z 00438bd0 f   fltk:fl_vertex.obj
 0001:00037e60       ?end_points@Fl_Graphics_Driver@@MAEXXZ 00438e60 f   fltk:fl_vertex.obj
 0001:00037ed0       ?end_line@Fl_Graphics_Driver@@MAEXXZ 00438ed0 f   fltk:fl_vertex.obj
 0001:00037f30       ?end_loop@Fl_Graphics_Driver@@MAEXXZ 00438f30 f   fltk:fl_vertex.obj
 0001:00037fb0       ?end_polygon@Fl_Graphics_Driver@@MAEXXZ 00438fb0 f   fltk:fl_vertex.obj
 0001:00038030       ?begin_complex_polygon@Fl_Graphics_Driver@@MAEXXZ 00439030 f   fltk:fl_vertex.obj
 0001:00038070       ?gap@Fl_Graphics_Driver@@MAEXXZ 00439070 f   fltk:fl_vertex.obj
 0001:000381e0       ?end_complex_polygon@Fl_Graphics_Driver@@MAEXXZ 004391e0 f   fltk:fl_vertex.obj
 0001:00038270       ?transformed_vertex@Fl_Graphics_Driver@@MAEXNN@Z 00439270 f   fltk:fl_vertex.obj
 0001:000382c0       ?push_matrix@Fl_Graphics_Driver@@IAEXXZ 004392c0 f   fltk:fl_vertex.obj
 0001:00038320       ?pop_matrix@Fl_Graphics_Driver@@IAEXXZ 00439320 f   fltk:fl_vertex.obj
 0001:00038380       ?mult_matrix@Fl_Graphics_Driver@@IAEXNNNNNN@Z 00439380 f   fltk:fl_vertex.obj
 0001:000384d0       ?rotate@Fl_Graphics_Driver@@IAEXN@Z 004394d0 f   fltk:fl_vertex.obj
 0001:00038690       ?transform_x@Fl_Graphics_Driver@@IAENNN@Z 00439690 f   fltk:fl_vertex.obj
 0001:000386e0       ?transform_y@Fl_Graphics_Driver@@IAENNN@Z 004396e0 f   fltk:fl_vertex.obj
 0001:00038730       ?transform_dx@Fl_Graphics_Driver@@IAENNN@Z 00439730 f   fltk:fl_vertex.obj
 0001:00038770       ?transform_dy@Fl_Graphics_Driver@@IAENNN@Z 00439770 f   fltk:fl_vertex.obj
 0001:000387b0       ?curve@Fl_Graphics_Driver@@MAEXNNNNNNNN@Z 004397b0 f   fltk:fl_curve.obj
 0001:00038d40       ?arc@Fl_Graphics_Driver@@MAEXNNNNN@Z 00439d40 f   fltk:fl_arc.obj
 0001:000390e0       ?arc@Fl_Graphics_Driver@@MAEXHHHHNN@Z 0043a0e0 f   fltk:fl_arci.obj
 0001:00039320       ?pie@Fl_Graphics_Driver@@MAEXHHHHNN@Z 0043a320 f   fltk:fl_arci.obj
 0001:000395c0       ?draw@Fl_GDI_Graphics_Driver@@UAEXPBDHHH@Z 0043a5c0 f   fltk:fl_font.obj
 0001:000396c0       ?draw@Fl_GDI_Graphics_Driver@@UAEXHPBDHHH@Z 0043a6c0 f   fltk:fl_font.obj
 0001:00039810       ?rtl_draw@Fl_GDI_Graphics_Driver@@UAEXPBDHHH@Z 0043a810 f   fltk:fl_font.obj
 0001:00039950       ?font@Fl_GDI_Graphics_Driver@@UAEXHH@Z 0043a950 f   fltk:fl_font.obj
 0001:00039980       ?width@Fl_GDI_Graphics_Driver@@UAENPBDH@Z 0043a980 f   fltk:fl_font.obj
 0001:00039a30       ?width@Fl_GDI_Graphics_Driver@@UAENI@Z 0043aa30 f   fltk:fl_font.obj
 0001:00039c80       ?text_extents@Fl_GDI_Graphics_Driver@@UAEXPBDHAAH111@Z 0043ac80 f   fltk:fl_font.obj
 0001:0003a140       ?height@Fl_GDI_Graphics_Driver@@UAEHXZ 0043b140 f   fltk:fl_font.obj
 0001:0003a180       ?descent@Fl_GDI_Graphics_Driver@@UAEHXZ 0043b180 f   fltk:fl_font.obj
 0001:0003a1b0       ?fl_width@@YANPBD@Z        0043b1b0 f   fltk:fl_font.obj
 0001:0003a200       ?fl_text_extents@@YAXPBDAAH111@Z 0043b200 f   fltk:fl_font.obj
 0001:0003a280       ?fl_draw@@YAXPBDHH@Z       0043b280 f   fltk:fl_font.obj
 0001:0003a2c0       ?fl_draw@@YAXHPBDHH@Z      0043b2c0 f   fltk:fl_font.obj
 0001:0003a300       ??0Fl_Font_Descriptor@@QAE@PBDH@Z 0043b300 f   fltk:fl_font.obj
 0001:0003a4b0       ??1Fl_Font_Descriptor@@QAE@XZ 0043b4b0 f   fltk:fl_font.obj
 0001:0003a7f0       ?fl_draw@@YAXPBDHMM@Z      0043b7f0 f   fltk:fl_font.obj
 0001:0003a820       ?copy_data@Fl_Pixmap@@AAEXXZ 0043b820 f   fltk:Fl_Pixmap.obj
 0001:0003ab00       ?delete_data@Fl_Pixmap@@AAEXXZ 0043bb00 f   fltk:Fl_Pixmap.obj
 0001:0003ab80       ?set_data@Fl_Pixmap@@AAEXPBQBD@Z 0043bb80 f   fltk:Fl_Pixmap.obj
 0001:0003ac00       ?prepare@Fl_Pixmap@@AAEHHHHHAAH00000@Z 0043bc00 f   fltk:Fl_Pixmap.obj
 0001:0003ae50       ?measure@Fl_Pixmap@@IAEXXZ 0043be50 f   fltk:Fl_Pixmap.obj
 0001:0003aec0       ??1Fl_Pixmap@@UAE@XZ       0043bec0 f   fltk:Fl_Pixmap.obj
 0001:0003af20       ?copy@Fl_Pixmap@@UAEPAVFl_Image@@HH@Z 0043bf20 f   fltk:Fl_Pixmap.obj
 0001:0003b5d0       ?color_average@Fl_Pixmap@@UAEXIM@Z 0043c5d0 f   fltk:Fl_Pixmap.obj
 0001:0003bbf0       ?desaturate@Fl_Pixmap@@UAEXXZ 0043cbf0 f   fltk:Fl_Pixmap.obj
 0001:0003c110       ?draw@Fl_Pixmap@@UAEXHHHHHH@Z 0043d110 f   fltk:Fl_Pixmap.obj
 0001:0003c150       ?label@Fl_Pixmap@@UAEXPAVFl_Widget@@@Z 0043d150 f   fltk:Fl_Pixmap.obj
 0001:0003c170       ?label@Fl_Pixmap@@UAEXPAUFl_Menu_Item@@@Z 0043d170 f   fltk:Fl_Pixmap.obj
 0001:0003c1a0       ?uncache@Fl_Pixmap@@UAEXXZ 0043d1a0 f   fltk:Fl_Pixmap.obj
 0001:0003c1f0       ?draw@Fl_GDI_Graphics_Driver@@UAEXPAVFl_Pixmap@@HHHHHH@Z 0043d1f0 f   fltk:Fl_Pixmap.obj
 0001:0003c330       ?draw@Fl_GDI_Printer_Graphics_Driver@@UAEXPAVFl_Pixmap@@HHHHHH@Z 0043d330 f   fltk:Fl_Pixmap.obj
 0001:0003c5e0       ??0Fl_Pixmap@@QAE@PBQAD@Z  0043d5e0 f i fltk:Fl_Pixmap.obj
 0001:0003c6b0       ??0Fl_Pixmap@@QAE@PBQBD@Z  0043d6b0 f i fltk:Fl_Pixmap.obj
 0001:0003c780       ??_EFl_Pixmap@@UAEPAXI@Z   0043d780 f i fltk:Fl_Pixmap.obj
 0001:0003c780       ??_GFl_Pixmap@@UAEPAXI@Z   0043d780 f i fltk:Fl_Pixmap.obj
 0001:0003c7b0       ___local_stdio_scanf_options 0043d7b0 f i fltk:Fl_Pixmap.obj
 0001:0003c7c0       _sscanf                    0043d7c0 f i fltk:Fl_Pixmap.obj
 0001:0003c810       ?start@Fl_Bitmap@@AAEHHHHHAAH00000@Z 0043d810 f   fltk:Fl_Bitmap.obj
 0001:0003c9c0       ??1Fl_Bitmap@@UAE@XZ       0043d9c0 f   fltk:Fl_Bitmap.obj
 0001:0003ca30       ?copy@Fl_Bitmap@@UAEPAVFl_Image@@HH@Z 0043da30 f   fltk:Fl_Bitmap.obj
 0001:0003ce30       ?draw@Fl_Bitmap@@UAEXHHHHHH@Z 0043de30 f   fltk:Fl_Bitmap.obj
 0001:0003ce70       ?label@Fl_Bitmap@@UAEXPAVFl_Widget@@@Z 0043de70 f   fltk:Fl_Bitmap.obj
 0001:0003ce90       ?label@Fl_Bitmap@@UAEXPAUFl_Menu_Item@@@Z 0043de90 f   fltk:Fl_Bitmap.obj
 0001:0003cec0       ?uncache@Fl_Bitmap@@UAEXXZ 0043dec0 f   fltk:Fl_Bitmap.obj
 0001:0003cef0       ?fl_create_bitmask@@YAPAUHBITMAP__@@HHPBE@Z 0043def0 f   fltk:Fl_Bitmap.obj
 0001:0003d1b0       ?fl_create_alphamask@@YAPAUHBITMAP__@@HHHHPBE@Z 0043e1b0 f   fltk:Fl_Bitmap.obj
 0001:0003d2f0       ?fl_delete_bitmask@@YAXPAUHBITMAP__@@@Z 0043e2f0 f   fltk:Fl_Bitmap.obj
 0001:0003d300       ?draw@Fl_GDI_Graphics_Driver@@UAEXPAVFl_Bitmap@@HHHHHH@Z 0043e300 f   fltk:Fl_Bitmap.obj
 0001:0003d3d0       ?draw@Fl_GDI_Printer_Graphics_Driver@@UAEXPAVFl_Bitmap@@HHHHHH@Z 0043e3d0 f   fltk:Fl_Bitmap.obj
 0001:0003d870       ??_EFl_Bitmap@@UAEPAXI@Z   0043e870 f i fltk:Fl_Bitmap.obj
 0001:0003d870       ??_GFl_Bitmap@@UAEPAXI@Z   0043e870 f i fltk:Fl_Bitmap.obj
 0001:0003d8a0       ?draw_image@Fl_GDI_Graphics_Driver@@UAEXPBEHHHHHH@Z 0043e8a0 f   fltk:fl_draw_image.obj
 0001:0003d950       ?draw_image@Fl_GDI_Graphics_Driver@@UAEXP6AXPAXHHHPAE@Z0HHHHH@Z 0043e950 f   fltk:fl_draw_image.obj
 0001:0003da10       ?draw_image_mono@Fl_GDI_Graphics_Driver@@UAEXPBEHHHHHH@Z 0043ea10 f   fltk:fl_draw_image.obj
 0001:0003daa0       ?draw_image_mono@Fl_GDI_Graphics_Driver@@UAEXP6AXPAXHHHPAE@Z0HHHHH@Z 0043eaa0 f   fltk:fl_draw_image.obj
 0001:0003db30       ?fl_rectf@@YAXHHHHEEE@Z    0043eb30 f   fltk:fl_draw_image.obj
 0001:0003e6f0       ?fl_read_image@@YAPAEPAEHHHHH@Z 0043f6f0 f   fltk:fl_read_image.obj
 0001:0003ea00       ?get_system_colors@Fl@@SAXXZ 0043fa00 f   fltk:Fl_get_system_colors.obj
 0001:0003ea80       ?foreground@Fl@@SAXEEE@Z   0043fa80 f   fltk:Fl_get_system_colors.obj
 0001:0003eab0       ?background@Fl@@SAXEEE@Z   0043fab0 f   fltk:Fl_get_system_colors.obj
 0001:0003ed40       ?background2@Fl@@SAXEEE@Z  0043fd40 f   fltk:Fl_get_system_colors.obj
 0001:0003ed90       ?scheme@Fl@@SAHPBD@Z       0043fd90 f   fltk:Fl_get_system_colors.obj
 0001:0003eee0       ?reload_scheme@Fl@@SAHXZ   0043fee0 f   fltk:Fl_get_system_colors.obj
 0001:0003f570       ?fl_parse_color@@YAHPBDAAE11@Z 00440570 f   fltk:Fl_get_system_colors.obj
 0001:0003f880       ?border@Fl_Window@@QAEXH@Z 00440880 f   fltk:Fl_Window_fullscreen.obj
 0001:0003f910       ?fullscreen@Fl_Window@@QAEXXZ 00440910 f   fltk:Fl_Window_fullscreen.obj
 0001:0003f9c0       ?fullscreen_off@Fl_Window@@QAEXXZ 004409c0 f   fltk:Fl_Window_fullscreen.obj
 0001:0003fa30       ?fullscreen_off@Fl_Window@@QAEXHHHH@Z 00440a30 f   fltk:Fl_Window_fullscreen.obj
 0001:0003fad0       ?fullscreen_screens@Fl_Window@@QAEXHHHH@Z 00440ad0 f   fltk:Fl_Window_fullscreen.obj
 0001:0003fb80       ?dnd@Fl@@SAHXZ             00440b80 f   fltk:fl_dnd.obj
 0001:0003fcc0       ??_EFLDataObject@@UAEPAXI@Z 00440cc0 f i fltk:fl_dnd.obj
 0001:0003fcc0       ??_GFLDataObject@@UAEPAXI@Z 00440cc0 f i fltk:fl_dnd.obj
 0001:0003fcf0       ??_EFLDropSource@@UAEPAXI@Z 00440cf0 f i fltk:fl_dnd.obj
 0001:0003fcf0       ??_GFLDropSource@@UAEPAXI@Z 00440cf0 f i fltk:fl_dnd.obj
 0001:0003fd20       ??_EFLDropTarget@@UAEPAXI@Z 00440d20 f i fltk:fl_dnd.obj
 0001:0003fd20       ??_GFLDropTarget@@UAEPAXI@Z 00440d20 f i fltk:fl_dnd.obj
 0001:0003fd50       ?AddRef@FLDataObject@@UAGKXZ 00440d50 f i fltk:fl_dnd.obj
 0001:0003fd80       ?AddRef@FLDropSource@@UAGKXZ 00440d80 f i fltk:fl_dnd.obj
 0001:0003fdb0       ?AddRef@FLDropTarget@@UAGKXZ 00440db0 f i fltk:fl_dnd.obj
 0001:0003fde0       ?DAdvise@FLDataObject@@UAGJPAUtagFORMATETC@@KPAUIAdviseSink@@PAK@Z 00440de0 f i fltk:fl_dnd.obj
 0001:0003fdf0       ?DUnadvise@FLDataObject@@UAGJK@Z 00440df0 f i fltk:fl_dnd.obj
 0001:0003fe00       ?DragEnter@FLDropTarget@@UAGJPAUIDataObject@@KU_POINTL@@PAK@Z 00440e00 f i fltk:fl_dnd.obj
 0001:0003ff00       ?DragLeave@FLDropTarget@@UAGJXZ 00440f00 f i fltk:fl_dnd.obj
 0001:0003ff80       ?DragOver@FLDropTarget@@UAGJKU_POINTL@@PAK@Z 00440f80 f i fltk:fl_dnd.obj
 0001:00040090       ?Drop@FLDropTarget@@UAGJPAUIDataObject@@KU_POINTL@@PAK@Z 00441090 f i fltk:fl_dnd.obj
 0001:00040290       ?EnumDAdvise@FLDataObject@@UAGJPAPAUIEnumSTATDATA@@@Z 00441290 f i fltk:fl_dnd.obj
 0001:000402a0       ?EnumFormatEtc@FLDataObject@@UAGJKPAPAUIEnumFORMATETC@@@Z 004412a0 f i fltk:fl_dnd.obj
 0001:000402b0       ?GetCanonicalFormatEtc@FLDataObject@@UAGJPAUtagFORMATETC@@0@Z 004412b0 f i fltk:fl_dnd.obj
 0001:000402c0       ?GetData@FLDataObject@@UAGJPAUtagFORMATETC@@PAUtagSTGMEDIUM@@@Z 004412c0 f i fltk:fl_dnd.obj
 0001:000403b0       ?GetDataHere@FLDataObject@@UAGJPAUtagFORMATETC@@PAUtagSTGMEDIUM@@@Z 004413b0 f i fltk:fl_dnd.obj
 0001:000403c0       ?GiveFeedback@FLDropSource@@UAGJK@Z 004413c0 f i fltk:fl_dnd.obj
 0001:000403d0       ?QueryContinueDrag@FLDropSource@@UAGJHK@Z 004413d0 f i fltk:fl_dnd.obj
 0001:00040400       ?QueryGetData@FLDataObject@@UAGJPAUtagFORMATETC@@@Z 00441400 f i fltk:fl_dnd.obj
 0001:00040440       ?QueryInterface@FLDataObject@@UAGJABU_GUID@@PAPAX@Z 00441440 f i fltk:fl_dnd.obj
 0001:00040510       ?QueryInterface@FLDropSource@@UAGJABU_GUID@@PAPAX@Z 00441510 f i fltk:fl_dnd.obj
 0001:000405e0       ?QueryInterface@FLDropTarget@@UAGJABU_GUID@@PAPAX@Z 004415e0 f i fltk:fl_dnd.obj
 0001:000406b0       ?Release@FLDataObject@@UAGKXZ 004416b0 f i fltk:fl_dnd.obj
 0001:00040710       ?Release@FLDropSource@@UAGKXZ 00441710 f i fltk:fl_dnd.obj
 0001:00040770       ?Release@FLDropTarget@@UAGKXZ 00441770 f i fltk:fl_dnd.obj
 0001:000407d0       ?SetData@FLDataObject@@UAGJPAUtagFORMATETC@@PAUtagSTGMEDIUM@@H@Z 004417d0 f i fltk:fl_dnd.obj
 0001:000407e0       ?fillCurrentDragData@FLDropTarget@@CADPAUIDataObject@@@Z 004417e0 f i fltk:fl_dnd.obj
 0001:00040c30       _fl_utf8len                00441c30 f   fltk:fl_utf8.obj
 0001:00040ca0       _fl_utf8len1               00441ca0 f   fltk:fl_utf8.obj
 0001:00040d10       _fl_utf_nb_char            00441d10 f   fltk:fl_utf8.obj
 0001:00040d80       _fl_nonspacing             00441d80 f   fltk:fl_utf8.obj
 0001:00040da0       _fl_utf2mbcs               00441da0 f   fltk:fl_utf8.obj
 0001:00040e80       _fl_utf8_to_locale         00441e80 f   fltk:fl_utf8.obj
 0001:00040fa0       _fl_locale_to_utf8         00441fa0 f   fltk:fl_utf8.obj
 0001:000410b0       _fl_utf_strncasecmp        004420b0 f   fltk:fl_utf8.obj
 0001:00041160       _fl_utf_strcasecmp         00442160 f   fltk:fl_utf8.obj
 0001:00041180       _fl_tolower                00442180 f   fltk:fl_utf8.obj
 0001:000411a0       _fl_toupper                004421a0 f   fltk:fl_utf8.obj
 0001:000411c0       _fl_utf_tolower            004421c0 f   fltk:fl_utf8.obj
 0001:00041260       _fl_utf_toupper            00442260 f   fltk:fl_utf8.obj
 0001:00041300       _fl_chmod                  00442300 f   fltk:fl_utf8.obj
 0001:00041390       _fl_access                 00442390 f   fltk:fl_utf8.obj
 0001:00041420       _fl_stat                   00442420 f   fltk:fl_utf8.obj
 0001:000414b0       _fl_getcwd                 004424b0 f   fltk:fl_utf8.obj
 0001:00041560       _fl_fopen                  00442560 f   fltk:fl_utf8.obj
 0001:00041660       _fl_system                 00442660 f   fltk:fl_utf8.obj
 0001:000416f0       _fl_execvp                 004426f0 f   fltk:fl_utf8.obj
 0001:000418c0       _fl_open                   004428c0 f   fltk:fl_utf8.obj
 0001:00041a00       _fl_unlink                 00442a00 f   fltk:fl_utf8.obj
 0001:00041a90       _fl_rmdir                  00442a90 f   fltk:fl_utf8.obj
 0001:00041b20       _fl_getenv                 00442b20 f   fltk:fl_utf8.obj
 0001:00041c30       _fl_mkdir                  00442c30 f   fltk:fl_utf8.obj
 0001:00041cc0       _fl_rename                 00442cc0 f   fltk:fl_utf8.obj
 0001:00041dc0       _fl_make_path_for_file     00442dc0 f   fltk:fl_utf8.obj
 0001:00041e40       _fl_make_path              00442e40 f   fltk:fl_utf8.obj
 0001:00041fa0       ??$__vcrt_va_start_verify_argument_type@H@@YAXXZ 00442fa0 f i fltk:fl_utf8.obj
 0001:00041fb0       _fl_snprintf               00442fb0 f   fltk:vsnprintf.obj
 0001:00041ff0       _fl_vsnprintf              00442ff0 f   fltk:vsnprintf.obj
 0001:00042a80       ?grab@Fl@@SAXPAVFl_Window@@@Z 00443a80 f   fltk:Fl_grab.obj
 0001:00042b20       ?test_shortcut@Fl@@SAHI@Z  00443b20 f   fltk:fl_shortcut.obj
 0001:00042c40       ?test_shortcut@Fl_Widget@@QAEHXZ 00443c40 f   fltk:fl_shortcut.obj
 0001:00042c80       ?label_shortcut@Fl_Widget@@SAIPBD@Z 00443c80 f   fltk:fl_shortcut.obj
 0001:00042cf0       ?test_shortcut@Fl_Widget@@SAHPBD_N@Z 00443cf0 f   fltk:fl_shortcut.obj
 0001:00042d80       ?fl_old_shortcut@@YAIPBD@Z 00443d80 f   fltk:fl_shortcut.obj
 0001:00042ed0       ?fl_shortcut_label@@YAPBDI@Z 00443ed0 f   fltk:fl_shortcut.obj
 0001:00042ef0       ?fl_shortcut_label@@YAPBDIPAPBD@Z 00443ef0 f   fltk:fl_shortcut.obj
 0001:00043190       ?draw@Fl_Box@@MAEXXZ       00444190 f   fltk:Fl_Box.obj
 0001:000431b0       ??0Fl_Box@@QAE@HHHHPBD@Z   004441b0 f   fltk:Fl_Box.obj
 0001:000431f0       ??0Fl_Box@@QAE@W4Fl_Boxtype@@HHHHPBD@Z 004441f0 f   fltk:Fl_Box.obj
 0001:00043230       ?handle@Fl_Box@@UAEHH@Z    00444230 f   fltk:Fl_Box.obj
 0001:00043260       ??_GFl_Box@@UAEPAXI@Z      00444260 f i fltk:Fl_Box.obj
 0001:00043260       ??_EFl_Box@@UAEPAXI@Z      00444260 f i fltk:Fl_Box.obj
 0001:00043290       ?draw@Fl_Return_Button@@MAEXXZ 00444290 f   fltk:Fl_Return_Button.obj
 0001:00043430       ?handle@Fl_Return_Button@@UAEHH@Z 00444430 f   fltk:Fl_Return_Button.obj
 0001:00043490       ??0Fl_Return_Button@@QAE@HHHHPBD@Z 00444490 f   fltk:Fl_Return_Button.obj
 0001:000434d0       ?fl_return_arrow@@YAHHHHH@Z 004444d0 f   fltk:Fl_Return_Button.obj
 0001:00043690       ??_EFl_Return_Button@@UAEPAXI@Z 00444690 f i fltk:Fl_Return_Button.obj
 0001:00043690       ??_GFl_Return_Button@@UAEPAXI@Z 00444690 f i fltk:Fl_Return_Button.obj
 0001:000436c0       ?hotspot@Fl_Window@@QAEXHHH@Z 004446c0 f   fltk:Fl_Window_hotspot.obj
 0001:000438d0       ?hotspot@Fl_Window@@QAEXPBVFl_Widget@@H@Z 004448d0 f   fltk:Fl_Window_hotspot.obj
 0001:00043960       ?expand@Fl_Input_@@ABEPBDPBDPAD@Z 00444960 f   fltk:Fl_Input_.obj
 0001:00043c20       ?expandpos@Fl_Input_@@ABENPBD00PAH@Z 00444c20 f   fltk:Fl_Input_.obj
 0001:00043da0       ?minimal_update@Fl_Input_@@AAEXHH@Z 00444da0 f   fltk:Fl_Input_.obj
 0001:00043dd0       ?minimal_update@Fl_Input_@@AAEXH@Z 00444dd0 f   fltk:Fl_Input_.obj
 0001:00043e40       ?put_in_buffer@Fl_Input_@@AAEXH@Z 00444e40 f   fltk:Fl_Input_.obj
 0001:00043fc0       ?setfont@Fl_Input_@@ABEXXZ 00444fc0 f   fltk:Fl_Input_.obj
 0001:00044010       ?word_start@Fl_Input_@@IBEHH@Z 00445010 f   fltk:Fl_Input_.obj
 0001:000440a0       ?word_end@Fl_Input_@@IBEHH@Z 004450a0 f   fltk:Fl_Input_.obj
 0001:00044140       ?line_start@Fl_Input_@@IBEHH@Z 00445140 f   fltk:Fl_Input_.obj
 0001:00044290       ?line_end@Fl_Input_@@IBEHH@Z 00445290 f   fltk:Fl_Input_.obj
 0001:00044420       ?drawtext@Fl_Input_@@IAEXHHHH@Z 00445420 f   fltk:Fl_Input_.obj
 0001:00045740       ?up_down_position@Fl_Input_@@IAEHHH@Z 00446740 f   fltk:Fl_Input_.obj
 0001:000458e0       ?handle_mouse@Fl_Input_@@IAEXHHHHH@Z 004468e0 f   fltk:Fl_Input_.obj
 0001:00046010       ?handletext@Fl_Input_@@IAEHHHHHH@Z 00447010 f   fltk:Fl_Input_.obj
 0001:00046720       ?maybe_do_callback@Fl_Input_@@IAEXXZ 00447720 f   fltk:Fl_Input_.obj
 0001:00046760       ?linesPerPage@Fl_Input_@@IAEHXZ 00447760 f   fltk:Fl_Input_.obj
 0001:00046800       ?resize@Fl_Input_@@UAEXHHHH@Z 00447800 f   fltk:Fl_Input_.obj
 0001:00046860       ??0Fl_Input_@@QAE@HHHHPBD@Z 00447860 f   fltk:Fl_Input_.obj
 0001:00046990       ??1Fl_Input_@@UAE@XZ       00447990 f   fltk:Fl_Input_.obj
 0001:000469e0       ?value@Fl_Input_@@QAEHPBD@Z 004479e0 f   fltk:Fl_Input_.obj
 0001:00046a20       ?value@Fl_Input_@@QAEHPBDH@Z 00447a20 f   fltk:Fl_Input_.obj
 0001:00046a60       ?static_value@Fl_Input_@@QAEHPBD@Z 00447a60 f   fltk:Fl_Input_.obj
 0001:00046aa0       ?static_value@Fl_Input_@@QAEHPBDH@Z 00447aa0 f   fltk:Fl_Input_.obj
 0001:00046c30       ?index@Fl_Input_@@QBEIH@Z  00447c30 f   fltk:Fl_Input_.obj
 0001:00046c70       ?position@Fl_Input_@@QAEHHH@Z 00447c70 f   fltk:Fl_Input_.obj
 0001:00046f80       ?replace@Fl_Input_@@QAEHHHPBDH@Z 00447f80 f   fltk:Fl_Input_.obj
 0001:000475c0       ?copy@Fl_Input_@@QAEHH@Z   004485c0 f   fltk:Fl_Input_.obj
 0001:00047650       ?undo@Fl_Input_@@QAEHXZ    00448650 f   fltk:Fl_Input_.obj
 0001:00047850       ?copy_cuts@Fl_Input_@@QAEHXZ 00448850 f   fltk:Fl_Input_.obj
 0001:000479e0       ??_EFl_Input_@@UAEPAXI@Z   004489e0 f i fltk:Fl_Input_.obj
 0001:000479e0       ??_GFl_Input_@@UAEPAXI@Z   004489e0 f i fltk:Fl_Input_.obj
 0001:00047a20       ?handle_key@Fl_Input@@AAEHXZ 00448a20 f   fltk:Fl_Input.obj
 0001:00048530       ?shift_position@Fl_Input@@AAEHH@Z 00449530 f   fltk:Fl_Input.obj
 0001:00048580       ?shift_up_down_position@Fl_Input@@AAEHH@Z 00449580 f   fltk:Fl_Input.obj
 0001:000485b0       ?kf_lines_up@Fl_Input@@AAEHH@Z 004495b0 f   fltk:Fl_Input.obj
 0001:00048650       ?kf_lines_down@Fl_Input@@AAEHH@Z 00449650 f   fltk:Fl_Input.obj
 0001:00048700       ?kf_page_up@Fl_Input@@AAEHXZ 00449700 f   fltk:Fl_Input.obj
 0001:00048720       ?kf_page_down@Fl_Input@@AAEHXZ 00449720 f   fltk:Fl_Input.obj
 0001:00048740       ?kf_insert_toggle@Fl_Input@@AAEHXZ 00449740 f   fltk:Fl_Input.obj
 0001:00048780       ?kf_delete_word_right@Fl_Input@@AAEHXZ 00449780 f   fltk:Fl_Input.obj
 0001:00048830       ?kf_delete_word_left@Fl_Input@@AAEHXZ 00449830 f   fltk:Fl_Input.obj
 0001:000488e0       ?kf_delete_sol@Fl_Input@@AAEHXZ 004498e0 f   fltk:Fl_Input.obj
 0001:00048990       ?kf_delete_eol@Fl_Input@@AAEHXZ 00449990 f   fltk:Fl_Input.obj
 0001:00048a40       ?kf_delete_char_right@Fl_Input@@AAEHXZ 00449a40 f   fltk:Fl_Input.obj
 0001:00048ae0       ?kf_delete_char_left@Fl_Input@@AAEHXZ 00449ae0 f   fltk:Fl_Input.obj
 0001:00048b80       ?kf_move_sol@Fl_Input@@AAEHXZ 00449b80 f   fltk:Fl_Input.obj
 0001:00048bd0       ?kf_move_eol@Fl_Input@@AAEHXZ 00449bd0 f   fltk:Fl_Input.obj
 0001:00048c20       ?kf_clear_eol@Fl_Input@@AAEHXZ 00449c20 f   fltk:Fl_Input.obj
 0001:00048ce0       ?kf_move_char_left@Fl_Input@@AAEHXZ 00449ce0 f   fltk:Fl_Input.obj
 0001:00048d50       ?kf_move_char_right@Fl_Input@@AAEHXZ 00449d50 f   fltk:Fl_Input.obj
 0001:00048dc0       ?kf_move_word_left@Fl_Input@@AAEHXZ 00449dc0 f   fltk:Fl_Input.obj
 0001:00048df0       ?kf_move_word_right@Fl_Input@@AAEHXZ 00449df0 f   fltk:Fl_Input.obj
 0001:00048e20       ?kf_move_up_and_sol@Fl_Input@@AAEHXZ 00449e20 f   fltk:Fl_Input.obj
 0001:00048ef0       ?kf_move_down_and_eol@Fl_Input@@AAEHXZ 00449ef0 f   fltk:Fl_Input.obj
 0001:00048fd0       ?kf_top@Fl_Input@@AAEHXZ   00449fd0 f   fltk:Fl_Input.obj
 0001:00048ff0       ?kf_bottom@Fl_Input@@AAEHXZ 00449ff0 f   fltk:Fl_Input.obj
 0001:00049020       ?kf_select_all@Fl_Input@@AAEHXZ 0044a020 f   fltk:Fl_Input.obj
 0001:00049050       ?kf_undo@Fl_Input@@AAEHXZ  0044a050 f   fltk:Fl_Input.obj
 0001:00049090       ?kf_redo@Fl_Input@@AAEHXZ  0044a090 f   fltk:Fl_Input.obj
 0001:000490d0       ?kf_copy@Fl_Input@@AAEHXZ  0044a0d0 f   fltk:Fl_Input.obj
 0001:000490f0       ?kf_paste@Fl_Input@@AAEHXZ 0044a0f0 f   fltk:Fl_Input.obj
 0001:00049140       ?kf_copy_cut@Fl_Input@@AAEHXZ 0044a140 f   fltk:Fl_Input.obj
 0001:000491a0       ?draw@Fl_Input@@MAEXXZ     0044a1a0 f   fltk:Fl_Input.obj
 0001:00049270       ?handle@Fl_Input@@UAEHH@Z  0044a270 f   fltk:Fl_Input.obj
 0001:00049b30       ??0Fl_Input@@QAE@HHHHPBD@Z 0044ab30 f   fltk:Fl_Input.obj
 0001:00049b70       ??0Fl_Float_Input@@QAE@HHHHPBD@Z 0044ab70 f   fltk:Fl_Input.obj
 0001:00049bc0       ??0Fl_Int_Input@@QAE@HHHHPBD@Z 0044abc0 f   fltk:Fl_Input.obj
 0001:00049c10       ??0Fl_Multiline_Input@@QAE@HHHHPBD@Z 0044ac10 f   fltk:Fl_Input.obj
 0001:00049c50       ??0Fl_Output@@QAE@HHHHPBD@Z 0044ac50 f   fltk:Fl_Input.obj
 0001:00049c90       ??0Fl_Multiline_Output@@QAE@HHHHPBD@Z 0044ac90 f   fltk:Fl_Input.obj
 0001:00049cd0       ??0Fl_Secret_Input@@QAE@HHHHPBD@Z 0044acd0 f   fltk:Fl_Input.obj
 0001:00049d20       ?handle@Fl_Secret_Input@@UAEHH@Z 0044ad20 f   fltk:Fl_Input.obj
 0001:00049d50       ??_GFl_Float_Input@@UAEPAXI@Z 0044ad50 f i fltk:Fl_Input.obj
 0001:00049d50       ??_EFl_Float_Input@@UAEPAXI@Z 0044ad50 f i fltk:Fl_Input.obj
 0001:00049d90       ??_GFl_Input@@UAEPAXI@Z    0044ad90 f i fltk:Fl_Input.obj
 0001:00049d90       ??_EFl_Input@@UAEPAXI@Z    0044ad90 f i fltk:Fl_Input.obj
 0001:00049dd0       ??_EFl_Int_Input@@UAEPAXI@Z 0044add0 f i fltk:Fl_Input.obj
 0001:00049dd0       ??_GFl_Int_Input@@UAEPAXI@Z 0044add0 f i fltk:Fl_Input.obj
 0001:00049e10       ??_GFl_Multiline_Input@@UAEPAXI@Z 0044ae10 f i fltk:Fl_Input.obj
 0001:00049e10       ??_EFl_Multiline_Input@@UAEPAXI@Z 0044ae10 f i fltk:Fl_Input.obj
 0001:00049e50       ??_EFl_Multiline_Output@@UAEPAXI@Z 0044ae50 f i fltk:Fl_Input.obj
 0001:00049e50       ??_GFl_Multiline_Output@@UAEPAXI@Z 0044ae50 f i fltk:Fl_Input.obj
 0001:00049e90       ??_GFl_Output@@UAEPAXI@Z   0044ae90 f i fltk:Fl_Input.obj
 0001:00049e90       ??_EFl_Output@@UAEPAXI@Z   0044ae90 f i fltk:Fl_Input.obj
 0001:00049ed0       ??_EFl_Secret_Input@@UAEPAXI@Z 0044aed0 f i fltk:Fl_Input.obj
 0001:00049ed0       ??_GFl_Secret_Input@@UAEPAXI@Z 0044aed0 f i fltk:Fl_Input.obj
 0001:00049f10       ?fl_height@@YAHHH@Z        0044af10 f   fltk:fl_draw.obj
 0001:00049fe0       ?fl_measure@@YAXPBDAAH1H@Z 0044afe0 f   fltk:fl_draw.obj
 0001:0004a350       ?fl_draw@@YAXPBDHHHHIPAVFl_Image@@H@Z 0044b350 f   fltk:fl_draw.obj
 0001:0004a430       ?fl_draw@@YAXPBDHHHHIP6AX0HHH@ZPAVFl_Image@@H@Z 0044b430 f   fltk:fl_draw.obj
 0001:0004b420       ?fl_expand_text@@YAPBDPBDPADHNAAHAANHH@Z 0044c420 f   fltk:fl_draw.obj
 0001:0004b830       ?fl_draw@@YAXPBDHHH@Z      0044c830 f i fltk:fl_draw.obj
 0001:0004b860       ?shape_bitmap_@Fl_Window@@AAEXPAVFl_Bitmap@@@Z 0044c860 f   fltk:Fl_Window_shape.obj
 0001:0004b880       ?shape_alpha_@Fl_Window@@AAEXPAVFl_RGB_Image@@H@Z 0044c880 f   fltk:Fl_Window_shape.obj
 0001:0004baa0       ?shape_pixmap_@Fl_Window@@AAEXPAVFl_Pixmap@@@Z 0044caa0 f   fltk:Fl_Window_shape.obj
 0001:0004bb60       ?shape@Fl_Window@@QAEXPBVFl_Image@@@Z 0044cb60 f   fltk:Fl_Window_shape.obj
 0001:0004bb70       ?draw@Fl_Window@@MAEXXZ    0044cb70 f   fltk:Fl_Window_shape.obj
 0001:0004bfd0       ?get_boxtype@Fl@@SAP6AXHHHHI@ZW4Fl_Boxtype@@@Z 0044cfd0 f   fltk:fl_boxtype.obj
 0001:0004bfe0       ?set_boxtype@Fl@@SAXW4Fl_Boxtype@@P6AXHHHHI@ZEEEE@Z 0044cfe0 f   fltk:fl_boxtype.obj
 0001:0004c040       ?set_boxtype@Fl@@SAXW4Fl_Boxtype@@0@Z 0044d040 f   fltk:fl_boxtype.obj
 0001:0004c070       ?box_dx@Fl@@SAHW4Fl_Boxtype@@@Z 0044d070 f   fltk:fl_boxtype.obj
 0001:0004c080       ?box_dy@Fl@@SAHW4Fl_Boxtype@@@Z 0044d080 f   fltk:fl_boxtype.obj
 0001:0004c090       ?box_dw@Fl@@SAHW4Fl_Boxtype@@@Z 0044d090 f   fltk:fl_boxtype.obj
 0001:0004c0a0       ?box_dh@Fl@@SAHW4Fl_Boxtype@@@Z 0044d0a0 f   fltk:fl_boxtype.obj
 0001:0004c0b0       ?draw_box_active@Fl@@SAHXZ 0044d0b0 f   fltk:fl_boxtype.obj
 0001:0004c0c0       ?draw_box@Fl_Widget@@IBEXXZ 0044d0c0 f   fltk:fl_boxtype.obj
 0001:0004c120       ?draw_box@Fl_Widget@@IBEXW4Fl_Boxtype@@I@Z 0044d120 f   fltk:fl_boxtype.obj
 0001:0004c160       ?draw_box@Fl_Widget@@IBEXW4Fl_Boxtype@@HHHHI@Z 0044d160 f   fltk:fl_boxtype.obj
 0001:0004c1b0       ?draw_backdrop@Fl_Widget@@IBEXXZ 0044d1b0 f   fltk:fl_boxtype.obj
 0001:0004c290       ?fl_frame@@YAXPBDHHHH@Z    0044d290 f   fltk:fl_boxtype.obj
 0001:0004c490       ?fl_frame2@@YAXPBDHHHH@Z   0044d490 f   fltk:fl_boxtype.obj
 0001:0004c690       ?fl_draw_box@@YAXW4Fl_Boxtype@@HHHHI@Z 0044d690 f   fltk:fl_boxtype.obj
 0001:0004c6d0       ?fl_gray_ramp@@YAPBEXZ     0044d6d0 f   fltk:fl_boxtype.obj
 0001:0004c700       ?fl_no_box@@YAXHHHHI@Z     0044d700 f   fltk:fl_boxtype.obj
 0001:0004c710       ?fl_thin_down_frame@@YAXHHHHI@Z 0044d710 f   fltk:fl_boxtype.obj
 0001:0004c740       ?fl_thin_down_box@@YAXHHHHI@Z 0044d740 f   fltk:fl_boxtype.obj
 0001:0004c7d0       ?fl_thin_up_frame@@YAXHHHHI@Z 0044d7d0 f   fltk:fl_boxtype.obj
 0001:0004c800       ?fl_thin_up_box@@YAXHHHHI@Z 0044d800 f   fltk:fl_boxtype.obj
 0001:0004c890       ?fl_up_frame@@YAXHHHHI@Z   0044d890 f   fltk:fl_boxtype.obj
 0001:0004c8c0       ?fl_up_box@@YAXHHHHI@Z     0044d8c0 f   fltk:fl_boxtype.obj
 0001:0004c950       ?fl_down_frame@@YAXHHHHI@Z 0044d950 f   fltk:fl_boxtype.obj
 0001:0004c980       ?fl_down_box@@YAXHHHHI@Z   0044d980 f   fltk:fl_boxtype.obj
 0001:0004c9f0       ?fl_engraved_frame@@YAXHHHHI@Z 0044d9f0 f   fltk:fl_boxtype.obj
 0001:0004ca20       ?fl_engraved_box@@YAXHHHHI@Z 0044da20 f   fltk:fl_boxtype.obj
 0001:0004cab0       ?fl_embossed_frame@@YAXHHHHI@Z 0044dab0 f   fltk:fl_boxtype.obj
 0001:0004cae0       ?fl_embossed_box@@YAXHHHHI@Z 0044dae0 f   fltk:fl_boxtype.obj
 0001:0004cb70       ?fl_rectbound@@YAXHHHHI@Z  0044db70 f   fltk:fl_boxtype.obj
 0001:0004cc40       ?fl_border_frame@@YAXHHHHI@Z 0044dc40 f   fltk:fl_boxtype.obj
 0001:0004ccb0       ?fl_internal_boxtype@@YAXW4Fl_Boxtype@@P6AXHHHHI@Z@Z 0044dcb0 f   fltk:fl_boxtype.obj
 0001:0004cce0       ?fl_rectf@@YAXHHHHI@Z      0044dce0 f i fltk:fl_boxtype.obj
 0001:0004cd20       ?draw@Fl_Menu_Button@@MAEXXZ 0044dd20 f   fltk:Fl_Menu_Button.obj
 0001:0004cf80       ?handle@Fl_Menu_Button@@UAEHH@Z 0044df80 f   fltk:Fl_Menu_Button.obj
 0001:0004d190       ?popup@Fl_Menu_Button@@QAEPBUFl_Menu_Item@@XZ 0044e190 f   fltk:Fl_Menu_Button.obj
 0001:0004d300       ??0Fl_Menu_Button@@QAE@HHHHPBD@Z 0044e300 f   fltk:Fl_Menu_Button.obj
 0001:0004d340       ??_EFl_Menu_Button@@UAEPAXI@Z 0044e340 f i fltk:Fl_Menu_Button.obj
 0001:0004d340       ??_GFl_Menu_Button@@UAEPAXI@Z 0044e340 f i fltk:Fl_Menu_Button.obj
 0001:0004d370       ?repeat_callback@Fl_Repeat_Button@@CAXPAX@Z 0044e370 f   fltk:Fl_Repeat_Button.obj
 0001:0004d3c0       ?handle@Fl_Repeat_Button@@UAEHH@Z 0044e3c0 f   fltk:Fl_Repeat_Button.obj
 0001:0004d4f0       ??0Fl_Repeat_Button@@QAE@HHHHPBD@Z 0044e4f0 f   fltk:Fl_Repeat_Button.obj
 0001:0004d530       ??_GFl_Repeat_Button@@UAEPAXI@Z 0044e530 f i fltk:Fl_Repeat_Button.obj
 0001:0004d530       ??_EFl_Repeat_Button@@UAEPAXI@Z 0044e530 f i fltk:Fl_Repeat_Button.obj
 0001:0004d560       ?next@Fl_Menu_Item@@QBEPBU1@H@Z 0044e560 f   fltk:Fl_Menu.obj
 0001:0004d600       ?measure@Fl_Menu_Item@@QBEHPAHPBVFl_Menu_@@@Z 0044e600 f   fltk:Fl_Menu.obj
 0001:0004d720       ?draw@Fl_Menu_Item@@QBEXHHHHPBVFl_Menu_@@H@Z 0044e720 f   fltk:Fl_Menu.obj
 0001:0004e020       ?popup@Fl_Menu_Item@@QBEPBU1@HHPBDPBU1@PBVFl_Menu_@@@Z 0044f020 f   fltk:Fl_Menu.obj
 0001:0004e070       ?pulldown@Fl_Menu_Item@@QBEPBU1@HHHHPBU1@PBVFl_Menu_@@0H@Z 0044f070 f   fltk:Fl_Menu.obj
 0001:0004eb50       ?test_shortcut@Fl_Menu_Item@@QBEPBU1@XZ 0044fb50 f   fltk:Fl_Menu.obj
 0001:0004ec10       ?find_shortcut@Fl_Menu_Item@@QBEPBU1@PAH_N@Z 0044fc10 f   fltk:Fl_Menu.obj
 0001:0004ecc0       ?size@Fl_Menu_Item@@QBEHXZ 0044fcc0 f   fltk:Fl_Menu.obj
 0001:0004ed90       ?draw@menutitle@@EAEXXZ    0044fd90 f   fltk:Fl_Menu.obj
 0001:0004ede0       ??0menutitle@@QAE@HHHHPBUFl_Menu_Item@@@Z 0044fde0 f   fltk:Fl_Menu.obj
 0001:0004eec0       ?draw@menuwindow@@EAEXXZ   0044fec0 f   fltk:Fl_Menu.obj
 0001:0004f040       ?drawentry@menuwindow@@AAEXPBUFl_Menu_Item@@HH@Z 00450040 f   fltk:Fl_Menu.obj
 0001:0004f4b0       ?handle@menuwindow@@UAEHH@Z 004504b0 f   fltk:Fl_Menu.obj
 0001:0004fb20       ??0menuwindow@@QAE@PBUFl_Menu_Item@@HHHH00HHH@Z 00450b20 f   fltk:Fl_Menu.obj
 0001:00050340       ??1menuwindow@@UAE@XZ      00451340 f   fltk:Fl_Menu.obj
 0001:000503d0       ?set_selected@menuwindow@@QAEXH@Z 004513d0 f   fltk:Fl_Menu.obj
 0001:00050410       ?find_selected@menuwindow@@QAEHHH@Z 00451410 f   fltk:Fl_Menu.obj
 0001:000505a0       ?titlex@menuwindow@@QAEHH@Z 004515a0 f   fltk:Fl_Menu.obj
 0001:00050620       ?autoscroll@menuwindow@@QAEXH@Z 00451620 f   fltk:Fl_Menu.obj
 0001:00050710       ?position@menuwindow@@QAEXHH@Z 00451710 f   fltk:Fl_Menu.obj
 0001:000507a0       ?is_inside@menuwindow@@QAEHHH@Z 004517a0 f   fltk:Fl_Menu.obj
 0001:00050830       ?is_inside@menustate@@QAEHHH@Z 00451830 f   fltk:Fl_Menu.obj
 0001:00050a90       ??_Gmenutitle@@UAEPAXI@Z   00451a90 f i fltk:Fl_Menu.obj
 0001:00050a90       ??_Emenutitle@@UAEPAXI@Z   00451a90 f i fltk:Fl_Menu.obj
 0001:00050ad0       ??_Emenuwindow@@UAEPAXI@Z  00451ad0 f i fltk:Fl_Menu.obj
 0001:00050ad0       ??_Gmenuwindow@@UAEPAXI@Z  00451ad0 f i fltk:Fl_Menu.obj
 0001:00050b10       ?insert@Fl_Menu_Item@@QAEHHPBDHP6AXPAVFl_Widget@@PAX@Z2H@Z 00451b10 f   fltk:Fl_Menu_add.obj
 0001:00050f70       ?add@Fl_Menu_Item@@QAEHPBDHP6AXPAVFl_Widget@@PAX@Z2H@Z 00451f70 f   fltk:Fl_Menu_add.obj
 0001:00050fa0       ?insert@Fl_Menu_@@QAEHHPBDHP6AXPAVFl_Widget@@PAX@Z2H@Z 00451fa0 f   fltk:Fl_Menu_add.obj
 0001:000511b0       ?add@Fl_Menu_@@QAEHPBDHP6AXPAVFl_Widget@@PAX@Z2H@Z 004521b0 f   fltk:Fl_Menu_add.obj
 0001:000511e0       ?add@Fl_Menu_@@QAEHPBD@Z   004521e0 f   fltk:Fl_Menu_add.obj
 0001:00051310       ?replace@Fl_Menu_@@QAEXHPBD@Z 00452310 f   fltk:Fl_Menu_add.obj
 0001:000513a0       ?remove@Fl_Menu_@@QAEXH@Z  004523a0 f   fltk:Fl_Menu_add.obj
 0001:00051630       _fl_strlcat                00452630 f   fltk:flstring.obj
 0001:000516b0       _fl_strlcpy                004526b0 f   fltk:flstring.obj
 0001:00051700       _fl_ascii_strcasecmp       00452700 f   fltk:flstring.obj
 0001:00051860       ?_Fl_Slider@Fl_Slider@@AAEXXZ 00452860 f   fltk:Fl_Slider.obj
 0001:00051890       ?draw_bg@Fl_Slider@@AAEXHHHH@Z 00452890 f   fltk:Fl_Slider.obj
 0001:00051980       ?draw@Fl_Slider@@IAEXHHHH@Z 00452980 f   fltk:Fl_Slider.obj
 0001:00052220       ?handle@Fl_Slider@@IAEHHHHHH@Z 00453220 f   fltk:Fl_Slider.obj
 0001:00052d20       ?draw@Fl_Slider@@MAEXXZ    00453d20 f   fltk:Fl_Slider.obj
 0001:00052df0       ?handle@Fl_Slider@@UAEHH@Z 00453df0 f   fltk:Fl_Slider.obj
 0001:00052ed0       ??0Fl_Slider@@QAE@HHHHPBD@Z 00453ed0 f   fltk:Fl_Slider.obj
 0001:00052f50       ??0Fl_Slider@@QAE@EHHHHPBD@Z 00453f50 f   fltk:Fl_Slider.obj
 0001:00053000       ?scrollvalue@Fl_Slider@@QAEHHHHH@Z 00454000 f   fltk:Fl_Slider.obj
 0001:000530d0       ?bounds@Fl_Slider@@QAEXNN@Z 004540d0 f   fltk:Fl_Slider.obj
 0001:00053140       ?slider_size@Fl_Slider@@QAEXN@Z 00454140 f   fltk:Fl_Slider.obj
 0001:000531c0       ??0Fl_Fill_Slider@@QAE@HHHHPBD@Z 004541c0 f   fltk:Fl_Slider.obj
 0001:00053200       ??0Fl_Hor_Slider@@QAE@HHHHPBD@Z 00454200 f   fltk:Fl_Slider.obj
 0001:00053240       ??0Fl_Hor_Fill_Slider@@QAE@HHHHPBD@Z 00454240 f   fltk:Fl_Slider.obj
 0001:00053280       ??0Fl_Hor_Nice_Slider@@QAE@HHHHPBD@Z 00454280 f   fltk:Fl_Slider.obj
 0001:000532d0       ??0Fl_Nice_Slider@@QAE@HHHHPBD@Z 004542d0 f   fltk:Fl_Slider.obj
 0001:00053320       ??1Fl_Valuator@@UAE@XZ     00454320 f i fltk:Fl_Slider.obj
 0001:00053340       ??_EFl_Fill_Slider@@UAEPAXI@Z 00454340 f i fltk:Fl_Slider.obj
 0001:00053340       ??_GFl_Fill_Slider@@UAEPAXI@Z 00454340 f i fltk:Fl_Slider.obj
 0001:00053380       ??_GFl_Hor_Fill_Slider@@UAEPAXI@Z 00454380 f i fltk:Fl_Slider.obj
 0001:00053380       ??_EFl_Hor_Fill_Slider@@UAEPAXI@Z 00454380 f i fltk:Fl_Slider.obj
 0001:000533c0       ??_EFl_Hor_Nice_Slider@@UAEPAXI@Z 004543c0 f i fltk:Fl_Slider.obj
 0001:000533c0       ??_GFl_Hor_Nice_Slider@@UAEPAXI@Z 004543c0 f i fltk:Fl_Slider.obj
 0001:00053400       ??_EFl_Hor_Slider@@UAEPAXI@Z 00454400 f i fltk:Fl_Slider.obj
 0001:00053400       ??_GFl_Hor_Slider@@UAEPAXI@Z 00454400 f i fltk:Fl_Slider.obj
 0001:00053440       ??_GFl_Nice_Slider@@UAEPAXI@Z 00454440 f i fltk:Fl_Slider.obj
 0001:00053440       ??_EFl_Nice_Slider@@UAEPAXI@Z 00454440 f i fltk:Fl_Slider.obj
 0001:00053480       ??_GFl_Slider@@UAEPAXI@Z   00454480 f i fltk:Fl_Slider.obj
 0001:00053480       ??_EFl_Slider@@UAEPAXI@Z   00454480 f i fltk:Fl_Slider.obj
 0001:000534c0       ?fl_filename_absolute@@YAHPADHPBD@Z 004544c0 f   fltk:filename_absolute.obj
 0001:00053790       ?fl_filename_relative@@YAHPADHPBD@Z 00454790 f   fltk:filename_absolute.obj
 0001:00053800       ?fl_filename_relative@@YAHPADHPBD1@Z 00454800 f   fltk:filename_absolute.obj
 0001:00053de0       ??0Fl_File_Chooser@@QAE@PBD0H0@Z 00454de0 f   fltk:Fl_File_Chooser.obj
 0001:00055260       ?cb_window@Fl_File_Chooser@@CAXPAVFl_Double_Window@@PAX@Z 00456260 f   fltk:Fl_File_Chooser.obj
 0001:00055290       ?cb_showChoice@Fl_File_Chooser@@CAXPAVFl_Choice@@PAX@Z 00456290 f   fltk:Fl_File_Chooser.obj
 0001:000552c0       ?cb_favoritesButton@Fl_File_Chooser@@CAXPAVFl_Menu_Button@@PAX@Z 004562c0 f   fltk:Fl_File_Chooser.obj
 0001:000552f0       ?cb_newButton@Fl_File_Chooser@@CAXPAVFl_Button@@PAX@Z 004562f0 f   fltk:Fl_File_Chooser.obj
 0001:00055320       ?cb_@Fl_File_Chooser@@CAXPAVFl_Tile@@PAX@Z 00456320 f   fltk:Fl_File_Chooser.obj
 0001:00055350       ?cb_fileList@Fl_File_Chooser@@CAXPAVFl_File_Browser@@PAX@Z 00456350 f   fltk:Fl_File_Chooser.obj
 0001:00055380       ?cb_previewButton@Fl_File_Chooser@@CAXPAVFl_Check_Button@@PAX@Z 00456380 f   fltk:Fl_File_Chooser.obj
 0001:000553d0       ?cb_showHiddenButton@Fl_File_Chooser@@CAXPAVFl_Check_Button@@PAX@Z 004563d0 f   fltk:Fl_File_Chooser.obj
 0001:00055420       ?cb_fileName@Fl_File_Chooser@@CAXPAVFl_File_Input@@PAX@Z 00456420 f   fltk:Fl_File_Chooser.obj
 0001:00055450       ?cb_okButton@Fl_File_Chooser@@CAXPAVFl_Return_Button@@PAX@Z 00456450 f   fltk:Fl_File_Chooser.obj
 0001:000554c0       ?cb_cancelButton@Fl_File_Chooser@@CAXPAVFl_Button@@PAX@Z 004564c0 f   fltk:Fl_File_Chooser.obj
 0001:00055500       ?cb_favList@Fl_File_Chooser@@CAXPAVFl_File_Browser@@PAX@Z 00456500 f   fltk:Fl_File_Chooser.obj
 0001:00055530       ?cb_favUpButton@Fl_File_Chooser@@CAXPAVFl_Button@@PAX@Z 00456530 f   fltk:Fl_File_Chooser.obj
 0001:00055570       ?cb_favDeleteButton@Fl_File_Chooser@@CAXPAVFl_Button@@PAX@Z 00456570 f   fltk:Fl_File_Chooser.obj
 0001:000555b0       ?cb_favDownButton@Fl_File_Chooser@@CAXPAVFl_Button@@PAX@Z 004565b0 f   fltk:Fl_File_Chooser.obj
 0001:000555f0       ?cb_favCancelButton@Fl_File_Chooser@@CAXPAVFl_Button@@PAX@Z 004565f0 f   fltk:Fl_File_Chooser.obj
 0001:00055630       ?cb_favOkButton@Fl_File_Chooser@@CAXPAVFl_Return_Button@@PAX@Z 00456630 f   fltk:Fl_File_Chooser.obj
 0001:00055670       ??1Fl_File_Chooser@@QAE@XZ 00456670 f   fltk:Fl_File_Chooser.obj
 0001:00055750       ?callback@Fl_File_Chooser@@QAEXP6AXPAV1@PAX@Z1@Z 00456750 f   fltk:Fl_File_Chooser.obj
 0001:00055770       ?color@Fl_File_Chooser@@QAEXI@Z 00456770 f   fltk:Fl_File_Chooser.obj
 0001:000557a0       ?color@Fl_File_Chooser@@QAEIXZ 004567a0 f   fltk:Fl_File_Chooser.obj
 0001:000557c0       ?directory@Fl_File_Chooser@@QAEPADXZ 004567c0 f   fltk:Fl_File_Chooser.obj
 0001:000557e0       ?filter@Fl_File_Chooser@@QAEPBDXZ 004567e0 f   fltk:Fl_File_Chooser.obj
 0001:00055810       ?filter_value@Fl_File_Chooser@@QAEHXZ 00456810 f   fltk:Fl_File_Chooser.obj
 0001:00055860       ?filter_value@Fl_File_Chooser@@QAEXH@Z 00456860 f   fltk:Fl_File_Chooser.obj
 0001:00055890       ?hide@Fl_File_Chooser@@QAEXXZ 00456890 f   fltk:Fl_File_Chooser.obj
 0001:000558c0       ?iconsize@Fl_File_Chooser@@QAEXE@Z 004568c0 f   fltk:Fl_File_Chooser.obj
 0001:000558f0       ?iconsize@Fl_File_Chooser@@QAEEXZ 004568f0 f   fltk:Fl_File_Chooser.obj
 0001:00055920       ?label@Fl_File_Chooser@@QAEXPBD@Z 00456920 f   fltk:Fl_File_Chooser.obj
 0001:00055940       ?label@Fl_File_Chooser@@QAEPBDXZ 00456940 f   fltk:Fl_File_Chooser.obj
 0001:00055960       ?ok_label@Fl_File_Chooser@@QAEXPBD@Z 00456960 f   fltk:Fl_File_Chooser.obj
 0001:00055a20       ?ok_label@Fl_File_Chooser@@QAEPBDXZ 00456a20 f   fltk:Fl_File_Chooser.obj
 0001:00055a40       ?shown@Fl_File_Chooser@@QAEHXZ 00456a40 f   fltk:Fl_File_Chooser.obj
 0001:00055a70       ?textcolor@Fl_File_Chooser@@QAEXI@Z 00456a70 f   fltk:Fl_File_Chooser.obj
 0001:00055aa0       ?textcolor@Fl_File_Chooser@@QAEIXZ 00456aa0 f   fltk:Fl_File_Chooser.obj
 0001:00055ad0       ?textfont@Fl_File_Chooser@@QAEXH@Z 00456ad0 f   fltk:Fl_File_Chooser.obj
 0001:00055b00       ?textfont@Fl_File_Chooser@@QAEHXZ 00456b00 f   fltk:Fl_File_Chooser.obj
 0001:00055b30       ?textsize@Fl_File_Chooser@@QAEXH@Z 00456b30 f   fltk:Fl_File_Chooser.obj
 0001:00055b70       ?textsize@Fl_File_Chooser@@QAEHXZ 00456b70 f   fltk:Fl_File_Chooser.obj
 0001:00055ba0       ?type@Fl_File_Chooser@@QAEXH@Z 00456ba0 f   fltk:Fl_File_Chooser.obj
 0001:00055c50       ?type@Fl_File_Chooser@@QAEHXZ 00456c50 f   fltk:Fl_File_Chooser.obj
 0001:00055c70       ?user_data@Fl_File_Chooser@@QBEPAXXZ 00456c70 f   fltk:Fl_File_Chooser.obj
 0001:00055c90       ?user_data@Fl_File_Chooser@@QAEXPAX@Z 00456c90 f   fltk:Fl_File_Chooser.obj
 0001:00055cb0       ?visible@Fl_File_Chooser@@QAEHXZ 00456cb0 f   fltk:Fl_File_Chooser.obj
 0001:00055cf0       ?add_extra@Fl_File_Chooser@@QAEPAVFl_Widget@@PAV2@@Z 00456cf0 f   fltk:Fl_File_Chooser.obj
 0001:00055f20       ??0Fl_Bitmap@@QAE@PBEHH@Z  00456f20 f i fltk:Fl_File_Chooser.obj
 0001:00055fb0       ?cb_cancelButton_i@Fl_File_Chooser@@AAEXPAVFl_Button@@PAX@Z 00456fb0 f i fltk:Fl_File_Chooser.obj
 0001:00056010       ?cb_window_i@Fl_File_Chooser@@AAEXPAVFl_Double_Window@@PAX@Z 00457010 f i fltk:Fl_File_Chooser.obj
 0001:00056070       ?favoritesButtonCB@Fl_File_Chooser@@AAEXXZ 00457070 f   fltk:Fl_File_Chooser2.obj
 0001:000562a0       ?favoritesCB@Fl_File_Chooser@@AAEXPAVFl_Widget@@@Z 004572a0 f   fltk:Fl_File_Chooser2.obj
 0001:000569b0       ?fileListCB@Fl_File_Chooser@@AAEXXZ 004579b0 f   fltk:Fl_File_Chooser2.obj
 0001:00056e10       ?fileNameCB@Fl_File_Chooser@@AAEXXZ 00457e10 f   fltk:Fl_File_Chooser2.obj
 0001:00057810       ?newdir@Fl_File_Chooser@@AAEXXZ 00458810 f   fltk:Fl_File_Chooser2.obj
 0001:00057940       ?previewCB@Fl_File_Chooser@@CAXPAV1@@Z 00458940 f   fltk:Fl_File_Chooser2.obj
 0001:00057950       ?showChoiceCB@Fl_File_Chooser@@AAEXXZ 00458950 f   fltk:Fl_File_Chooser2.obj
 0001:00057b80       ?update_favorites@Fl_File_Chooser@@AAEXXZ 00458b80 f   fltk:Fl_File_Chooser2.obj
 0001:00057de0       ?update_preview@Fl_File_Chooser@@AAEXXZ 00458de0 f   fltk:Fl_File_Chooser2.obj
 0001:000586a0       ?count@Fl_File_Chooser@@QAEHXZ 004596a0 f   fltk:Fl_File_Chooser2.obj
 0001:00058790       ?directory@Fl_File_Chooser@@QAEXPBD@Z 00459790 f   fltk:Fl_File_Chooser2.obj
 0001:00058a50       ?filter@Fl_File_Chooser@@QAEXPBD@Z 00459a50 f   fltk:Fl_File_Chooser2.obj
 0001:00058c30       ?preview@Fl_File_Chooser@@QAEXH@Z 00459c30 f   fltk:Fl_File_Chooser2.obj
 0001:00058e80       ?showHidden@Fl_File_Chooser@@AAEXH@Z 00459e80 f   fltk:Fl_File_Chooser2.obj
 0001:00058ed0       ?remove_hidden_files@Fl_File_Chooser@@AAEXXZ 00459ed0 f   fltk:Fl_File_Chooser2.obj
 0001:00058f70       ?rescan@Fl_File_Chooser@@QAEXXZ 00459f70 f   fltk:Fl_File_Chooser2.obj
 0001:00059080       ?rescan_keep_filename@Fl_File_Chooser@@QAEXXZ 0045a080 f   fltk:Fl_File_Chooser2.obj
 0001:000592a0       ?show@Fl_File_Chooser@@QAEXXZ 0045a2a0 f   fltk:Fl_File_Chooser2.obj
 0001:00059330       ?value@Fl_File_Chooser@@QAEPBDH@Z 0045a330 f   fltk:Fl_File_Chooser2.obj
 0001:00059480       ?value@Fl_File_Chooser@@QAEXPBD@Z 0045a480 f   fltk:Fl_File_Chooser2.obj
 0001:00059910       ?fl_draw_pixmap@@YAHPBQADHHI@Z 0045a910 f   fltk:fl_draw_pixmap.obj
 0001:00059930       ?fl_draw_pixmap@@YAHPBQBDHHI@Z 0045a930 f   fltk:fl_draw_pixmap.obj
 0001:00059af0       ?fl_measure_pixmap@@YAHPBQADAAH1@Z 0045aaf0 f   fltk:fl_draw_pixmap.obj
 0001:00059b10       ?fl_measure_pixmap@@YAHPBQBDAAH1@Z 0045ab10 f   fltk:fl_draw_pixmap.obj
 0001:00059cc0       ?fl_convert_pixmap@@YAHPBQBDPAEI@Z 0045acc0 f   fltk:fl_draw_pixmap.obj
 0001:0005a2b0       ?show@Fl_Menu_Window@@UAEXXZ 0045b2b0 f   fltk:Fl_Menu_Window.obj
 0001:0005a2d0       ?erase@Fl_Menu_Window@@QAEXXZ 0045b2d0 f   fltk:Fl_Menu_Window.obj
 0001:0005a2e0       ?flush@Fl_Menu_Window@@UAEXXZ 0045b2e0 f   fltk:Fl_Menu_Window.obj
 0001:0005a320       ?hide@Fl_Menu_Window@@UAEXXZ 0045b320 f   fltk:Fl_Menu_Window.obj
 0001:0005a340       ??1Fl_Menu_Window@@UAE@XZ  0045b340 f   fltk:Fl_Menu_Window.obj
 0001:0005a390       ??0Fl_Menu_Window@@QAE@HHPBD@Z 0045b390 f   fltk:Fl_Menu_Window.obj
 0001:0005a3d0       ??0Fl_Menu_Window@@QAE@HHHHPBD@Z 0045b3d0 f   fltk:Fl_Menu_Window.obj
 0001:0005a410       ??_GFl_Menu_Window@@UAEPAXI@Z 0045b410 f i fltk:Fl_Menu_Window.obj
 0001:0005a410       ??_EFl_Menu_Window@@UAEPAXI@Z 0045b410 f i fltk:Fl_Menu_Window.obj
 0001:0005a450       ?show@Fl_Overlay_Window@@UAEXXZ 0045b450 f   fltk:Fl_Overlay_Window.obj
 0001:0005a4a0       ?flush@Fl_Overlay_Window@@UAEXXZ 0045b4a0 f   fltk:Fl_Overlay_Window.obj
 0001:0005a520       ?hide@Fl_Overlay_Window@@UAEXXZ 0045b520 f   fltk:Fl_Overlay_Window.obj
 0001:0005a540       ?resize@Fl_Overlay_Window@@UAEXHHHH@Z 0045b540 f   fltk:Fl_Overlay_Window.obj
 0001:0005a5c0       ??1Fl_Overlay_Window@@UAE@XZ 0045b5c0 f   fltk:Fl_Overlay_Window.obj
 0001:0005a610       ?can_do_overlay@Fl_Overlay_Window@@QAEHXZ 0045b610 f   fltk:Fl_Overlay_Window.obj
 0001:0005a620       ?redraw_overlay@Fl_Overlay_Window@@QAEXXZ 0045b620 f   fltk:Fl_Overlay_Window.obj
 0001:0005a660       ?fl_filename_match@@YAHPBD0@Z 0045b660 f   fltk:filename_match.obj
 0001:0005aaf0       _fl_casenumericsort        0045baf0 f   fltk:numericsort.obj
 0001:0005ab10       _fl_numericsort            0045bb10 f   fltk:numericsort.obj
 0001:0005ad70       _fl_alphasort              0045bd70 f   fltk:filename_list.obj
 0001:0005ad90       _fl_casealphasort          0045bd90 f   fltk:filename_list.obj
 0001:0005adb0       ?fl_filename_list@@YAHPBDPAPAPAUdirent@@P6AHPAPAU1@2@Z@Z 0045bdb0 f   fltk:filename_list.obj
 0001:0005add0       ?fl_filename_free_list@@YAXPAPAPAUdirent@@H@Z 0045bdd0 f   fltk:filename_list.obj
 0001:0005ae40       ?fl_define_FL_PLASTIC_UP_BOX@@YA?AW4Fl_Boxtype@@XZ 0045be40 f   fltk:fl_plastic.obj
 0001:0005d1a0       ?fl_define_FL_GTK_UP_BOX@@YA?AW4Fl_Boxtype@@XZ 0045e1a0 f   fltk:fl_gtk.obj
 0001:0005e980       ?fl_pie@@YAXHHHHNN@Z       0045f980 f i fltk:fl_gtk.obj
 0001:0005e9d0       ?fl_define_FL_GLEAM_UP_BOX@@YA?AW4Fl_Boxtype@@XZ 0045f9d0 f   fltk:fl_gleam.obj
 0001:0005f3c0       ??0Fl_Tiled_Image@@QAE@PAVFl_Image@@HH@Z 004603c0 f   fltk:Fl_Tiled_Image.obj
 0001:0005f430       ??1Fl_Tiled_Image@@UAE@XZ  00460430 f   fltk:Fl_Tiled_Image.obj
 0001:0005f490       ?copy@Fl_Tiled_Image@@UAEPAVFl_Image@@HH@Z 00460490 f   fltk:Fl_Tiled_Image.obj
 0001:0005f540       ?color_average@Fl_Tiled_Image@@UAEXIM@Z 00460540 f   fltk:Fl_Tiled_Image.obj
 0001:0005f5c0       ?desaturate@Fl_Tiled_Image@@UAEXXZ 004605c0 f   fltk:Fl_Tiled_Image.obj
 0001:0005f630       ?draw@Fl_Tiled_Image@@UAEXHHHHHH@Z 00460630 f   fltk:Fl_Tiled_Image.obj
 0001:0005f7d0       ??_EFl_Tiled_Image@@UAEPAXI@Z 004607d0 f i fltk:Fl_Tiled_Image.obj
 0001:0005f7d0       ??_GFl_Tiled_Image@@UAEPAXI@Z 004607d0 f i fltk:Fl_Tiled_Image.obj
 0001:0005f800       ?fl_define_FL_ROUND_UP_BOX@@YA?AW4Fl_Boxtype@@XZ 00460800 f   fltk:fl_round_box.obj
 0001:0005fd20       ?fl_round_down_box@@YAXHHHHI@Z 00460d20 f   fltk:fl_round_box.obj
 0001:0005ff00       ?fl_round_up_box@@YAXHHHHI@Z 00460f00 f   fltk:fl_round_box.obj
 0001:000600e0       _XUtf8Tolower              004610e0 f   fltk:case.obj
 0001:00060290       _XUtf8Toupper              00461290 f   fltk:case.obj
 0001:00060350       _XUtf8IsNonSpacing         00461350 f   fltk:is_spacing.obj
 0001:000604e0       ?cursor@Fl_Window@@QAEXW4Fl_Cursor@@@Z 004614e0 f   fltk:fl_cursor.obj
 0001:00060580       ?cursor@Fl_Window@@QAEXPBVFl_RGB_Image@@HH@Z 00461580 f   fltk:fl_cursor.obj
 0001:00060610       ?default_cursor@Fl_Window@@QAEXW4Fl_Cursor@@@Z 00461610 f   fltk:fl_cursor.obj
 0001:00060640       ?cursor@Fl_Window@@QAEXW4Fl_Cursor@@II@Z 00461640 f   fltk:fl_cursor.obj
 0001:00060660       ?default_cursor@Fl_Window@@QAEXW4Fl_Cursor@@II@Z 00461660 f   fltk:fl_cursor.obj
 0001:00060680       ?fl_cursor@@YAXW4Fl_Cursor@@@Z 00461680 f   fltk:fl_cursor.obj
 0001:000606a0       ?fl_cursor@@YAXW4Fl_Cursor@@II@Z 004616a0 f   fltk:fl_cursor.obj
 0001:000608f0       ?fl_draw_symbol@@YAHPBDHHHHI@Z 004618f0 f   fltk:fl_symbols.obj
 0001:00060ea0       ?fl_add_symbol@@YAHPBDP6AXI@ZH@Z 00461ea0 f   fltk:fl_symbols.obj
 0001:00067370       ?handle@Fl_Tile@@UAEHH@Z   00468370 f   fltk:Fl_Tile.obj
 0001:00067850       ??0Fl_Tile@@QAE@HHHHPBD@Z  00468850 f   fltk:Fl_Tile.obj
 0001:00067890       ?resize@Fl_Tile@@UAEXHHHH@Z 00468890 f   fltk:Fl_Tile.obj
 0001:00067b10       ?position@Fl_Tile@@QAEXHHHH@Z 00468b10 f   fltk:Fl_Tile.obj
 0001:00067d30       ??_EFl_Tile@@UAEPAXI@Z     00468d30 f i fltk:Fl_Tile.obj
 0001:00067d30       ??_GFl_Tile@@UAEPAXI@Z     00468d30 f i fltk:Fl_Tile.obj
 0001:00067d60       ?update_top@Fl_Browser_@@AAEXXZ 00468d60 f   fltk:Fl_Browser_.obj
 0001:00067f90       ?item_quick_height@Fl_Browser_@@MBEHPAX@Z 00468f90 f   fltk:Fl_Browser_.obj
 0001:00067fb0       ?full_width@Fl_Browser_@@MBEHXZ 00468fb0 f   fltk:Fl_Browser_.obj
 0001:00067fd0       ?full_height@Fl_Browser_@@MBEHXZ 00468fd0 f   fltk:Fl_Browser_.obj
 0001:00068030       ?incr_height@Fl_Browser_@@MBEHXZ 00469030 f   fltk:Fl_Browser_.obj
 0001:00068060       ?item_select@Fl_Browser_@@MAEXPAXH@Z 00469060 f   fltk:Fl_Browser_.obj
 0001:00068070       ?item_selected@Fl_Browser_@@MBEHPAX@Z 00469070 f   fltk:Fl_Browser_.obj
 0001:000680a0       ?new_list@Fl_Browser_@@IAEXXZ 004690a0 f   fltk:Fl_Browser_.obj
 0001:00068120       ?deleting@Fl_Browser_@@IAEXPAX@Z 00469120 f   fltk:Fl_Browser_.obj
 0001:00068220       ?replacing@Fl_Browser_@@IAEXPAX0@Z 00469220 f   fltk:Fl_Browser_.obj
 0001:000682a0       ?swapping@Fl_Browser_@@IAEXPAX0@Z 004692a0 f   fltk:Fl_Browser_.obj
 0001:00068340       ?inserting@Fl_Browser_@@IAEXPAX0@Z 00469340 f   fltk:Fl_Browser_.obj
 0001:00068390       ?displayed@Fl_Browser_@@IBEHPAX@Z 00469390 f   fltk:Fl_Browser_.obj
 0001:00068420       ?redraw_line@Fl_Browser_@@IAEXPAX@Z 00469420 f   fltk:Fl_Browser_.obj
 0001:000684a0       ?bbox@Fl_Browser_@@IBEXAAH000@Z 004694a0 f   fltk:Fl_Browser_.obj
 0001:00068640       ?leftedge@Fl_Browser_@@IBEHXZ 00469640 f   fltk:Fl_Browser_.obj
 0001:00068670       ?find_item@Fl_Browser_@@IAEPAXH@Z 00469670 f   fltk:Fl_Browser_.obj
 0001:00068720       ?draw@Fl_Browser_@@MAEXXZ  00469720 f   fltk:Fl_Browser_.obj
 0001:000695f0       ??0Fl_Browser_@@IAE@HHHHPBD@Z 0046a5f0 f   fltk:Fl_Browser_.obj
 0001:000697b0       ?handle@Fl_Browser_@@UAEHH@Z 0046a7b0 f   fltk:Fl_Browser_.obj
 0001:0006aaf0       ?resize@Fl_Browser_@@UAEXHHHH@Z 0046baf0 f   fltk:Fl_Browser_.obj
 0001:0006ac00       ?select@Fl_Browser_@@QAEHPAXHH@Z 0046bc00 f   fltk:Fl_Browser_.obj
 0001:0006adc0       ?select_only@Fl_Browser_@@QAEHPAXH@Z 0046bdc0 f   fltk:Fl_Browser_.obj
 0001:0006af40       ?deselect@Fl_Browser_@@QAEHH@Z 0046bf40 f   fltk:Fl_Browser_.obj
 0001:0006b010       ?position@Fl_Browser_@@QAEXH@Z 0046c010 f   fltk:Fl_Browser_.obj
 0001:0006b060       ?hposition@Fl_Browser_@@QAEXH@Z 0046c060 f   fltk:Fl_Browser_.obj
 0001:0006b0b0       ?display@Fl_Browser_@@QAEXPAX@Z 0046c0b0 f   fltk:Fl_Browser_.obj
 0001:0006b2b0       ?sort@Fl_Browser_@@QAEXH@Z 0046c2b0 f   fltk:Fl_Browser_.obj
 0001:0006b4c0       ??_GFl_Browser_@@UAEPAXI@Z 0046c4c0 f i fltk:Fl_Browser_.obj
 0001:0006b4c0       ??_EFl_Browser_@@UAEPAXI@Z 0046c4c0 f i fltk:Fl_Browser_.obj
 0001:0006b510       ?item_at@Fl_Browser_@@MBEPAXH@Z 0046c510 f i fltk:Fl_Browser_.obj
 0001:0006b520       ?item_last@Fl_Browser_@@MBEPAXXZ 0046c520 f i fltk:Fl_Browser_.obj
 0001:0006b530       ?item_swap@Fl_Browser_@@MAEXPAX0@Z 0046c530 f i fltk:Fl_Browser_.obj
 0001:0006b540       ?item_text@Fl_Browser_@@MBEPBDPAX@Z 0046c540 f i fltk:Fl_Browser_.obj
 0001:0006b550       ?full_height@Fl_File_Browser@@EBEHXZ 0046c550 f   fltk:Fl_File_Browser.obj
 0001:0006b5b0       ?item_height@Fl_File_Browser@@EBEHPAX@Z 0046c5b0 f   fltk:Fl_File_Browser.obj
 0001:0006b690       ?item_width@Fl_File_Browser@@EBEHPAX@Z 0046c690 f   fltk:Fl_File_Browser.obj
 0001:0006baa0       ?item_draw@Fl_File_Browser@@EBEXPAXHHHH@Z 0046caa0 f   fltk:Fl_File_Browser.obj
 0001:0006c100       ??0Fl_File_Browser@@QAE@HHHHPBD@Z 0046d100 f   fltk:Fl_File_Browser.obj
 0001:0006c180       ?filter@Fl_File_Browser@@QAEXPBD@Z 0046d180 f   fltk:Fl_File_Browser.obj
 0001:0006c1b0       ?load@Fl_File_Browser@@QAEHPBDP6AHPAPAUdirent@@1@Z@Z 0046d1b0 f   fltk:Fl_File_Browser.obj
 0001:0006c5c0       ??1Fl_Browser@@UAE@XZ      0046d5c0 f i fltk:Fl_File_Browser.obj
 0001:0006c630       ??_EFl_Browser@@UAEPAXI@Z  0046d630 f i fltk:Fl_File_Browser.obj
 0001:0006c630       ??_GFl_Browser@@UAEPAXI@Z  0046d630 f i fltk:Fl_File_Browser.obj
 0001:0006c670       ??_GFl_File_Browser@@UAEPAXI@Z 0046d670 f i fltk:Fl_File_Browser.obj
 0001:0006c670       ??_EFl_File_Browser@@UAEPAXI@Z 0046d670 f i fltk:Fl_File_Browser.obj
 0001:0006c6b0       ?hide@Fl_Browser@@UAEXXZ   0046d6b0 f i fltk:Fl_File_Browser.obj
 0001:0006c6d0       ?incr_height@Fl_File_Browser@@EBEHXZ 0046d6d0 f i fltk:Fl_File_Browser.obj
 0001:0006c6f0       ?item_at@Fl_Browser@@MBEPAXH@Z 0046d6f0 f i fltk:Fl_File_Browser.obj
 0001:0006c710       ?item_swap@Fl_Browser@@MAEXPAX0@Z 0046d710 f i fltk:Fl_File_Browser.obj
 0001:0006c730       ?show@Fl_Browser@@UAEXXZ   0046d730 f i fltk:Fl_File_Browser.obj
 0001:0006c750       ??0Fl_Check_Button@@QAE@HHHHPBD@Z 0046d750 f   fltk:Fl_Check_Button.obj
 0001:0006c7a0       ??_EFl_Check_Button@@UAEPAXI@Z 0046d7a0 f i fltk:Fl_Check_Button.obj
 0001:0006c7a0       ??_GFl_Check_Button@@UAEPAXI@Z 0046d7a0 f i fltk:Fl_Check_Button.obj
 0001:0006c7d0       ?draw_buttons@Fl_File_Input@@AAEXXZ 0046d7d0 f   fltk:Fl_File_Input.obj
 0001:0006cb50       ?handle_button@Fl_File_Input@@AAEHH@Z 0046db50 f   fltk:Fl_File_Input.obj
 0001:0006ce00       ?update_buttons@Fl_File_Input@@AAEXXZ 0046de00 f   fltk:Fl_File_Input.obj
 0001:0006cf40       ??0Fl_File_Input@@QAE@HHHHPBD@Z 0046df40 f   fltk:Fl_File_Input.obj
 0001:0006cfc0       ?handle@Fl_File_Input@@UAEHH@Z 0046dfc0 f   fltk:Fl_File_Input.obj
 0001:0006d170       ?draw@Fl_File_Input@@MAEXXZ 0046e170 f   fltk:Fl_File_Input.obj
 0001:0006d2e0       ?value@Fl_File_Input@@QAEHPBD@Z 0046e2e0 f   fltk:Fl_File_Input.obj
 0001:0006d310       ?value@Fl_File_Input@@QAEHPBDH@Z 0046e310 f   fltk:Fl_File_Input.obj
 0001:0006d340       ??_GFl_File_Input@@UAEPAXI@Z 0046e340 f i fltk:Fl_File_Input.obj
 0001:0006d340       ??_EFl_File_Input@@UAEPAXI@Z 0046e340 f i fltk:Fl_File_Input.obj
 0001:0006d380       ?item_first@Fl_Browser@@MBEPAXXZ 0046e380 f   fltk:Fl_Browser.obj
 0001:0006d3a0       ?item_next@Fl_Browser@@MBEPAXPAX@Z 0046e3a0 f   fltk:Fl_Browser.obj
 0001:0006d3c0       ?item_prev@Fl_Browser@@MBEPAXPAX@Z 0046e3c0 f   fltk:Fl_Browser.obj
 0001:0006d3e0       ?item_last@Fl_Browser@@MBEPAXXZ 0046e3e0 f   fltk:Fl_Browser.obj
 0001:0006d400       ?item_selected@Fl_Browser@@MBEHPAX@Z 0046e400 f   fltk:Fl_Browser.obj
 0001:0006d420       ?item_select@Fl_Browser@@MAEXPAXH@Z 0046e420 f   fltk:Fl_Browser.obj
 0001:0006d460       ?item_height@Fl_Browser@@MBEHPAX@Z 0046e460 f   fltk:Fl_Browser.obj
 0001:0006d810       ?item_width@Fl_Browser@@MBEHPAX@Z 0046e810 f   fltk:Fl_Browser.obj
 0001:0006db10       ?item_draw@Fl_Browser@@MBEXPAXHHHH@Z 0046eb10 f   fltk:Fl_Browser.obj
 0001:0006e0d0       ?full_height@Fl_Browser@@MBEHXZ 0046f0d0 f   fltk:Fl_Browser.obj
 0001:0006e0f0       ?incr_height@Fl_Browser@@MBEHXZ 0046f0f0 f   fltk:Fl_Browser.obj
 0001:0006e110       ?item_text@Fl_Browser@@MBEPBDPAX@Z 0046f110 f   fltk:Fl_Browser.obj
 0001:0006e130       ?find_line@Fl_Browser@@IBEPAUFL_BLINE@@H@Z 0046f130 f   fltk:Fl_Browser.obj
 0001:0006e260       ?_remove@Fl_Browser@@IAEPAUFL_BLINE@@H@Z 0046f260 f   fltk:Fl_Browser.obj
 0001:0006e340       ?insert@Fl_Browser@@IAEXHPAUFL_BLINE@@@Z 0046f340 f   fltk:Fl_Browser.obj
 0001:0006e4c0       ?lineno@Fl_Browser@@IBEHPAX@Z 0046f4c0 f   fltk:Fl_Browser.obj
 0001:0006e610       ?swap@Fl_Browser@@IAEXPAUFL_BLINE@@0@Z 0046f610 f   fltk:Fl_Browser.obj
 0001:0006e7f0       ?remove@Fl_Browser@@QAEXH@Z 0046f7f0 f   fltk:Fl_Browser.obj
 0001:0006e830       ?add@Fl_Browser@@QAEXPBDPAX@Z 0046f830 f   fltk:Fl_Browser.obj
 0001:0006e860       ?insert@Fl_Browser@@QAEXHPBDPAX@Z 0046f860 f   fltk:Fl_Browser.obj
 0001:0006e8e0       ?move@Fl_Browser@@QAEXHH@Z 0046f8e0 f   fltk:Fl_Browser.obj
 0001:0006e920       ?swap@Fl_Browser@@QAEXHH@Z 0046f920 f   fltk:Fl_Browser.obj
 0001:0006e990       ?clear@Fl_Browser@@QAEXXZ  0046f990 f   fltk:Fl_Browser.obj
 0001:0006ea10       ?topline@Fl_Browser@@QBEHXZ 0046fa10 f   fltk:Fl_Browser.obj
 0001:0006ea40       ?lineposition@Fl_Browser@@QAEXHW4Fl_Line_Position@1@@Z 0046fa40 f   fltk:Fl_Browser.obj
 0001:0006eb70       ?select@Fl_Browser@@QAEHHH@Z 0046fb70 f   fltk:Fl_Browser.obj
 0001:0006ebb0       ?selected@Fl_Browser@@QBEHH@Z 0046fbb0 f   fltk:Fl_Browser.obj
 0001:0006ebf0       ?show@Fl_Browser@@QAEXH@Z  0046fbf0 f   fltk:Fl_Browser.obj
 0001:0006ec70       ?hide@Fl_Browser@@QAEXH@Z  0046fc70 f   fltk:Fl_Browser.obj
 0001:0006ecf0       ?visible@Fl_Browser@@QBEHH@Z 0046fcf0 f   fltk:Fl_Browser.obj
 0001:0006ed40       ?value@Fl_Browser@@QBEHXZ  0046fd40 f   fltk:Fl_Browser.obj
 0001:0006ed70       ?text@Fl_Browser@@QBEPBDH@Z 0046fd70 f   fltk:Fl_Browser.obj
 0001:0006edb0       ?text@Fl_Browser@@QAEXHPBD@Z 0046fdb0 f   fltk:Fl_Browser.obj
 0001:0006eef0       ?data@Fl_Browser@@QBEPAXH@Z 0046fef0 f   fltk:Fl_Browser.obj
 0001:0006ef30       ?data@Fl_Browser@@QAEXHPAX@Z 0046ff30 f   fltk:Fl_Browser.obj
 0001:0006ef70       ??0Fl_Browser@@QAE@HHHHPBD@Z 0046ff70 f   fltk:Fl_Browser.obj
 0001:0006f020       ?icon@Fl_Browser@@QAEXHPAVFl_Image@@@Z 00470020 f   fltk:Fl_Browser.obj
 0001:0006f140       ?icon@Fl_Browser@@QBEPAVFl_Image@@H@Z 00470140 f   fltk:Fl_Browser.obj
 0001:0006f180       ?remove_icon@Fl_Browser@@QAEXH@Z 00470180 f   fltk:Fl_Browser.obj
 0001:0006f1a0       ?display@Fl_Browser@@QAEXHH@Z 004701a0 f   fltk:Fl_Browser.obj
 0001:0006f1f0       ??0Fl_Hold_Browser@@QAE@HHHHPBD@Z 004701f0 f   fltk:Fl_Browser.obj
 0001:0006f230       ??0Fl_Multi_Browser@@QAE@HHHHPBD@Z 00470230 f   fltk:Fl_Browser.obj
 0001:0006f270       ??0Fl_Select_Browser@@QAE@HHHHPBD@Z 00470270 f   fltk:Fl_Browser.obj
 0001:0006f2b0       ??_GFl_Hold_Browser@@UAEPAXI@Z 004702b0 f i fltk:Fl_Browser.obj
 0001:0006f2b0       ??_EFl_Hold_Browser@@UAEPAXI@Z 004702b0 f i fltk:Fl_Browser.obj
 0001:0006f2f0       ??_GFl_Multi_Browser@@UAEPAXI@Z 004702f0 f i fltk:Fl_Browser.obj
 0001:0006f2f0       ??_EFl_Multi_Browser@@UAEPAXI@Z 004702f0 f i fltk:Fl_Browser.obj
 0001:0006f330       ??_GFl_Select_Browser@@UAEPAXI@Z 00470330 f i fltk:Fl_Browser.obj
 0001:0006f330       ??_EFl_Select_Browser@@UAEPAXI@Z 00470330 f i fltk:Fl_Browser.obj
 0001:0006f370       ??0Fl_File_Icon@@QAE@PBDHHPAF@Z 00470370 f   fltk:Fl_File_Icon.obj
 0001:0006f410       ??1Fl_File_Icon@@QAE@XZ    00470410 f   fltk:Fl_File_Icon.obj
 0001:0006f490       ?add@Fl_File_Icon@@QAEPAFF@Z 00470490 f   fltk:Fl_File_Icon.obj
 0001:0006f560       ?draw@Fl_File_Icon@@QAEXHHHHIH@Z 00470560 f   fltk:Fl_File_Icon.obj
 0001:0006fd80       ?label@Fl_File_Icon@@QAEXPAVFl_Widget@@@Z 00470d80 f   fltk:Fl_File_Icon.obj
 0001:0006fdb0       ?labeltype@Fl_File_Icon@@SAXPBUFl_Label@@HHHHI@Z 00470db0 f   fltk:Fl_File_Icon.obj
 0001:0006fdf0       ?find@Fl_File_Icon@@SAPAV1@PBDH@Z 00470df0 f   fltk:Fl_File_Icon.obj
 0001:0006fec0       ?fl_filename_expand@@YAHPADHPBD@Z 00470ec0 f   fltk:filename_expand.obj
 0001:00070160       ?fl_filename_isdir@@YAHPBD@Z 00471160 f   fltk:filename_isdir.obj
 0001:00070380       ?_fl_filename_isdir_quick@@YAHPBD@Z 00471380 f   fltk:filename_isdir.obj
 0001:000703f0       ?compare@Fl_Shared_Image@@KAHPAPAV1@0@Z 004713f0 f   fltk:Fl_Shared_Image.obj
 0001:000704d0       ??0Fl_Shared_Image@@IAE@XZ 004714d0 f   fltk:Fl_Shared_Image.obj
 0001:00070560       ??0Fl_Shared_Image@@IAE@PBDPAVFl_Image@@@Z 00471560 f   fltk:Fl_Shared_Image.obj
 0001:00070690       ??1Fl_Shared_Image@@MAE@XZ 00471690 f   fltk:Fl_Shared_Image.obj
 0001:00070710       ?add@Fl_Shared_Image@@IAEXXZ 00471710 f   fltk:Fl_Shared_Image.obj
 0001:000707f0       ?update@Fl_Shared_Image@@IAEXXZ 004717f0 f   fltk:Fl_Shared_Image.obj
 0001:00070870       ?release@Fl_Shared_Image@@QAEXXZ 00471870 f   fltk:Fl_Shared_Image.obj
 0001:00070980       ?reload@Fl_Shared_Image@@QAEXXZ 00471980 f   fltk:Fl_Shared_Image.obj
 0001:00070ca0       ?copy@Fl_Shared_Image@@UAEPAVFl_Image@@HH@Z 00471ca0 f   fltk:Fl_Shared_Image.obj
 0001:00070db0       ?color_average@Fl_Shared_Image@@UAEXIM@Z 00471db0 f   fltk:Fl_Shared_Image.obj
 0001:00070e00       ?desaturate@Fl_Shared_Image@@UAEXXZ 00471e00 f   fltk:Fl_Shared_Image.obj
 0001:00070e40       ?draw@Fl_Shared_Image@@UAEXHHHHHH@Z 00471e40 f   fltk:Fl_Shared_Image.obj
 0001:00070eb0       ?uncache@Fl_Shared_Image@@UAEXXZ 00471eb0 f   fltk:Fl_Shared_Image.obj
 0001:00070ee0       ?find@Fl_Shared_Image@@SAPAV1@PBDHH@Z 00471ee0 f   fltk:Fl_Shared_Image.obj
 0001:00071030       ?get@Fl_Shared_Image@@SAPAV1@PBDHH@Z 00472030 f   fltk:Fl_Shared_Image.obj
 0001:00071180       ?images@Fl_Shared_Image@@SAPAPAV1@XZ 00472180 f   fltk:Fl_Shared_Image.obj
 0001:00071190       ?num_images@Fl_Shared_Image@@SAHXZ 00472190 f   fltk:Fl_Shared_Image.obj
 0001:000711a0       ?add_handler@Fl_Shared_Image@@SAXP6APAVFl_Image@@PBDPAEH@Z@Z 004721a0 f   fltk:Fl_Shared_Image.obj
 0001:00071290       ?remove_handler@Fl_Shared_Image@@SAXP6APAVFl_Image@@PBDPAEH@Z@Z 00472290 f   fltk:Fl_Shared_Image.obj
 0001:00071320       ??_EFl_Shared_Image@@MAEPAXI@Z 00472320 f i fltk:Fl_Shared_Image.obj
 0001:00071320       ??_GFl_Shared_Image@@MAEPAXI@Z 00472320 f i fltk:Fl_Shared_Image.obj
 0001:00071350       ?show@Fl_Single_Window@@UAEXXZ 00472350 f   fltk:Fl_Single_Window.obj
 0001:00071370       ?flush@Fl_Single_Window@@UAEXXZ 00472370 f   fltk:Fl_Single_Window.obj
 0001:00071390       ??0Fl_Single_Window@@QAE@HHPBD@Z 00472390 f   fltk:Fl_Single_Window.obj
 0001:000713c0       ??0Fl_Single_Window@@QAE@HHHHPBD@Z 004723c0 f   fltk:Fl_Single_Window.obj
 0001:00071400       ??_GFl_Single_Window@@UAEPAXI@Z 00472400 f i fltk:Fl_Single_Window.obj
 0001:00071400       ??_EFl_Single_Window@@UAEPAXI@Z 00472400 f i fltk:Fl_Single_Window.obj
 0001:00071440       _fl_scandir                00472440 f   fltk:scandir.obj
 0001:000719c0       ?timeout_cb@Fl_Scrollbar@@CAXPAX@Z 004729c0 f   fltk:Fl_Scrollbar.obj
 0001:00071a00       ?increment_cb@Fl_Scrollbar@@AAEXXZ 00472a00 f   fltk:Fl_Scrollbar.obj
 0001:00071c10       ?draw@Fl_Scrollbar@@MAEXXZ 00472c10 f   fltk:Fl_Scrollbar.obj
 0001:000723c0       ??0Fl_Scrollbar@@QAE@HHHHPBD@Z 004733c0 f   fltk:Fl_Scrollbar.obj
 0001:00072450       ??1Fl_Scrollbar@@UAE@XZ    00473450 f   fltk:Fl_Scrollbar.obj
 0001:000724c0       ?handle@Fl_Scrollbar@@UAEHH@Z 004734c0 f   fltk:Fl_Scrollbar.obj
 0001:00072e00       ??_EFl_Scrollbar@@UAEPAXI@Z 00473e00 f i fltk:Fl_Scrollbar.obj
 0001:00072e00       ??_GFl_Scrollbar@@UAEPAXI@Z 00473e00 f i fltk:Fl_Scrollbar.obj
 0001:00072e40       ??0Fl_XBM_Image@@QAE@PBD@Z 00473e40 f   fltk:Fl_XBM_Image.obj
 0001:00073240       ??_EFl_XBM_Image@@UAEPAXI@Z 00474240 f i fltk:Fl_XBM_Image.obj
 0001:00073240       ??_GFl_XBM_Image@@UAEPAXI@Z 00474240 f i fltk:Fl_XBM_Image.obj
 0001:00073270       ??0Fl_XPM_Image@@QAE@PBD@Z 00474270 f   fltk:Fl_XPM_Image.obj
 0001:00073a10       ??_GFl_XPM_Image@@UAEPAXI@Z 00474a10 f i fltk:Fl_XPM_Image.obj
 0001:00073a10       ??_EFl_XPM_Image@@UAEPAXI@Z 00474a10 f i fltk:Fl_XPM_Image.obj
 0001:00073a40       ?draw_overlay@Fl_Gl_Window@@EAEXXZ 00474a40 f   fltkgl:Fl_Gl_Window.obj
 0001:00073a50       ?init@Fl_Gl_Window@@AAEXXZ 00474a50 f   fltkgl:Fl_Gl_Window.obj
 0001:00073ac0       ?can_do@Fl_Gl_Window@@CAHHPBH@Z 00474ac0 f   fltkgl:Fl_Gl_Window.obj
 0001:00073af0       ?mode@Fl_Gl_Window@@AAEHHPBH@Z 00474af0 f   fltkgl:Fl_Gl_Window.obj
 0001:00073be0       ?gl_plugin_linkage@Fl_Gl_Window@@CAHXZ 00474be0 f   fltkgl:Fl_Gl_Window.obj
 0001:00073bf0       ?show@Fl_Gl_Window@@UAEXXZ 00474bf0 f   fltkgl:Fl_Gl_Window.obj
 0001:00073ce0       ?flush@Fl_Gl_Window@@UAEXXZ 00474ce0 f   fltkgl:Fl_Gl_Window.obj
 0001:00074280       ?hide@Fl_Gl_Window@@UAEXXZ 00475280 f   fltkgl:Fl_Gl_Window.obj
 0001:000742e0       ?resize@Fl_Gl_Window@@UAEXHHHH@Z 004752e0 f   fltkgl:Fl_Gl_Window.obj
 0001:00074360       ?handle@Fl_Gl_Window@@UAEHH@Z 00475360 f   fltkgl:Fl_Gl_Window.obj
 0001:00074380       ?invalidate@Fl_Gl_Window@@QAEXXZ 00475380 f   fltkgl:Fl_Gl_Window.obj
 0001:00074400       ?context@Fl_Gl_Window@@QAEXPAXH@Z 00475400 f   fltkgl:Fl_Gl_Window.obj
 0001:00074480       ?make_current@Fl_Gl_Window@@QAEXXZ 00475480 f   fltkgl:Fl_Gl_Window.obj
 0001:000745e0       ?swap_buffers@Fl_Gl_Window@@QAEXXZ 004755e0 f   fltkgl:Fl_Gl_Window.obj
 0001:00074620       ?ortho@Fl_Gl_Window@@QAEXXZ 00475620 f   fltkgl:Fl_Gl_Window.obj
 0001:00074730       ??1Fl_Gl_Window@@UAE@XZ    00475730 f   fltkgl:Fl_Gl_Window.obj
 0001:00074780       ?draw@Fl_Gl_Window@@MAEXXZ 00475780 f   fltkgl:Fl_Gl_Window.obj
 0001:000747a0       ?find@Fl_Gl_Choice@@SAPAV1@HPBH@Z 004757a0 f   fltkgl:Fl_Gl_Choice.obj
 0001:00074a10       ?fl_create_gl_context@@YAPAUHGLRC__@@PAVFl_Window@@PBVFl_Gl_Choice@@H@Z 00475a10 f   fltkgl:Fl_Gl_Choice.obj
 0001:00074b10       ?fl_set_gl_context@@YAXPAVFl_Window@@PAUHGLRC__@@@Z 00475b10 f   fltkgl:Fl_Gl_Choice.obj
 0001:00074b60       ?fl_no_gl_context@@YAXXZ   00475b60 f   fltkgl:Fl_Gl_Choice.obj
 0001:00074b90       ?fl_delete_gl_context@@YAXPAUHGLRC__@@@Z 00475b90 f   fltkgl:Fl_Gl_Choice.obj
 0001:00074e10       ??_GFl_Device_Plugin@@UAEPAXI@Z 00475e10 f i fltkgl:Fl_Gl_Device_Plugin.obj
 0001:00074e10       ??_EFl_Device_Plugin@@UAEPAXI@Z 00475e10 f i fltkgl:Fl_Gl_Device_Plugin.obj
 0001:00074e40       ??_GFl_Gl_Device_Plugin@@UAEPAXI@Z 00475e40 f i fltkgl:Fl_Gl_Device_Plugin.obj
 0001:00074e40       ??_EFl_Gl_Device_Plugin@@UAEPAXI@Z 00475e40 f i fltkgl:Fl_Gl_Device_Plugin.obj
 0001:00074e70       ?klass@Fl_Device_Plugin@@UAEPBDXZ 00475e70 f i fltkgl:Fl_Gl_Device_Plugin.obj
 0001:00074e80       ?name@Fl_Gl_Device_Plugin@@UAEPBDXZ 00475e80 f i fltkgl:Fl_Gl_Device_Plugin.obj
 0001:00074e90       ?print@Fl_Gl_Device_Plugin@@UAEHPAVFl_Widget@@HHH@Z 00475e90 f i fltkgl:Fl_Gl_Device_Plugin.obj
 0001:00074ee0       ?gl_color@@YAXI@Z          00475ee0 f   fltkgl:gl_draw.obj
 0001:00074fa0       ?gl_rect@@YAXHHHH@Z        00475fa0 f   fltkgl:gl_draw.obj
 0001:00075050       ?gl_font@@YAXHH@Z          00476050 f   fltkgl:gl_draw.obj
 0001:000750c0       ?gl_height@@YAHXZ          004760c0 f   fltkgl:gl_draw.obj
 0001:000750e0       ?gl_descent@@YAHXZ         004760e0 f   fltkgl:gl_draw.obj
 0001:00075100       ?gl_width@@YANPBD@Z        00476100 f   fltkgl:gl_draw.obj
 0001:00075120       ?gl_width@@YANPBDH@Z       00476120 f   fltkgl:gl_draw.obj
 0001:00075150       ?gl_width@@YANE@Z          00476150 f   fltkgl:gl_draw.obj
 0001:00075170       ?gl_draw@@YAXPBD@Z         00476170 f   fltkgl:gl_draw.obj
 0001:00075190       ?gl_draw@@YAXPBDH@Z        00476190 f   fltkgl:gl_draw.obj
 0001:00075280       ?gl_draw@@YAXPBDHH@Z       00476280 f   fltkgl:gl_draw.obj
 0001:000752b0       ?gl_draw@@YAXPBDMM@Z       004762b0 f   fltkgl:gl_draw.obj
 0001:000752f0       ?gl_draw@@YAXPBDHHH@Z      004762f0 f   fltkgl:gl_draw.obj
 0001:00075320       ?gl_draw@@YAXPBDHMM@Z      00476320 f   fltkgl:gl_draw.obj
 0001:00075360       ?gl_draw@@YAXPBDHHHHI@Z    00476360 f   fltkgl:gl_draw.obj
 0001:000753a0       ?gl_measure@@YAXPBDAAH1@Z  004763a0 f   fltkgl:gl_draw.obj
 0001:000753c0       ?gl_draw_image@@YAXPBEHHHHHH@Z 004763c0 f   fltkgl:gl_draw.obj
 0001:00075430       ?gl_remove_displaylist_fonts@@YAXXZ 00476430 f   fltkgl:gl_draw.obj
 0001:00075605       _glClear@4                 00476605 f   opengl32:OPENGL32.dll
 0001:0007560b       _glClearColor@16           0047660b f   opengl32:OPENGL32.dll
 0001:00075611       _glDisable@4               00476611 f   opengl32:OPENGL32.dll
 0001:00075617       _glDrawBuffer@4            00476617 f   opengl32:OPENGL32.dll
 0001:0007561d       _glDrawPixels@20           0047661d f   opengl32:OPENGL32.dll
 0001:00075623       _glFlush@0                 00476623 f   opengl32:OPENGL32.dll
 0001:00075629       _glPixelStorei@8           00476629 f   opengl32:OPENGL32.dll
 0001:0007562f       _glRasterPos2i@8           0047662f f   opengl32:OPENGL32.dll
 0001:00075635       _wglRealizeLayerPalette@12 00476635 f   opengl32:OPENGL32.dll
 0001:0007563b       _wglSwapLayerBuffers@8     0047663b f   opengl32:OPENGL32.dll
 0001:00075641       _glCopyPixels@20           00476641 f   opengl32:OPENGL32.dll
 0001:00075647       _glGetIntegerv@8           00476647 f   opengl32:OPENGL32.dll
 0001:0007564d       _glLoadIdentity@0          0047664d f   opengl32:OPENGL32.dll
 0001:00075653       _glOrtho@48                00476653 f   opengl32:OPENGL32.dll
 0001:00075659       _glReadBuffer@4            00476659 f   opengl32:OPENGL32.dll
 0001:0007565f       _glViewport@16             0047665f f   opengl32:OPENGL32.dll
 0001:00075665       _wglCreateContext@4        00476665 f   opengl32:OPENGL32.dll
 0001:0007566b       _wglCreateLayerContext@8   0047666b f   opengl32:OPENGL32.dll
 0001:00075671       _wglDeleteContext@4        00476671 f   opengl32:OPENGL32.dll
 0001:00075677       _wglMakeCurrent@8          00476677 f   opengl32:OPENGL32.dll
 0001:0007567d       _wglShareLists@8           0047667d f   opengl32:OPENGL32.dll
 0001:00075683       _glPopClientAttrib@0       00476683 f   opengl32:OPENGL32.dll
 0001:00075689       _glPushClientAttrib@4      00476689 f   opengl32:OPENGL32.dll
 0001:0007568f       _glReadPixels@28           0047668f f   opengl32:OPENGL32.dll
 0001:00075695       _wglUseFontBitmapsW@16     00476695 f   opengl32:OPENGL32.dll
 0001:0007569b       _glBegin@4                 0047669b f   opengl32:OPENGL32.dll
 0001:000756a1       _glCallLists@12            004766a1 f   opengl32:OPENGL32.dll
 0001:000756a7       _glColor3ub@12             004766a7 f   opengl32:OPENGL32.dll
 0001:000756ad       _glDeleteLists@8           004766ad f   opengl32:OPENGL32.dll
 0001:000756b3       _glEnd@0                   004766b3 f   opengl32:OPENGL32.dll
 0001:000756b9       _glGenLists@4              004766b9 f   opengl32:OPENGL32.dll
 0001:000756bf       _glIndexi@4                004766bf f   opengl32:OPENGL32.dll
 0001:000756c5       _glListBase@4              004766c5 f   opengl32:OPENGL32.dll
 0001:000756cb       _glRasterPos2f@8           004766cb f   opengl32:OPENGL32.dll
 0001:000756d1       _glVertex2i@8              004766d1 f   opengl32:OPENGL32.dll
 0001:000756d7       _GetModuleHandleA@4        004766d7 f   kernel32:KERNEL32.dll
 0001:000756dd       _GetProcAddress@8          004766dd f   kernel32:KERNEL32.dll
 0001:000756e3       _GlobalAlloc@8             004766e3 f   kernel32:KERNEL32.dll
 0001:000756e9       _GlobalLock@4              004766e9 f   kernel32:KERNEL32.dll
 0001:000756ef       _GlobalUnlock@4            004766ef f   kernel32:KERNEL32.dll
 0001:000756f5       _LoadLibraryA@4            004766f5 f   kernel32:KERNEL32.dll
 0001:000756fb       _GetLocaleInfoA@16         004766fb f   kernel32:KERNEL32.dll
 0001:00075701       _GetLastError@0            00476701 f   kernel32:KERNEL32.dll
 0001:00075707       _MultiByteToWideChar@24    00476707 f   kernel32:KERNEL32.dll
 0001:0007570d       _WideCharToMultiByte@32    0047670d f   kernel32:KERNEL32.dll
 0001:00075713       _GetACP@0                  00476713 f   kernel32:KERNEL32.dll
 0001:00075719       _InitializeCriticalSection@4 00476719 f   kernel32:KERNEL32.dll
 0001:0007571f       _EnterCriticalSection@4    0047671f f   kernel32:KERNEL32.dll
 0001:00075725       _LeaveCriticalSection@4    00476725 f   kernel32:KERNEL32.dll
 0001:0007572b       _GetCurrentThreadId@0      0047672b f   kernel32:KERNEL32.dll
 0001:00075731       _GetComputerNameA@8        00476731 f   kernel32:KERNEL32.dll
 0001:00075737       _GetLogicalDrives@0        00476737 f   kernel32:KERNEL32.dll
 0001:0007573d       _FindClose@4               0047673d f   kernel32:KERNEL32.dll
 0001:00075743       _FindFirstFileW@8          00476743 f   kernel32:KERNEL32.dll
 0001:00075749       _FindNextFileW@8           00476749 f   kernel32:KERNEL32.dll
 0001:0007574f       _GetFileAttributesA@4      0047674f f   kernel32:KERNEL32.dll
 0001:00075755       _GetKeyboardLayout@4       00476755 f   user32:USER32.dll
 0001:0007575b       _RegisterWindowMessageW@4  0047675b f   user32:USER32.dll
 0001:00075761       _TranslateMessage@4        00476761 f   user32:USER32.dll
 0001:00075767       _DispatchMessageW@4        00476767 f   user32:USER32.dll
 0001:0007576d       _PeekMessageA@20           0047676d f   user32:USER32.dll
 0001:00075773       _PeekMessageW@20           00476773 f   user32:USER32.dll
 0001:00075779       _SendMessageA@16           00476779 f   user32:USER32.dll
 0001:0007577f       _PostMessageA@16           0047677f f   user32:USER32.dll
 0001:00075785       _DefWindowProcA@16         00476785 f   user32:USER32.dll
 0001:0007578b       _DefWindowProcW@16         0047678b f   user32:USER32.dll
 0001:00075791       _RegisterClassExA@4        00476791 f   user32:USER32.dll
 0001:00075797       _RegisterClassExW@4        00476797 f   user32:USER32.dll
 0001:0007579d       _CreateWindowExA@48        0047679d f   user32:USER32.dll
 0001:000757a3       _CreateWindowExW@48        004767a3 f   user32:USER32.dll
 0001:000757a9       _IsWindow@4                004767a9 f   user32:USER32.dll
 0001:000757af       _DestroyWindow@4           004767af f   user32:USER32.dll
 0001:000757b5       _ShowWindow@8              004767b5 f   user32:USER32.dll
 0001:000757bb       _OpenIcon@4                004767bb f   user32:USER32.dll
 0001:000757c1       _SetWindowPos@28           004767c1 f   user32:USER32.dll
 0001:000757c7       _IsIconic@4                004767c7 f   user32:USER32.dll
 0001:000757cd       _BringWindowToTop@4        004767cd f   user32:USER32.dll
 0001:000757d3       _OpenClipboard@4           004767d3 f   user32:USER32.dll
 0001:000757d9       _CloseClipboard@0          004767d9 f   user32:USER32.dll
 0001:000757df       _GetClipboardOwner@0       004767df f   user32:USER32.dll
 0001:000757e5       _SetClipboardViewer@4      004767e5 f   user32:USER32.dll
 0001:000757eb       _ChangeClipboardChain@8    004767eb f   user32:USER32.dll
 0001:000757f1       _SetClipboardData@8        004767f1 f   user32:USER32.dll
 0001:000757f7       _GetClipboardData@4        004767f7 f   user32:USER32.dll
 0001:000757fd       _EmptyClipboard@0          004767fd f   user32:USER32.dll
 0001:00075803       _IsClipboardFormatAvailable@4 00476803 f   user32:USER32.dll
 0001:00075809       _SetFocus@4                00476809 f   user32:USER32.dll
 0001:0007580f       _GetKeyState@4             0047680f f   user32:USER32.dll
 0001:00075815       _GetAsyncKeyState@4        00476815 f   user32:USER32.dll
 0001:0007581b       _SetCapture@4              0047681b f   user32:USER32.dll
 0001:00075821       _ReleaseCapture@0          00476821 f   user32:USER32.dll
 0001:00075827       _MsgWaitForMultipleObjects@20 00476827 f   user32:USER32.dll
 0001:0007582d       _SetTimer@16               0047682d f   user32:USER32.dll
 0001:00075833       _KillTimer@8               00476833 f   user32:USER32.dll
 0001:00075839       _GetSystemMetrics@4        00476839 f   user32:USER32.dll
 0001:0007583f       _GetForegroundWindow@0     0047683f f   user32:USER32.dll
 0001:00075845       _GetDC@4                   00476845 f   user32:USER32.dll
 0001:0007584b       _ReleaseDC@8               0047684b f   user32:USER32.dll
 0001:00075851       _GetUpdateRgn@12           00476851 f   user32:USER32.dll
 0001:00075857       _InvalidateRect@12         00476857 f   user32:USER32.dll
 0001:0007585d       _ValidateRgn@8             0047685d f   user32:USER32.dll
 0001:00075863       _SetWindowTextW@8          00476863 f   user32:USER32.dll
 0001:00075869       _GetWindowRect@8           00476869 f   user32:USER32.dll
 0001:0007586f       _AdjustWindowRectEx@16     0047686f f   user32:USER32.dll
 0001:00075875       _SetCursor@4               00476875 f   user32:USER32.dll
 0001:0007587b       _GetCursorPos@4            0047687b f   user32:USER32.dll
 0001:00075881       _ClientToScreen@8          00476881 f   user32:USER32.dll
 0001:00075887       _MapWindowPoints@16        00476887 f   user32:USER32.dll
 0001:0007588d       _GetWindowLongA@8          0047688d f   user32:USER32.dll
 0001:00075893       _SetWindowLongA@12         00476893 f   user32:USER32.dll
 0001:00075899       _GetParent@4               00476899 f   user32:USER32.dll
 0001:0007589f       _GetWindow@8               0047689f f   user32:USER32.dll
 0001:000758a5       _LoadCursorA@8             004768a5 f   user32:USER32.dll
 0001:000758ab       _LoadIconA@8               004768ab f   user32:USER32.dll
 0001:000758b1       _DestroyIcon@4             004768b1 f   user32:USER32.dll
 0001:000758b7       _CreateIconIndirect@4      004768b7 f   user32:USER32.dll
 0001:000758bd       _CopyIcon@4                004768bd f   user32:USER32.dll
 0001:000758c3       _SystemParametersInfoA@16  004768c3 f   user32:USER32.dll
 0001:000758c9       _MessageBeep@4             004768c9 f   user32:USER32.dll
 0001:000758cf       _PostThreadMessageA@16     004768cf f   user32:USER32.dll
 0001:000758d5       _FillRect@12               004768d5 f   user32:USER32.dll
 0001:000758db       _GetSysColor@4             004768db f   user32:USER32.dll
 0001:000758e1       _MessageBoxA@16            004768e1 f   user32:USER32.dll
 0001:000758e7       _SetForegroundWindow@4     004768e7 f   user32:USER32.dll
 0001:000758ed       _WindowFromPoint@8         004768ed f   user32:USER32.dll
 0001:000758f3       _SetActiveWindow@4         004768f3 f   user32:USER32.dll
 0001:000758f9       _SetWindowRgn@12           004768f9 f   user32:USER32.dll
 0001:000758ff       _SetRect@20                004768ff f   user32:USER32.dll
 0001:00075905       _GetDCEx@12                00476905 f   user32:USER32.dll
 0001:0007590b       _GetDeviceCaps@8           0047690b f   gdi32:GDI32.dll
 0001:00075911       _CombineRgn@16             00476911 f   gdi32:GDI32.dll
 0001:00075917       _CreateBitmap@20           00476917 f   gdi32:GDI32.dll
 0001:0007591d       _CreateCompatibleBitmap@12 0047691d f   gdi32:GDI32.dll
 0001:00075923       _CreateRectRgn@16          00476923 f   gdi32:GDI32.dll
 0001:00075929       _DeleteDC@4                00476929 f   gdi32:GDI32.dll
 0001:0007592f       _DeleteObject@4            0047692f f   gdi32:GDI32.dll
 0001:00075935       _RestoreDC@8               00476935 f   gdi32:GDI32.dll
 0001:0007593b       _SaveDC@4                  0047693b f   gdi32:GDI32.dll
 0001:00075941       _SetBkMode@8               00476941 f   gdi32:GDI32.dll
 0001:00075947       _SetDIBitsToDevice@48      00476947 f   gdi32:GDI32.dll
 0001:0007594d       _SetTextAlign@8            0047694d f   gdi32:GDI32.dll
 0001:00075953       _UpdateColors@4            00476953 f   gdi32:GDI32.dll
 0001:00075959       _GetEnhMetaFileHeader@12   00476959 f   gdi32:GDI32.dll
 0001:0007595f       _PlayEnhMetaFile@12        0047695f f   gdi32:GDI32.dll
 0001:00075965       _CreateDIBSection@24       00476965 f   gdi32:GDI32.dll
 0001:0007596b       _CreatePolygonRgn@12       0047696b f   gdi32:GDI32.dll
 0001:00075971       _LPtoDP@12                 00476971 f   gdi32:GDI32.dll
 0001:00075977       _GdiFlush@0                00476977 f   gdi32:GDI32.dll
 0001:0007597d       _CreateDCA@16              0047697d f   gdi32:GDI32.dll
 0001:00075983       _BitBlt@36                 00476983 f   gdi32:GDI32.dll
 0001:00075989       _CreateCompatibleDC@4      00476989 f   gdi32:GDI32.dll
 0001:0007598f       _SelectObject@8            0047698f f   gdi32:GDI32.dll
 0001:00075995       _CreatePalette@4           00476995 f   gdi32:GDI32.dll
 0001:0007599b       _CreatePen@12              0047699b f   gdi32:GDI32.dll
 0001:000759a1       _CreateSolidBrush@4        004769a1 f   gdi32:GDI32.dll
 0001:000759a7       _GetStockObject@4          004769a7 f   gdi32:GDI32.dll
 0001:000759ad       _RealizePalette@4          004769ad f   gdi32:GDI32.dll
 0001:000759b3       _SelectPalette@12          004769b3 f   gdi32:GDI32.dll
 0001:000759b9       _SetPixel@16               004769b9 f   gdi32:GDI32.dll
 0001:000759bf       _EqualRgn@8                004769bf f   gdi32:GDI32.dll
 0001:000759c5       _GetRgnBox@8               004769c5 f   gdi32:GDI32.dll
 0001:000759cb       _LineTo@12                 004769cb f   gdi32:GDI32.dll
 0001:000759d1       _RectInRegion@8            004769d1 f   gdi32:GDI32.dll
 0001:000759d7       _SelectClipRgn@8           004769d7 f   gdi32:GDI32.dll
 0001:000759dd       _MoveToEx@16               004769dd f   gdi32:GDI32.dll
 0001:000759e3       _DPtoLP@12                 004769e3 f   gdi32:GDI32.dll
 0001:000759e9       _Polygon@12                004769e9 f   gdi32:GDI32.dll
 0001:000759ef       _ExtCreatePen@20           004769ef f   gdi32:GDI32.dll
 0001:000759f5       _Arc@36                    004769f5 f   gdi32:GDI32.dll
 0001:000759fb       _Pie@36                    004769fb f   gdi32:GDI32.dll
 0001:00075a01       _PolyPolygon@16            00476a01 f   gdi32:GDI32.dll
 0001:00075a07       _Polyline@12               00476a07 f   gdi32:GDI32.dll
 0001:00075a0d       _CreateFontA@56            00476a0d f   gdi32:GDI32.dll
 0001:00075a13       _GetGlyphOutlineW@28       00476a13 f   gdi32:GDI32.dll
 0001:00075a19       _GetTextExtentPoint32W@16  00476a19 f   gdi32:GDI32.dll
 0001:00075a1f       _GetCharacterPlacementW@24 00476a1f f   gdi32:GDI32.dll
 0001:00075a25       _SetTextColor@8            00476a25 f   gdi32:GDI32.dll
 0001:00075a2b       _GetTextMetricsA@8         00476a2b f   gdi32:GDI32.dll
 0001:00075a31       _TextOutW@20               00476a31 f   gdi32:GDI32.dll
 0001:00075a37       _StretchDIBits@52          00476a37 f   gdi32:GDI32.dll
 0001:00075a3d       _GetDIBits@28              00476a3d f   gdi32:GDI32.dll
 0001:00075a43       _ExtCreateRegion@12        00476a43 f   gdi32:GDI32.dll
 0001:00075a49       _DescribePixelFormat@16    00476a49 f   gdi32:GDI32.dll
 0001:00075a4f       _SetPixelFormat@12         00476a4f f   gdi32:GDI32.dll
 0001:00075a55       _RegCloseKey@4             00476a55 f   advapi32:ADVAPI32.dll
 0001:00075a5b       _RegOpenKeyW@12            00476a5b f   advapi32:ADVAPI32.dll
 0001:00075a61       _RegQueryValueExW@24       00476a61 f   advapi32:ADVAPI32.dll
 0001:00075a67       _DragQueryFileW@16         00476a67 f   shell32:SHELL32.dll
 0001:00075a6d       _OleInitialize@4           00476a6d f   ole32:ole32.dll
 0001:00075a73       _OleUninitialize@0         00476a73 f   ole32:ole32.dll
 0001:00075a79       _RegisterDragDrop@8        00476a79 f   ole32:ole32.dll
 0001:00075a7f       _DoDragDrop@16             00476a7f f   ole32:ole32.dll
 0001:00075a85       _ReleaseStgMedium@4        00476a85 f   ole32:ole32.dll
 0001:00075a8b       ??2@YAPAXI@Z               00476a8b f   MSVCRT:new_scalar.obj
 0001:00075abb       ??3@YAXPAXI@Z              00476abb f   MSVCRT:delete_scalar_size.obj
 0001:00075ac9       @__security_check_cookie@4 00476ac9 f   MSVCRT:secchk.obj
 0001:00075ada       ??_U@YAPAXI@Z              00476ada f   MSVCRT:new_array.obj
 0001:00075ae3       ??_V@YAXPAX@Z              00476ae3 f   MSVCRT:delete_array.obj
 0001:00075ae8       ??1type_info@@UAE@XZ       00476ae8 f   MSVCRT:std_type_info_static.obj
 0001:00075aef       ??_Etype_info@@UAEPAXI@Z   00476aef f i MSVCRT:std_type_info_static.obj
 0001:00075aef       ??_Gtype_info@@UAEPAXI@Z   00476aef f i MSVCRT:std_type_info_static.obj
 0001:00075b12       ___raise_securityfailure   00476b12 f   MSVCRT:gs_report.obj
 0001:00075b3a       ___report_gsfailure        00476b3a f   MSVCRT:gs_report.obj
 0001:00075c33       ___report_rangecheckfailure 00476c33 f   MSVCRT:gs_report.obj
 0001:00075c3f       ___report_securityfailure  00476c3f f   MSVCRT:gs_report.obj
 0001:00075d0d       ___report_securityfailureEx 00476d0d f   MSVCRT:gs_report.obj
 0001:0007606c       ?configure_argv@__scrt_narrow_argv_policy@@SAHXZ 0047706c f i MSVCRT:exe_winmain.obj
 0001:00076079       ?initialize_environment@__scrt_narrow_environment_policy@@SAHXZ 00477079 f i MSVCRT:exe_winmain.obj
 0001:0007609c       ?set_app_type@__scrt_winmain_policy@@SAXXZ 0047709c f i MSVCRT:exe_winmain.obj
 0001:000760a5       ?set_commode@__scrt_file_policy@@SAXXZ 004770a5 f i MSVCRT:exe_winmain.obj
 0001:000760b6       ?set_fmode@__scrt_file_policy@@SAXXZ 004770b6 f i MSVCRT:exe_winmain.obj
 0001:000760c3       _WinMainCRTStartup         004770c3 f   MSVCRT:exe_winmain.obj
 0001:00076145       _NtCurrentTeb              00477145 f i MSVCRT:utility.obj
 0001:0007614c       ___scrt_acquire_startup_lock 0047714c f   MSVCRT:utility.obj
 0001:0007617e       ___scrt_dllmain_after_initialize_c 0047717e f   MSVCRT:utility.obj
 0001:000761a9       ___scrt_dllmain_before_initialize_c 004771a9 f   MSVCRT:utility.obj
 0001:000761b7       ___scrt_dllmain_crt_thread_attach 004771b7 f   MSVCRT:utility.obj
 0001:000761d6       ___scrt_dllmain_crt_thread_detach 004771d6 f   MSVCRT:utility.obj
 0001:000761e3       ___scrt_dllmain_exception_filter 004771e3 f   MSVCRT:utility.obj
 0001:00076217       ___scrt_dllmain_uninitialize_c 00477217 f   MSVCRT:utility.obj
 0001:0007623a       ___scrt_dllmain_uninitialize_critical 0047723a f   MSVCRT:utility.obj
 0001:00076247       ___scrt_initialize_crt     00477247 f   MSVCRT:utility.obj
 0001:00076280       ___scrt_initialize_onexit_tables 00477280 f   MSVCRT:utility.obj
 0001:00076307       ___scrt_is_nonwritable_in_current_image 00477307 f   MSVCRT:utility.obj
 0001:0007639b       ___scrt_release_startup_lock 0047739b f   MSVCRT:utility.obj
 0001:000763b8       ___scrt_uninitialize_crt   004773b8 f   MSVCRT:utility.obj
 0001:000763e0       __onexit                   004773e0 f   MSVCRT:utility.obj
 0001:0007640d       _at_quick_exit             0047740d f   MSVCRT:utility.obj
 0001:00076430       _atexit                    00477430 f   MSVCRT:utility.obj
 0001:0007650a       __Init_thread_abort        0047750a f   MSVCRT:thread_safe_statics.obj
 0001:0007652e       __Init_thread_footer       0047752e f   MSVCRT:thread_safe_statics.obj
 0001:00076578       __Init_thread_header       00477578 f   MSVCRT:thread_safe_statics.obj
 0001:000765ca       __Init_thread_lock         004775ca f   MSVCRT:thread_safe_statics.obj
 0001:000765d6       __Init_thread_notify       004775d6 f   MSVCRT:thread_safe_statics.obj
 0001:0007660c       __Init_thread_unlock       0047760c f   MSVCRT:thread_safe_statics.obj
 0001:00076618       __Init_thread_wait         00477618 f   MSVCRT:thread_safe_statics.obj
 0001:00076670       __ftoui3                   00477670 f   MSVCRT:ftol3.obj
 0001:000766b6       __ftoul3                   004776b6 f   MSVCRT:ftol3.obj
 0001:00076728       __ftol3                    00477728 f   MSVCRT:ftol3.obj
 0001:00076795       __dtoui3                   00477795 f   MSVCRT:ftol3.obj
 0001:00076809       __dtoul3                   00477809 f   MSVCRT:ftol3.obj
 0001:000768ab       __dtol3                    004778ab f   MSVCRT:ftol3.obj
 0001:00076960       __ultod3                   00477960 f   MSVCRT:ftol3.obj
 0001:000769c0       __ltod3                    004779c0 f   MSVCRT:ftol3.obj
 0001:00076a10       __allshr                   00477a10 f   MSVCRT:llshr.obj
 0001:00076a40       __ftoi2                    00477a40 f   MSVCRT:ftol2.obj
 0001:00076a40       __ftol2_sse                00477a40     MSVCRT:ftol2.obj
 0001:00076a40       __ftol2_sse_excpt          00477a40     MSVCRT:ftol2.obj
 0001:00076ac0       __ftoui2                   00477ac0 f   MSVCRT:ftol2.obj
 0001:00076b70       __ftol2                    00477b70 f   MSVCRT:ftol2.obj
 0001:00076c20       __ftoul2                   00477c20 f   MSVCRT:ftol2.obj
 0001:00076ce0       __chkstk                   00477ce0 f   MSVCRT:chkstk.obj
 0001:00076ce0       __alloca_probe             00477ce0 f   MSVCRT:chkstk.obj
 0001:00076d0d       ??0bad_alloc@std@@AAE@QBD@Z 00477d0d f i MSVCRT:throw_bad_alloc.obj
 0001:00076d2a       ??0bad_alloc@std@@QAE@XZ   00477d2a f i MSVCRT:throw_bad_alloc.obj
 0001:00076d42       ??0exception@std@@QAE@QBDH@Z 00477d42 f i MSVCRT:throw_bad_alloc.obj
 0001:00076d5f       ??1bad_alloc@std@@UAE@XZ   00477d5f f i MSVCRT:throw_bad_alloc.obj
 0001:00076d70       ?__scrt_throw_std_bad_alloc@@YAXXZ 00477d70 f   MSVCRT:throw_bad_alloc.obj
 0001:00076d8d       ?__scrt_throw_std_bad_array_new_length@@YAXXZ 00477d8d f   MSVCRT:throw_bad_alloc.obj
 0001:00076daa       ??3@YAXPAX@Z               00477daa f   MSVCRT:delete_scalar.obj
 0001:00076dfc       ___security_init_cookie    00477dfc f   MSVCRT:gs_support.obj
 0001:00076e47       __matherr                  00477e47 f   MSVCRT:matherr.obj
 0001:00076e4a       __get_startup_argv_mode    00477e4a f   MSVCRT:argv_mode.obj
 0001:00076e4e       __get_startup_commit_mode  00477e4e f   MSVCRT:commit_mode.obj
 0001:00076e51       __get_startup_file_mode    00477e51 f   MSVCRT:file_mode.obj
 0001:00076e57       __get_startup_new_mode     00477e57 f   MSVCRT:new_mode.obj
 0001:00076e5a       __get_startup_thread_locale_mode 00477e5a f   MSVCRT:thread_locale.obj
 0001:00076e5d       ?__scrt_initialize_type_info@@YAXXZ 00477e5d f   MSVCRT:tncleanup.obj
 0001:00076e69       ?__scrt_uninitialize_type_info@@YAXXZ 00477e69 f   MSVCRT:tncleanup.obj
 0001:00076e75       __should_initialize_environment 00477e75 f   MSVCRT:env_mode.obj
 0001:00076e78       __initialize_default_precision 00477e78 f   MSVCRT:default_precision.obj
 0001:00076e99       __initialize_invalid_parameter_handler 00477e99 f   MSVCRT:invalid_parameter_handler.obj
 0001:00076e9a       __initialize_denormal_control 00477e9a f   MSVCRT:denormal_control.obj
 0001:00076e9b       ___scrt_initialize_default_local_stdio_options 00477e9b f   MSVCRT:default_local_stdio_options.obj
 0001:00076eb8       ___scrt_is_user_matherr_present 00477eb8 f   MSVCRT:matherr_detection.obj
 0001:00076ec4       ___scrt_get_dyn_tls_init_callback 00477ec4 f   MSVCRT:dyn_tls_init.obj
 0001:00076eca       ___scrt_get_dyn_tls_dtor_callback 00477eca f   MSVCRT:dyn_tls_dtor.obj
 0001:00076ed0       ___scrt_fastfail           00477ed0 f   MSVCRT:utility_desktop.obj
 0001:00076fea       ___scrt_get_show_window_mode 00477fea f   MSVCRT:utility_desktop.obj
 0001:0007701b       ___scrt_initialize_mta     0047801b f   MSVCRT:utility_desktop.obj
 0001:00077020       ___scrt_initialize_winrt   00478020 f   MSVCRT:utility_desktop.obj
 0001:00077023       ___scrt_is_managed_app     00478023 f   MSVCRT:utility_desktop.obj
 0001:00077066       ___scrt_set_unhandled_exception_filter 00478066 f   MSVCRT:utility_desktop.obj
 0001:00077072       ___scrt_exe_initialize_mta 00478072 f   MSVCRT:utility_desktop.obj
 0001:00077072       ___scrt_stub_for_initialize_mta 00478072 f   MSVCRT:utility_desktop.obj
 0001:00077075       ___scrt_unhandled_exception_filter@4 00478075 f   MSVCRT:utility_desktop.obj
 0001:000770cb       __crt_debugger_hook        004780cb f   MSVCRT:utility_desktop.obj
 0001:000770d3       __RTC_Initialize           004780d3 f   MSVCRT:initsect.obj
 0001:000770ff       __RTC_Terminate            004780ff f   MSVCRT:initsect.obj
 0001:00077130       __SEH_prolog4              00478130 f   MSVCRT:sehprolg4.obj
 0001:00077176       __SEH_epilog4              00478176 f   MSVCRT:sehprolg4.obj
 0001:0007718b       __except_handler4          0047818b f   MSVCRT:chandler4gs.obj
 0001:000771ba       @_guard_check_icall_nop@4  004781ba f i MSVCRT:guard_support.obj
 0001:000771bb       _ReadNoFence               004781bb f i MSVCRT:guard_support.obj
 0001:000771c5       _ReadPointerNoFence        004781c5 f i MSVCRT:guard_support.obj
 0001:000771cf       __guard_icall_checks_enforced 004781cf f i MSVCRT:guard_support.obj
 0001:000771e1       ___isa_available_init      004781e1 f   MSVCRT:cpu_disp.obj
 0001:000773b1       ___scrt_is_ucrt_dll_in_use 004783b1 f   MSVCRT:ucrt_detection.obj
 0001:000773bd       ?_Xlength_error@std@@YAXPBD@Z 004783bd f   msvcprt:MSVCP140.dll
 0001:000773c3       ?uncaught_exception@std@@YA_NXZ 004783c3 f   msvcprt:MSVCP140.dll
 0001:000773c9       ?_Xout_of_range@std@@YAXPBD@Z 004783c9 f   msvcprt:MSVCP140.dll
 0001:000773cf       ?sputc@?$basic_streambuf@DU?$char_traits@D@std@@@std@@QAEHD@Z 004783cf f   msvcprt:MSVCP140.dll
 0001:000773d5       ?sputn@?$basic_streambuf@DU?$char_traits@D@std@@@std@@QAE_JPBD_J@Z 004783d5 f   msvcprt:MSVCP140.dll
 0001:000773db       ?setstate@?$basic_ios@DU?$char_traits@D@std@@@std@@QAEXH_N@Z 004783db f   msvcprt:MSVCP140.dll
 0001:000773e1       ?_Osfx@?$basic_ostream@DU?$char_traits@D@std@@@std@@QAEXXZ 004783e1 f   msvcprt:MSVCP140.dll
 0001:000773e7       ??6?$basic_ostream@DU?$char_traits@D@std@@@std@@QAEAAV01@N@Z 004783e7 f   msvcprt:MSVCP140.dll
 0001:000773ed       ?flush@?$basic_ostream@DU?$char_traits@D@std@@@std@@QAEAAV12@XZ 004783ed f   msvcprt:MSVCP140.dll
 0001:000773f3       ?get@?$basic_istream@DU?$char_traits@D@std@@@std@@QAEHXZ 004783f3 f   msvcprt:MSVCP140.dll
 0001:000773f9       ?peek@?$basic_istream@DU?$char_traits@D@std@@@std@@QAEHXZ 004783f9 f   msvcprt:MSVCP140.dll
 0001:000773ff       ??0_Lockit@std@@QAE@H@Z    004783ff f   msvcprt:MSVCP140.dll
 0001:00077405       ??1_Lockit@std@@QAE@XZ     00478405 f   msvcprt:MSVCP140.dll
 0001:0007740b       ??0_Fac_node@std@@QAE@PAU01@PAV_Facet_base@1@@Z 0047840b f i msvcprt:locale0_implib.obj
 0001:0007741f       ??1_Fac_node@std@@QAE@XZ   0047841f f i msvcprt:locale0_implib.obj
 0001:00077450       ??1_Fac_tidy_reg_t@std@@QAE@XZ 00478450 f i msvcprt:locale0_implib.obj
 0001:00077477       ??_G_Fac_node@std@@QAEPAXI@Z 00478477 f i msvcprt:locale0_implib.obj
 0001:00077499       ?_Facet_Register@std@@YAXPAV_Facet_base@1@@Z 00478499 f   msvcprt:locale0_implib.obj
 0001:000774c5       ??Bid@locale@std@@QAEIXZ   004784c5 f   msvcprt:MSVCP140.dll
 0001:000774cb       ?_Getgloballocale@locale@std@@CAPAV_Locimp@12@XZ 004784cb f   msvcprt:MSVCP140.dll
 0001:000774d1       ?always_noconv@codecvt_base@std@@QBE_NXZ 004784d1 f   msvcprt:MSVCP140.dll
 0001:000774d7       ?in@?$codecvt@DDU_Mbstatet@@@std@@QBEHAAU_Mbstatet@@PBD1AAPBDPAD3AAPAD@Z 004784d7 f   msvcprt:MSVCP140.dll
 0001:000774dd       ?out@?$codecvt@DDU_Mbstatet@@@std@@QBEHAAU_Mbstatet@@PBD1AAPBDPAD3AAPAD@Z 004784dd f   msvcprt:MSVCP140.dll
 0001:000774e3       ?unshift@?$codecvt@DDU_Mbstatet@@@std@@QBEHAAU_Mbstatet@@PAD1AAPAD@Z 004784e3 f   msvcprt:MSVCP140.dll
 0001:000774e9       ?_Getcat@?$codecvt@DDU_Mbstatet@@@std@@SAIPAPBVfacet@locale@2@PBV42@@Z 004784e9 f   msvcprt:MSVCP140.dll
 0001:000774ef       ??0?$basic_streambuf@DU?$char_traits@D@std@@@std@@IAE@XZ 004784ef f   msvcprt:MSVCP140.dll
 0001:000774f5       ??1?$basic_streambuf@DU?$char_traits@D@std@@@std@@UAE@XZ 004784f5 f   msvcprt:MSVCP140.dll
 0001:000774fb       ?getloc@?$basic_streambuf@DU?$char_traits@D@std@@@std@@QBE?AVlocale@2@XZ 004784fb f   msvcprt:MSVCP140.dll
 0001:00077501       ?_Pninc@?$basic_streambuf@DU?$char_traits@D@std@@@std@@IAEPADXZ 00478501 f   msvcprt:MSVCP140.dll
 0001:00077507       ?_Init@?$basic_streambuf@DU?$char_traits@D@std@@@std@@IAEXXZ 00478507 f   msvcprt:MSVCP140.dll
 0001:0007750d       ?xsgetn@?$basic_streambuf@DU?$char_traits@D@std@@@std@@MAE_JPAD_J@Z 0047850d f   msvcprt:MSVCP140.dll
 0001:00077513       ?xsputn@?$basic_streambuf@DU?$char_traits@D@std@@@std@@MAE_JPBD_J@Z 00478513 f   msvcprt:MSVCP140.dll
 0001:00077519       ??1?$basic_ios@DU?$char_traits@D@std@@@std@@UAE@XZ 00478519 f   msvcprt:MSVCP140.dll
 0001:0007751f       ?widen@?$basic_ios@DU?$char_traits@D@std@@@std@@QBEDD@Z 0047851f f   msvcprt:MSVCP140.dll
 0001:00077525       ??0?$basic_ios@DU?$char_traits@D@std@@@std@@IAE@XZ 00478525 f   msvcprt:MSVCP140.dll
 0001:0007752b       ??0?$basic_ostream@DU?$char_traits@D@std@@@std@@QAE@PAV?$basic_streambuf@DU?$char_traits@D@std@@@1@_N@Z 0047852b f   msvcprt:MSVCP140.dll
 0001:00077531       ??1?$basic_ostream@DU?$char_traits@D@std@@@std@@UAE@XZ 00478531 f   msvcprt:MSVCP140.dll
 0001:00077537       ??6?$basic_ostream@DU?$char_traits@D@std@@@std@@QAEAAV01@P6AAAV01@AAV01@@Z@Z 00478537 f   msvcprt:MSVCP140.dll
 0001:0007753d       ??6?$basic_ostream@DU?$char_traits@D@std@@@std@@QAEAAV01@I@Z 0047853d f   msvcprt:MSVCP140.dll
 0001:00077543       ??6?$basic_ostream@DU?$char_traits@D@std@@@std@@QAEAAV01@M@Z 00478543 f   msvcprt:MSVCP140.dll
 0001:00077549       ?put@?$basic_ostream@DU?$char_traits@D@std@@@std@@QAEAAV12@D@Z 00478549 f   msvcprt:MSVCP140.dll
 0001:0007754f       ??0?$basic_istream@DU?$char_traits@D@std@@@std@@QAE@PAV?$basic_streambuf@DU?$char_traits@D@std@@@1@_N@Z 0047854f f   msvcprt:MSVCP140.dll
 0001:00077555       ??1?$basic_istream@DU?$char_traits@D@std@@@std@@UAE@XZ 00478555 f   msvcprt:MSVCP140.dll
 0001:0007755b       ??5?$basic_istream@DU?$char_traits@D@std@@@std@@QAEAAV01@AAM@Z 0047855b f   msvcprt:MSVCP140.dll
 0001:00077561       ?get@?$basic_istream@DU?$char_traits@D@std@@@std@@QAEAAV12@AAD@Z 00478561 f   msvcprt:MSVCP140.dll
 0001:00077567       ?_Fiopen@std@@YAPAU_iobuf@@PBDHH@Z 00478567 f   msvcprt:MSVCP140.dll
 0001:0007756d       ?_Lock@?$basic_streambuf@DU?$char_traits@D@std@@@std@@UAEXXZ 0047856d f   msvcprt:MSVCP140.dll
 0001:00077573       ?_Unlock@?$basic_streambuf@DU?$char_traits@D@std@@@std@@UAEXXZ 00478573 f   msvcprt:MSVCP140.dll
 0001:00077579       ?imbue@?$basic_streambuf@DU?$char_traits@D@std@@@std@@MAEXABVlocale@2@@Z 00478579 f   msvcprt:MSVCP140.dll
 0001:0007757f       ?setbuf@?$basic_streambuf@DU?$char_traits@D@std@@@std@@MAEPAV12@PAD_J@Z 0047857f f   msvcprt:MSVCP140.dll
 0001:00077585       ?showmanyc@?$basic_streambuf@DU?$char_traits@D@std@@@std@@MAE_JXZ 00478585 f   msvcprt:MSVCP140.dll
 0001:0007758b       ?sync@?$basic_streambuf@DU?$char_traits@D@std@@@std@@MAEHXZ 0047858b f   msvcprt:MSVCP140.dll
 0001:00077591       ?uflow@?$basic_streambuf@DU?$char_traits@D@std@@@std@@MAEHXZ 00478591 f   msvcprt:MSVCP140.dll
 0001:00077597       __TrackMouseEvent@4        00478597 f   comctl32:COMCTL32.dll
 0001:0007759d       _strchr                    0047859d f   vcruntime:VCRUNTIME140.dll
 0001:000775a3       ___CxxFrameHandler3        004785a3 f   vcruntime:VCRUNTIME140.dll
 0001:000775a9       ___std_terminate           004785a9 f   vcruntime:VCRUNTIME140.dll
 0001:000775af       ___std_exception_copy      004785af f   vcruntime:VCRUNTIME140.dll
 0001:000775b5       ___std_exception_destroy   004785b5 f   vcruntime:VCRUNTIME140.dll
 0001:000775bb       __CxxThrowException@8      004785bb f   vcruntime:VCRUNTIME140.dll
 0001:000775c1       _memcpy                    004785c1 f   vcruntime:VCRUNTIME140.dll
 0001:000775c7       _memmove                   004785c7 f   vcruntime:VCRUNTIME140.dll
 0001:000775cd       _memset                    004785cd f   vcruntime:VCRUNTIME140.dll
 0001:000775d3       __purecall                 004785d3 f   vcruntime:VCRUNTIME140.dll
 0001:000775d9       _strrchr                   004785d9 f   vcruntime:VCRUNTIME140.dll
 0001:000775df       _memcmp                    004785df f   vcruntime:VCRUNTIME140.dll
 0001:000775e5       _strstr                    004785e5 f   vcruntime:VCRUNTIME140.dll
 0001:000775eb       ___std_type_info_destroy_list 004785eb f   vcruntime:VCRUNTIME140.dll
 0001:000775f1       ___current_exception       004785f1 f   vcruntime:VCRUNTIME140.dll
 0001:000775f7       ___current_exception_context 004785f7 f   vcruntime:VCRUNTIME140.dll
 0001:000775fd       __except_handler4_common   004785fd f   vcruntime:VCRUNTIME140.dll
 0001:00077603       _ispunct                   00478603 f   ucrt:api-ms-win-crt-string-l1-1-0.dll
 0001:00077609       _isalnum                   00478609 f   ucrt:api-ms-win-crt-string-l1-1-0.dll
 0001:0007760f       ___acrt_iob_func           0047860f f   ucrt:api-ms-win-crt-stdio-l1-1-0.dll
 0001:00077615       ___stdio_common_vfprintf   00478615 f   ucrt:api-ms-win-crt-stdio-l1-1-0.dll
 0001:0007761b       _exit                      0047861b f   ucrt:api-ms-win-crt-runtime-l1-1-0.dll
 0001:00077621       _atoi                      00478621 f   ucrt:api-ms-win-crt-convert-l1-1-0.dll
 0001:00077627       _clock                     00478627 f   ucrt:api-ms-win-crt-time-l1-1-0.dll
 0001:0007762d       __invalid_parameter_noinfo_noreturn 0047862d f   ucrt:api-ms-win-crt-runtime-l1-1-0.dll
 0001:00077633       _rand                      00478633 f   ucrt:api-ms-win-crt-utility-l1-1-0.dll
 0001:00077639       __libm_sse2_sqrt_precise   00478639 f   ucrt:api-ms-win-crt-math-l1-1-0.dll
 0001:0007763f       ___stdio_common_vsprintf   0047863f f   ucrt:api-ms-win-crt-stdio-l1-1-0.dll
 0001:00077645       _fclose                    00478645 f   ucrt:api-ms-win-crt-stdio-l1-1-0.dll
 0001:0007764b       _fopen                     0047864b f   ucrt:api-ms-win-crt-stdio-l1-1-0.dll
 0001:00077651       _fread                     00478651 f   ucrt:api-ms-win-crt-stdio-l1-1-0.dll
 0001:00077657       _fseek                     00478657 f   ucrt:api-ms-win-crt-stdio-l1-1-0.dll
 0001:0007765d       _fwrite                    0047865d f   ucrt:api-ms-win-crt-stdio-l1-1-0.dll
 0001:00077663       _atof                      00478663 f   ucrt:api-ms-win-crt-convert-l1-1-0.dll
 0001:00077669       _free                      00478669 f   ucrt:api-ms-win-crt-heap-l1-1-0.dll
 0001:0007766f       _malloc                    0047866f f   ucrt:api-ms-win-crt-heap-l1-1-0.dll
 0001:00077675       __get_stream_buffer_pointers 00478675 f   ucrt:api-ms-win-crt-stdio-l1-1-0.dll
 0001:0007767b       _fflush                    0047867b f   ucrt:api-ms-win-crt-stdio-l1-1-0.dll
 0001:00077681       _fgetc                     00478681 f   ucrt:api-ms-win-crt-stdio-l1-1-0.dll
 0001:00077687       _fgetpos                   00478687 f   ucrt:api-ms-win-crt-stdio-l1-1-0.dll
 0001:0007768d       _fputc                     0047868d f   ucrt:api-ms-win-crt-stdio-l1-1-0.dll
 0001:00077693       _fsetpos                   00478693 f   ucrt:api-ms-win-crt-stdio-l1-1-0.dll
 0001:00077699       __fseeki64                 00478699 f   ucrt:api-ms-win-crt-stdio-l1-1-0.dll
 0001:0007769f       _setvbuf                   0047869f f   ucrt:api-ms-win-crt-stdio-l1-1-0.dll
 0001:000776a5       _ungetc                    004786a5 f   ucrt:api-ms-win-crt-stdio-l1-1-0.dll
 0001:000776ab       __lock_file                004786ab f   ucrt:api-ms-win-crt-filesystem-l1-1-0.dll
 0001:000776b1       __unlock_file              004786b1 f   ucrt:api-ms-win-crt-filesystem-l1-1-0.dll
 0001:000776b7       __libm_sse2_cos_precise    004786b7 f   ucrt:api-ms-win-crt-math-l1-1-0.dll
 0001:000776bd       __libm_sse2_sin_precise    004786bd f   ucrt:api-ms-win-crt-math-l1-1-0.dll
 0001:000776c3       __libm_sse2_tan_precise    004786c3 f   ucrt:api-ms-win-crt-math-l1-1-0.dll
 0001:000776c9       __libm_sse2_pow_precise    004786c9 f   ucrt:api-ms-win-crt-math-l1-1-0.dll
 0001:000776cf       _isalpha                   004786cf f   ucrt:api-ms-win-crt-string-l1-1-0.dll
 0001:000776d5       _isupper                   004786d5 f   ucrt:api-ms-win-crt-string-l1-1-0.dll
 0001:000776db       _toupper                   004786db f   ucrt:api-ms-win-crt-string-l1-1-0.dll
 0001:000776e1       _tolower                   004786e1 f   ucrt:api-ms-win-crt-string-l1-1-0.dll
 0001:000776e7       _wcslen                    004786e7 f   ucrt:api-ms-win-crt-string-l1-1-0.dll
 0001:000776ed       _strcmp                    004786ed f   ucrt:api-ms-win-crt-string-l1-1-0.dll
 0001:000776f3       __strdup                   004786f3 f   ucrt:api-ms-win-crt-string-l1-1-0.dll
 0001:000776f9       _strlen                    004786f9 f   ucrt:api-ms-win-crt-string-l1-1-0.dll
 0001:000776ff       _realloc                   004786ff f   ucrt:api-ms-win-crt-heap-l1-1-0.dll
 0001:00077705       _abs                       00478705 f   ucrt:api-ms-win-crt-utility-l1-1-0.dll
 0001:0007770b       _atol                      0047870b f   ucrt:api-ms-win-crt-convert-l1-1-0.dll
 0001:00077711       _raise                     00478711 f   ucrt:api-ms-win-crt-runtime-l1-1-0.dll
 0001:00077717       _strcat                    00478717 f   ucrt:api-ms-win-crt-string-l1-1-0.dll
 0001:0007771d       _strcpy                    0047871d f   ucrt:api-ms-win-crt-string-l1-1-0.dll
 0001:00077723       _isdigit                   00478723 f   ucrt:api-ms-win-crt-string-l1-1-0.dll
 0001:00077729       _fabs                      00478729 f   ucrt:api-ms-win-crt-math-l1-1-0.dll
 0001:0007772f       _rint                      0047872f f   ucrt:api-ms-win-crt-math-l1-1-0.dll
 0001:00077735       _fgets                     00478735 f   ucrt:api-ms-win-crt-stdio-l1-1-0.dll
 0001:0007773b       _wcscpy                    0047873b f   ucrt:api-ms-win-crt-string-l1-1-0.dll
 0001:00077741       _strcspn                   00478741 f   ucrt:api-ms-win-crt-string-l1-1-0.dll
 0001:00077747       _strncmp                   00478747 f   ucrt:api-ms-win-crt-string-l1-1-0.dll
 0001:0007774d       __time64                   0047874d f   ucrt:api-ms-win-crt-time-l1-1-0.dll
 0001:00077753       _cos                       00478753 f   ucrt:api-ms-win-crt-math-l1-1-0.dll
 0001:00077759       _sin                       00478759 f   ucrt:api-ms-win-crt-math-l1-1-0.dll
 0001:0007775f       _sqrt                      0047875f f   ucrt:api-ms-win-crt-math-l1-1-0.dll
 0001:00077765       _acos                      00478765 f   ucrt:api-ms-win-crt-math-l1-1-0.dll
 0001:0007776b       _ceil                      0047876b f   ucrt:api-ms-win-crt-math-l1-1-0.dll
 0001:00077771       ___stdio_common_vsscanf    00478771 f   ucrt:api-ms-win-crt-stdio-l1-1-0.dll
 0001:00077777       _isspace                   00478777 f   ucrt:api-ms-win-crt-string-l1-1-0.dll
 0001:0007777d       _getenv                    0047877d f   ucrt:api-ms-win-crt-environment-l1-1-0.dll
 0001:00077783       __putenv                   00478783 f   ucrt:api-ms-win-crt-environment-l1-1-0.dll
 0001:00077789       _log                       00478789 f   ucrt:api-ms-win-crt-math-l1-1-0.dll
 0001:0007778f       _pow                       0047878f f   ucrt:api-ms-win-crt-math-l1-1-0.dll
 0001:00077795       __waccess                  00478795 f   ucrt:api-ms-win-crt-filesystem-l1-1-0.dll
 0001:0007779b       __wchmod                   0047879b f   ucrt:api-ms-win-crt-filesystem-l1-1-0.dll
 0001:000777a1       __wunlink                  004787a1 f   ucrt:api-ms-win-crt-filesystem-l1-1-0.dll
 0001:000777a7       __wrename                  004787a7 f   ucrt:api-ms-win-crt-filesystem-l1-1-0.dll
 0001:000777ad       __wsopen_dispatch          004787ad f   ucrt:api-ms-win-crt-stdio-l1-1-0.dll
 0001:000777b3       __wexecvp                  004787b3 f   ucrt:api-ms-win-crt-process-l1-1-0.dll
 0001:000777b9       __wsystem                  004787b9 f   ucrt:api-ms-win-crt-runtime-l1-1-0.dll
 0001:000777bf       __wgetcwd                  004787bf f   ucrt:api-ms-win-crt-environment-l1-1-0.dll
 0001:000777c5       __wmkdir                   004787c5 f   ucrt:api-ms-win-crt-filesystem-l1-1-0.dll
 0001:000777cb       __wrmdir                   004787cb f   ucrt:api-ms-win-crt-filesystem-l1-1-0.dll
 0001:000777d1       __wfopen                   004787d1 f   ucrt:api-ms-win-crt-stdio-l1-1-0.dll
 0001:000777d7       __wgetenv                  004787d7 f   ucrt:api-ms-win-crt-environment-l1-1-0.dll
 0001:000777dd       _wcstombs                  004787dd f   ucrt:api-ms-win-crt-convert-l1-1-0.dll
 0001:000777e3       __wstat64i32               004787e3 f   ucrt:api-ms-win-crt-filesystem-l1-1-0.dll
 0001:000777e9       _strncpy                   004787e9 f   ucrt:api-ms-win-crt-string-l1-1-0.dll
 0001:000777ef       _strtol                    004787ef f   ucrt:api-ms-win-crt-convert-l1-1-0.dll
 0001:000777f5       _isxdigit                  004787f5 f   ucrt:api-ms-win-crt-string-l1-1-0.dll
 0001:000777fb       _localeconv                004787fb f   ucrt:api-ms-win-crt-locale-l1-1-0.dll
 0001:00077801       __stricmp                  00478801 f   ucrt:api-ms-win-crt-string-l1-1-0.dll
 0001:00077807       __errno                    00478807 f   ucrt:api-ms-win-crt-runtime-l1-1-0.dll
 0001:0007780d       _strerror                  0047880d f   ucrt:api-ms-win-crt-runtime-l1-1-0.dll
 0001:00077813       __strnicmp                 00478813 f   ucrt:api-ms-win-crt-string-l1-1-0.dll
 0001:00077819       _isprint                   00478819 f   ucrt:api-ms-win-crt-string-l1-1-0.dll
 0001:0007781f       __mkdir                    0047881f f   ucrt:api-ms-win-crt-filesystem-l1-1-0.dll
 0001:00077825       __access                   00478825 f   ucrt:api-ms-win-crt-filesystem-l1-1-0.dll
 0001:0007782b       _calloc                    0047882b f   ucrt:api-ms-win-crt-heap-l1-1-0.dll
 0001:00077831       _bsearch                   00478831 f   ucrt:api-ms-win-crt-utility-l1-1-0.dll
 0001:00077837       _qsort                     00478837 f   ucrt:api-ms-win-crt-utility-l1-1-0.dll
 0001:0007783d       _islower                   0047883d f   ucrt:api-ms-win-crt-string-l1-1-0.dll
 0001:00077843       __callnewh                 00478843 f   ucrt:api-ms-win-crt-heap-l1-1-0.dll
 0001:00077849       __seh_filter_exe           00478849 f   ucrt:api-ms-win-crt-runtime-l1-1-0.dll
 0001:0007784f       __set_app_type             0047884f f   ucrt:api-ms-win-crt-runtime-l1-1-0.dll
 0001:00077855       ___setusermatherr          00478855 f   ucrt:api-ms-win-crt-math-l1-1-0.dll
 0001:0007785b       __configure_narrow_argv    0047885b f   ucrt:api-ms-win-crt-runtime-l1-1-0.dll
 0001:00077861       __initialize_narrow_environment 00478861 f   ucrt:api-ms-win-crt-runtime-l1-1-0.dll
 0001:00077867       __get_narrow_winmain_command_line 00478867 f   ucrt:api-ms-win-crt-runtime-l1-1-0.dll
 0001:0007786d       __initterm                 0047886d f   ucrt:api-ms-win-crt-runtime-l1-1-0.dll
 0001:00077873       __initterm_e               00478873 f   ucrt:api-ms-win-crt-runtime-l1-1-0.dll
 0001:00077879       __exit                     00478879 f   ucrt:api-ms-win-crt-runtime-l1-1-0.dll
 0001:0007787f       __set_fmode                0047887f f   ucrt:api-ms-win-crt-stdio-l1-1-0.dll
 0001:00077885       __cexit                    00478885 f   ucrt:api-ms-win-crt-runtime-l1-1-0.dll
 0001:0007788b       __c_exit                   0047888b f   ucrt:api-ms-win-crt-runtime-l1-1-0.dll
 0001:00077891       __register_thread_local_exe_atexit_callback 00478891 f   ucrt:api-ms-win-crt-runtime-l1-1-0.dll
 0001:00077897       __configthreadlocale       00478897 f   ucrt:api-ms-win-crt-locale-l1-1-0.dll
 0001:0007789d       __set_new_mode             0047889d f   ucrt:api-ms-win-crt-heap-l1-1-0.dll
 0001:000778a3       ___p__commode              004788a3 f   ucrt:api-ms-win-crt-stdio-l1-1-0.dll
 0001:000778a9       __seh_filter_dll           004788a9 f   ucrt:api-ms-win-crt-runtime-l1-1-0.dll
 0001:000778af       __initialize_onexit_table  004788af f   ucrt:api-ms-win-crt-runtime-l1-1-0.dll
 0001:000778b5       __register_onexit_function 004788b5 f   ucrt:api-ms-win-crt-runtime-l1-1-0.dll
 0001:000778bb       __execute_onexit_table     004788bb f   ucrt:api-ms-win-crt-runtime-l1-1-0.dll
 0001:000778c1       __crt_atexit               004788c1 f   ucrt:api-ms-win-crt-runtime-l1-1-0.dll
 0001:000778c7       __crt_at_quick_exit        004788c7 f   ucrt:api-ms-win-crt-runtime-l1-1-0.dll
 0001:000778cd       __except1                  004788cd f   ucrt:api-ms-win-crt-math-l1-1-0.dll
 0001:000778d3       __controlfp_s              004788d3 f   ucrt:api-ms-win-crt-runtime-l1-1-0.dll
 0001:000778d9       _terminate                 004788d9 f   ucrt:api-ms-win-crt-runtime-l1-1-0.dll
 0001:000778e0       _WinMain@16                004788e0 f   fltk:fl_call_main.obj
 0001:00077b2b       _UnhandledExceptionFilter@4 00478b2b f   kernel32:KERNEL32.dll
 0001:00077b31       _SetUnhandledExceptionFilter@4 00478b31 f   kernel32:KERNEL32.dll
 0001:00077b37       _GetCurrentProcess@0       00478b37 f   kernel32:KERNEL32.dll
 0001:00077b3d       _TerminateProcess@8        00478b3d f   kernel32:KERNEL32.dll
 0001:00077b43       _IsProcessorFeaturePresent@4 00478b43 f   kernel32:KERNEL32.dll
 0001:00077b49       _CloseHandle@4             00478b49 f   kernel32:KERNEL32.dll
 0001:00077b4f       _InitializeCriticalSectionAndSpinCount@8 00478b4f f   kernel32:KERNEL32.dll
 0001:00077b55       _DeleteCriticalSection@4   00478b55 f   kernel32:KERNEL32.dll
 0001:00077b5b       _SetEvent@4                00478b5b f   kernel32:KERNEL32.dll
 0001:00077b61       _ResetEvent@4              00478b61 f   kernel32:KERNEL32.dll
 0001:00077b67       _WaitForSingleObjectEx@12  00478b67 f   kernel32:KERNEL32.dll
 0001:00077b6d       _CreateEventW@16           00478b6d f   kernel32:KERNEL32.dll
 0001:00077b73       _GetModuleHandleW@4        00478b73 f   kernel32:KERNEL32.dll
 0001:00077b79       _QueryPerformanceCounter@4 00478b79 f   kernel32:KERNEL32.dll
 0001:00077b7f       _GetCurrentProcessId@0     00478b7f f   kernel32:KERNEL32.dll
 0001:00077b85       _GetSystemTimeAsFileTime@4 00478b85 f   kernel32:KERNEL32.dll
 0001:00077b8b       _InitializeSListHead@4     00478b8b f   kernel32:KERNEL32.dll
 0001:00077b91       _IsDebuggerPresent@0       00478b91 f   kernel32:KERNEL32.dll
 0001:00077b97       _GetStartupInfoW@4         00478b97 f   kernel32:KERNEL32.dll
 0001:00077b9d       _mbstowcs                  00478b9d f   ucrt:api-ms-win-crt-convert-l1-1-0.dll
 0001:00077ba3       ___p___argc                00478ba3 f   ucrt:api-ms-win-crt-runtime-l1-1-0.dll
 0001:00077ba9       ___p___argv                00478ba9 f   ucrt:api-ms-win-crt-runtime-l1-1-0.dll
 0001:00077baf       ___p___wargv               00478baf f   ucrt:api-ms-win-crt-runtime-l1-1-0.dll
 0001:00077bb5       ___vcrt_initialize         00478bb5 f   MSVCRT:ucrt_stubs.obj
 0001:00077bb5       ___scrt_stub_for_acrt_initialize 00478bb5 f   MSVCRT:ucrt_stubs.obj
 0001:00077bb5       ___acrt_initialize         00478bb5 f   MSVCRT:ucrt_stubs.obj
 0001:00077bb8       ___acrt_thread_attach      00478bb8 f   MSVCRT:ucrt_stubs.obj
 0001:00077bb8       ___vcrt_thread_attach      00478bb8 f   MSVCRT:ucrt_stubs.obj
 0001:00077bb8       ___scrt_stub_for_acrt_thread_attach 00478bb8 f   MSVCRT:ucrt_stubs.obj
 0001:00077bbb       ___scrt_stub_for_acrt_thread_detach 00478bbb f   MSVCRT:ucrt_stubs.obj
 0001:00077bbb       ___acrt_thread_detach      00478bbb f   MSVCRT:ucrt_stubs.obj
 0001:00077bbb       ___vcrt_thread_detach      00478bbb f   MSVCRT:ucrt_stubs.obj
 0001:00077bbe       ___vcrt_uninitialize       00478bbe f   MSVCRT:ucrt_stubs.obj
 0001:00077bbe       ___scrt_stub_for_acrt_uninitialize 00478bbe f   MSVCRT:ucrt_stubs.obj
 0001:00077bbe       ___acrt_uninitialize       00478bbe f   MSVCRT:ucrt_stubs.obj
 0001:00077bc1       ___scrt_stub_for_acrt_uninitialize_critical 00478bc1 f   MSVCRT:ucrt_stubs.obj
 0001:00077bc1       ___vcrt_uninitialize_critical 00478bc1 f   MSVCRT:ucrt_stubs.obj
 0001:00077bc1       ___acrt_uninitialize_critical 00478bc1 f   MSVCRT:ucrt_stubs.obj
 0001:00077bc4       ___scrt_stub_for_is_c_termination_complete 00478bc4 f   MSVCRT:ucrt_stubs.obj
 0001:00077bc4       __is_c_termination_complete 00478bc4 f   MSVCRT:ucrt_stubs.obj
 0001:00077bc7       __filter_x86_sse2_floating_point_exception 00478bc7 f   MSVCRT:x86_exception_filter.obj
 0001:00077bc7       __filter_x86_sse2_floating_point_exception_default 00478bc7 f   MSVCRT:x86_exception_filter.obj
 0002:00000000       __imp__RegCloseKey@4       0047c000     advapi32:ADVAPI32.dll
 0002:00000004       __imp__RegQueryValueExW@24 0047c004     advapi32:ADVAPI32.dll
 0002:00000008       __imp__RegOpenKeyW@12      0047c008     advapi32:ADVAPI32.dll
 0002:0000000c       \177ADVAPI32_NULL_THUNK_DATA 0047c00c     advapi32:ADVAPI32.dll
 0002:00000010       __imp___TrackMouseEvent@4  0047c010     comctl32:COMCTL32.dll
 0002:00000014       \177COMCTL32_NULL_THUNK_DATA 0047c014     comctl32:COMCTL32.dll
 0002:00000018       __imp__GetDIBits@28        0047c018     gdi32:GDI32.dll
 0002:0000001c       __imp__StretchDIBits@52    0047c01c     gdi32:GDI32.dll
 0002:00000020       __imp__TextOutW@20         0047c020     gdi32:GDI32.dll
 0002:00000024       __imp__GetTextMetricsA@8   0047c024     gdi32:GDI32.dll
 0002:00000028       __imp__SetTextColor@8      0047c028     gdi32:GDI32.dll
 0002:0000002c       __imp__GetCharacterPlacementW@24 0047c02c     gdi32:GDI32.dll
 0002:00000030       __imp__GetTextExtentPoint32W@16 0047c030     gdi32:GDI32.dll
 0002:00000034       __imp__GetGlyphOutlineW@28 0047c034     gdi32:GDI32.dll
 0002:00000038       __imp__CreateFontA@56      0047c038     gdi32:GDI32.dll
 0002:0000003c       __imp__Polyline@12         0047c03c     gdi32:GDI32.dll
 0002:00000040       __imp__PolyPolygon@16      0047c040     gdi32:GDI32.dll
 0002:00000044       __imp__Pie@36              0047c044     gdi32:GDI32.dll
 0002:00000048       __imp__Arc@36              0047c048     gdi32:GDI32.dll
 0002:0000004c       __imp__ExtCreatePen@20     0047c04c     gdi32:GDI32.dll
 0002:00000050       __imp__Polygon@12          0047c050     gdi32:GDI32.dll
 0002:00000054       __imp__DPtoLP@12           0047c054     gdi32:GDI32.dll
 0002:00000058       __imp__MoveToEx@16         0047c058     gdi32:GDI32.dll
 0002:0000005c       __imp__SelectClipRgn@8     0047c05c     gdi32:GDI32.dll
 0002:00000060       __imp__RectInRegion@8      0047c060     gdi32:GDI32.dll
 0002:00000064       __imp__LineTo@12           0047c064     gdi32:GDI32.dll
 0002:00000068       __imp__GetRgnBox@8         0047c068     gdi32:GDI32.dll
 0002:0000006c       __imp__EqualRgn@8          0047c06c     gdi32:GDI32.dll
 0002:00000070       __imp__SetPixel@16         0047c070     gdi32:GDI32.dll
 0002:00000074       __imp__SelectPalette@12    0047c074     gdi32:GDI32.dll
 0002:00000078       __imp__RealizePalette@4    0047c078     gdi32:GDI32.dll
 0002:0000007c       __imp__GetStockObject@4    0047c07c     gdi32:GDI32.dll
 0002:00000080       __imp__CreateSolidBrush@4  0047c080     gdi32:GDI32.dll
 0002:00000084       __imp__CreatePen@12        0047c084     gdi32:GDI32.dll
 0002:00000088       __imp__CreatePalette@4     0047c088     gdi32:GDI32.dll
 0002:0000008c       __imp__CreateDCA@16        0047c08c     gdi32:GDI32.dll
 0002:00000090       __imp__GdiFlush@0          0047c090     gdi32:GDI32.dll
 0002:00000094       __imp__LPtoDP@12           0047c094     gdi32:GDI32.dll
 0002:00000098       __imp__CreatePolygonRgn@12 0047c098     gdi32:GDI32.dll
 0002:0000009c       __imp__CreateDIBSection@24 0047c09c     gdi32:GDI32.dll
 0002:000000a0       __imp__PlayEnhMetaFile@12  0047c0a0     gdi32:GDI32.dll
 0002:000000a4       __imp__GetEnhMetaFileHeader@12 0047c0a4     gdi32:GDI32.dll
 0002:000000a8       __imp__UpdateColors@4      0047c0a8     gdi32:GDI32.dll
 0002:000000ac       __imp__SetTextAlign@8      0047c0ac     gdi32:GDI32.dll
 0002:000000b0       __imp__SetDIBitsToDevice@48 0047c0b0     gdi32:GDI32.dll
 0002:000000b4       __imp__SetBkMode@8         0047c0b4     gdi32:GDI32.dll
 0002:000000b8       __imp__SaveDC@4            0047c0b8     gdi32:GDI32.dll
 0002:000000bc       __imp__RestoreDC@8         0047c0bc     gdi32:GDI32.dll
 0002:000000c0       __imp__DeleteObject@4      0047c0c0     gdi32:GDI32.dll
 0002:000000c4       __imp__DeleteDC@4          0047c0c4     gdi32:GDI32.dll
 0002:000000c8       __imp__CreateRectRgn@16    0047c0c8     gdi32:GDI32.dll
 0002:000000cc       __imp__CreateCompatibleBitmap@12 0047c0cc     gdi32:GDI32.dll
 0002:000000d0       __imp__CreateBitmap@20     0047c0d0     gdi32:GDI32.dll
 0002:000000d4       __imp__CombineRgn@16       0047c0d4     gdi32:GDI32.dll
 0002:000000d8       __imp__GetDeviceCaps@8     0047c0d8     gdi32:GDI32.dll
 0002:000000dc       __imp__SetPixelFormat@12   0047c0dc     gdi32:GDI32.dll
 0002:000000e0       __imp__CreateCompatibleDC@4 0047c0e0     gdi32:GDI32.dll
 0002:000000e4       __imp__BitBlt@36           0047c0e4     gdi32:GDI32.dll
 0002:000000e8       __imp__SelectObject@8      0047c0e8     gdi32:GDI32.dll
 0002:000000ec       __imp__DescribePixelFormat@16 0047c0ec     gdi32:GDI32.dll
 0002:000000f0       __imp__ExtCreateRegion@12  0047c0f0     gdi32:GDI32.dll
 0002:000000f4       \177GDI32_NULL_THUNK_DATA  0047c0f4     gdi32:GDI32.dll
 0002:000000f8       __imp__QueryPerformanceCounter@4 0047c0f8     kernel32:KERNEL32.dll
 0002:000000fc       __imp__GetModuleHandleW@4  0047c0fc     kernel32:KERNEL32.dll
 0002:00000100       __imp__CreateEventW@16     0047c100     kernel32:KERNEL32.dll
 0002:00000104       __imp__WaitForSingleObjectEx@12 0047c104     kernel32:KERNEL32.dll
 0002:00000108       __imp__ResetEvent@4        0047c108     kernel32:KERNEL32.dll
 0002:0000010c       __imp__SetEvent@4          0047c10c     kernel32:KERNEL32.dll
 0002:00000110       __imp__DeleteCriticalSection@4 0047c110     kernel32:KERNEL32.dll
 0002:00000114       __imp__InitializeCriticalSectionAndSpinCount@8 0047c114     kernel32:KERNEL32.dll
 0002:00000118       __imp__CloseHandle@4       0047c118     kernel32:KERNEL32.dll
 0002:0000011c       __imp__IsProcessorFeaturePresent@4 0047c11c     kernel32:KERNEL32.dll
 0002:00000120       __imp__TerminateProcess@8  0047c120     kernel32:KERNEL32.dll
 0002:00000124       __imp__GetCurrentProcess@0 0047c124     kernel32:KERNEL32.dll
 0002:00000128       __imp__SetUnhandledExceptionFilter@4 0047c128     kernel32:KERNEL32.dll
 0002:0000012c       __imp__UnhandledExceptionFilter@4 0047c12c     kernel32:KERNEL32.dll
 0002:00000130       __imp__GetSystemTimeAsFileTime@4 0047c130     kernel32:KERNEL32.dll
 0002:00000134       __imp__InitializeSListHead@4 0047c134     kernel32:KERNEL32.dll
 0002:00000138       __imp__IsDebuggerPresent@0 0047c138     kernel32:KERNEL32.dll
 0002:0000013c       __imp__GetModuleHandleA@4  0047c13c     kernel32:KERNEL32.dll
 0002:00000140       __imp__GetProcAddress@8    0047c140     kernel32:KERNEL32.dll
 0002:00000144       __imp__GlobalAlloc@8       0047c144     kernel32:KERNEL32.dll
 0002:00000148       __imp__GlobalLock@4        0047c148     kernel32:KERNEL32.dll
 0002:0000014c       __imp__GlobalUnlock@4      0047c14c     kernel32:KERNEL32.dll
 0002:00000150       __imp__LoadLibraryA@4      0047c150     kernel32:KERNEL32.dll
 0002:00000154       __imp__GetLocaleInfoA@16   0047c154     kernel32:KERNEL32.dll
 0002:00000158       __imp__GetLastError@0      0047c158     kernel32:KERNEL32.dll
 0002:0000015c       __imp__MultiByteToWideChar@24 0047c15c     kernel32:KERNEL32.dll
 0002:00000160       __imp__WideCharToMultiByte@32 0047c160     kernel32:KERNEL32.dll
 0002:00000164       __imp__GetACP@0            0047c164     kernel32:KERNEL32.dll
 0002:00000168       __imp__InitializeCriticalSection@4 0047c168     kernel32:KERNEL32.dll
 0002:0000016c       __imp__EnterCriticalSection@4 0047c16c     kernel32:KERNEL32.dll
 0002:00000170       __imp__LeaveCriticalSection@4 0047c170     kernel32:KERNEL32.dll
 0002:00000174       __imp__GetCurrentThreadId@0 0047c174     kernel32:KERNEL32.dll
 0002:00000178       __imp__GetComputerNameA@8  0047c178     kernel32:KERNEL32.dll
 0002:0000017c       __imp__GetLogicalDrives@0  0047c17c     kernel32:KERNEL32.dll
 0002:00000180       __imp__FindClose@4         0047c180     kernel32:KERNEL32.dll
 0002:00000184       __imp__FindFirstFileW@8    0047c184     kernel32:KERNEL32.dll
 0002:00000188       __imp__GetCurrentProcessId@0 0047c188     kernel32:KERNEL32.dll
 0002:0000018c       __imp__FindNextFileW@8     0047c18c     kernel32:KERNEL32.dll
 0002:00000190       __imp__GetFileAttributesA@4 0047c190     kernel32:KERNEL32.dll
 0002:00000194       __imp__GetStartupInfoW@4   0047c194     kernel32:KERNEL32.dll
 0002:00000198       \177KERNEL32_NULL_THUNK_DATA 0047c198     kernel32:KERNEL32.dll
 0002:0000019c       __imp_?xsputn@?$basic_streambuf@DU?$char_traits@D@std@@@std@@MAE_JPBD_J@Z 0047c19c     msvcprt:MSVCP140.dll
 0002:000001a0       __imp_?xsgetn@?$basic_streambuf@DU?$char_traits@D@std@@@std@@MAE_JPAD_J@Z 0047c1a0     msvcprt:MSVCP140.dll
 0002:000001a4       __imp_?_Init@?$basic_streambuf@DU?$char_traits@D@std@@@std@@IAEXXZ 0047c1a4     msvcprt:MSVCP140.dll
 0002:000001a8       __imp_?widen@?$basic_ios@DU?$char_traits@D@std@@@std@@QBEDD@Z 0047c1a8     msvcprt:MSVCP140.dll
 0002:000001ac       __imp_?getloc@?$basic_streambuf@DU?$char_traits@D@std@@@std@@QBE?AVlocale@2@XZ 0047c1ac     msvcprt:MSVCP140.dll
 0002:000001b0       __imp_??1?$basic_streambuf@DU?$char_traits@D@std@@@std@@UAE@XZ 0047c1b0     msvcprt:MSVCP140.dll
 0002:000001b4       __imp_??0?$basic_streambuf@DU?$char_traits@D@std@@@std@@IAE@XZ 0047c1b4     msvcprt:MSVCP140.dll
 0002:000001b8       __imp_?_Getcat@?$codecvt@DDU_Mbstatet@@@std@@SAIPAPBVfacet@locale@2@PBV42@@Z 0047c1b8     msvcprt:MSVCP140.dll
 0002:000001bc       __imp_?unshift@?$codecvt@DDU_Mbstatet@@@std@@QBEHAAU_Mbstatet@@PAD1AAPAD@Z 0047c1bc     msvcprt:MSVCP140.dll
 0002:000001c0       __imp_?out@?$codecvt@DDU_Mbstatet@@@std@@QBEHAAU_Mbstatet@@PBD1AAPBDPAD3AAPAD@Z 0047c1c0     msvcprt:MSVCP140.dll
 0002:000001c4       __imp_?in@?$codecvt@DDU_Mbstatet@@@std@@QBEHAAU_Mbstatet@@PBD1AAPBDPAD3AAPAD@Z 0047c1c4     msvcprt:MSVCP140.dll
 0002:000001c8       __imp_?always_noconv@codecvt_base@std@@QBE_NXZ 0047c1c8     msvcprt:MSVCP140.dll
 0002:000001cc       __imp_??0?$basic_ios@DU?$char_traits@D@std@@@std@@IAE@XZ 0047c1cc     msvcprt:MSVCP140.dll
 0002:000001d0       __imp_??Bid@locale@std@@QAEIXZ 0047c1d0     msvcprt:MSVCP140.dll
 0002:000001d4       __imp_??1_Lockit@std@@QAE@XZ 0047c1d4     msvcprt:MSVCP140.dll
 0002:000001d8       __imp_??0_Lockit@std@@QAE@H@Z 0047c1d8     msvcprt:MSVCP140.dll
 0002:000001dc       __imp_?peek@?$basic_istream@DU?$char_traits@D@std@@@std@@QAEHXZ 0047c1dc     msvcprt:MSVCP140.dll
 0002:000001e0       __imp_?get@?$basic_istream@DU?$char_traits@D@std@@@std@@QAEHXZ 0047c1e0     msvcprt:MSVCP140.dll
 0002:000001e4       __imp_?flush@?$basic_ostream@DU?$char_traits@D@std@@@std@@QAEAAV12@XZ 0047c1e4     msvcprt:MSVCP140.dll
 0002:000001e8       __imp_??6?$basic_ostream@DU?$char_traits@D@std@@@std@@QAEAAV01@N@Z 0047c1e8     msvcprt:MSVCP140.dll
 0002:000001ec       __imp_?_Osfx@?$basic_ostream@DU?$char_traits@D@std@@@std@@QAEXXZ 0047c1ec     msvcprt:MSVCP140.dll
 0002:000001f0       __imp_?setstate@?$basic_ios@DU?$char_traits@D@std@@@std@@QAEXH_N@Z 0047c1f0     msvcprt:MSVCP140.dll
 0002:000001f4       __imp_?sputn@?$basic_streambuf@DU?$char_traits@D@std@@@std@@QAE_JPBD_J@Z 0047c1f4     msvcprt:MSVCP140.dll
 0002:000001f8       __imp_?sputc@?$basic_streambuf@DU?$char_traits@D@std@@@std@@QAEHD@Z 0047c1f8     msvcprt:MSVCP140.dll
 0002:000001fc       __imp_?_Xout_of_range@std@@YAXPBD@Z 0047c1fc     msvcprt:MSVCP140.dll
 0002:00000200       __imp_?uncaught_exception@std@@YA_NXZ 0047c200     msvcprt:MSVCP140.dll
 0002:00000204       __imp_?_Xlength_error@std@@YAXPBD@Z 0047c204     msvcprt:MSVCP140.dll
 0002:00000208       __imp_??0?$basic_ostream@DU?$char_traits@D@std@@@std@@QAE@PAV?$basic_streambuf@DU?$char_traits@D@std@@@1@_N@Z 0047c208     msvcprt:MSVCP140.dll
 0002:0000020c       __imp_??1?$basic_ostream@DU?$char_traits@D@std@@@std@@UAE@XZ 0047c20c     msvcprt:MSVCP140.dll
 0002:00000210       __imp_??6?$basic_ostream@DU?$char_traits@D@std@@@std@@QAEAAV01@P6AAAV01@AAV01@@Z@Z 0047c210     msvcprt:MSVCP140.dll
 0002:00000214       __imp_??6?$basic_ostream@DU?$char_traits@D@std@@@std@@QAEAAV01@I@Z 0047c214     msvcprt:MSVCP140.dll
 0002:00000218       __imp_??6?$basic_ostream@DU?$char_traits@D@std@@@std@@QAEAAV01@M@Z 0047c218     msvcprt:MSVCP140.dll
 0002:0000021c       __imp_?put@?$basic_ostream@DU?$char_traits@D@std@@@std@@QAEAAV12@D@Z 0047c21c     msvcprt:MSVCP140.dll
 0002:00000220       __imp_??0?$basic_istream@DU?$char_traits@D@std@@@std@@QAE@PAV?$basic_streambuf@DU?$char_traits@D@std@@@1@_N@Z 0047c220     msvcprt:MSVCP140.dll
 0002:00000224       __imp_??1?$basic_istream@DU?$char_traits@D@std@@@std@@UAE@XZ 0047c224     msvcprt:MSVCP140.dll
 0002:00000228       __imp_??5?$basic_istream@DU?$char_traits@D@std@@@std@@QAEAAV01@AAM@Z 0047c228     msvcprt:MSVCP140.dll
 0002:0000022c       __imp_?get@?$basic_istream@DU?$char_traits@D@std@@@std@@QAEAAV12@AAD@Z 0047c22c     msvcprt:MSVCP140.dll
 0002:00000230       __imp_?_Fiopen@std@@YAPAU_iobuf@@PBDHH@Z 0047c230     msvcprt:MSVCP140.dll
 0002:00000234       __imp_?_Lock@?$basic_streambuf@DU?$char_traits@D@std@@@std@@UAEXXZ 0047c234     msvcprt:MSVCP140.dll
 0002:00000238       __imp_?_Unlock@?$basic_streambuf@DU?$char_traits@D@std@@@std@@UAEXXZ 0047c238     msvcprt:MSVCP140.dll
 0002:0000023c       __imp_?imbue@?$basic_streambuf@DU?$char_traits@D@std@@@std@@MAEXABVlocale@2@@Z 0047c23c     msvcprt:MSVCP140.dll
 0002:00000240       __imp_?setbuf@?$basic_streambuf@DU?$char_traits@D@std@@@std@@MAEPAV12@PAD_J@Z 0047c240     msvcprt:MSVCP140.dll
 0002:00000244       __imp_?showmanyc@?$basic_streambuf@DU?$char_traits@D@std@@@std@@MAE_JXZ 0047c244     msvcprt:MSVCP140.dll
 0002:00000248       __imp_?sync@?$basic_streambuf@DU?$char_traits@D@std@@@std@@MAEHXZ 0047c248     msvcprt:MSVCP140.dll
 0002:0000024c       __imp_?uflow@?$basic_streambuf@DU?$char_traits@D@std@@@std@@MAEHXZ 0047c24c     msvcprt:MSVCP140.dll
 0002:00000250       __imp_?id@?$codecvt@DDU_Mbstatet@@@std@@2V0locale@2@A 0047c250     msvcprt:MSVCP140.dll
 0002:00000254       __imp_?cout@std@@3V?$basic_ostream@DU?$char_traits@D@std@@@1@A 0047c254     msvcprt:MSVCP140.dll
 0002:00000258       __imp_??1?$basic_ios@DU?$char_traits@D@std@@@std@@UAE@XZ 0047c258     msvcprt:MSVCP140.dll
 0002:0000025c       __imp_?_Pninc@?$basic_streambuf@DU?$char_traits@D@std@@@std@@IAEPADXZ 0047c25c     msvcprt:MSVCP140.dll
 0002:00000260       __imp_?cerr@std@@3V?$basic_ostream@DU?$char_traits@D@std@@@1@A 0047c260     msvcprt:MSVCP140.dll
 0002:00000264       __imp_?_Getgloballocale@locale@std@@CAPAV_Locimp@12@XZ 0047c264     msvcprt:MSVCP140.dll
 0002:00000268       \177MSVCP140_NULL_THUNK_DATA 0047c268     msvcprt:MSVCP140.dll
 0002:0000026c       __imp__glVertex2i@8        0047c26c     opengl32:OPENGL32.dll
 0002:00000270       __imp__glRasterPos2f@8     0047c270     opengl32:OPENGL32.dll
 0002:00000274       __imp__glListBase@4        0047c274     opengl32:OPENGL32.dll
 0002:00000278       __imp__glIndexi@4          0047c278     opengl32:OPENGL32.dll
 0002:0000027c       __imp__glGenLists@4        0047c27c     opengl32:OPENGL32.dll
 0002:00000280       __imp__glEnd@0             0047c280     opengl32:OPENGL32.dll
 0002:00000284       __imp__glDeleteLists@8     0047c284     opengl32:OPENGL32.dll
 0002:00000288       __imp__glColor3ub@12       0047c288     opengl32:OPENGL32.dll
 0002:0000028c       __imp__glCallLists@12      0047c28c     opengl32:OPENGL32.dll
 0002:00000290       __imp__glBegin@4           0047c290     opengl32:OPENGL32.dll
 0002:00000294       __imp__wglUseFontBitmapsW@16 0047c294     opengl32:OPENGL32.dll
 0002:00000298       __imp__glReadPixels@28     0047c298     opengl32:OPENGL32.dll
 0002:0000029c       __imp__glPushClientAttrib@4 0047c29c     opengl32:OPENGL32.dll
 0002:000002a0       __imp__glPopClientAttrib@0 0047c2a0     opengl32:OPENGL32.dll
 0002:000002a4       __imp__wglShareLists@8     0047c2a4     opengl32:OPENGL32.dll
 0002:000002a8       __imp__wglMakeCurrent@8    0047c2a8     opengl32:OPENGL32.dll
 0002:000002ac       __imp__wglDeleteContext@4  0047c2ac     opengl32:OPENGL32.dll
 0002:000002b0       __imp__wglCreateLayerContext@8 0047c2b0     opengl32:OPENGL32.dll
 0002:000002b4       __imp__wglCreateContext@4  0047c2b4     opengl32:OPENGL32.dll
 0002:000002b8       __imp__glViewport@16       0047c2b8     opengl32:OPENGL32.dll
 0002:000002bc       __imp__glReadBuffer@4      0047c2bc     opengl32:OPENGL32.dll
 0002:000002c0       __imp__glOrtho@48          0047c2c0     opengl32:OPENGL32.dll
 0002:000002c4       __imp__glLoadIdentity@0    0047c2c4     opengl32:OPENGL32.dll
 0002:000002c8       __imp__glGetIntegerv@8     0047c2c8     opengl32:OPENGL32.dll
 0002:000002cc       __imp__glCopyPixels@20     0047c2cc     opengl32:OPENGL32.dll
 0002:000002d0       __imp__wglSwapLayerBuffers@8 0047c2d0     opengl32:OPENGL32.dll
 0002:000002d4       __imp__wglRealizeLayerPalette@12 0047c2d4     opengl32:OPENGL32.dll
 0002:000002d8       __imp__glRasterPos2i@8     0047c2d8     opengl32:OPENGL32.dll
 0002:000002dc       __imp__glPixelStorei@8     0047c2dc     opengl32:OPENGL32.dll
 0002:000002e0       __imp__glFlush@0           0047c2e0     opengl32:OPENGL32.dll
 0002:000002e4       __imp__glDrawPixels@20     0047c2e4     opengl32:OPENGL32.dll
 0002:000002e8       __imp__glDrawBuffer@4      0047c2e8     opengl32:OPENGL32.dll
 0002:000002ec       __imp__glDisable@4         0047c2ec     opengl32:OPENGL32.dll
 0002:000002f0       __imp__glClearColor@16     0047c2f0     opengl32:OPENGL32.dll
 0002:000002f4       __imp__glClear@4           0047c2f4     opengl32:OPENGL32.dll
 0002:000002f8       \177OPENGL32_NULL_THUNK_DATA 0047c2f8     opengl32:OPENGL32.dll
 0002:000002fc       __imp__DragQueryFileW@16   0047c2fc     shell32:SHELL32.dll
 0002:00000300       \177SHELL32_NULL_THUNK_DATA 0047c300     shell32:SHELL32.dll
 0002:00000304       __imp__OpenIcon@4          0047c304     user32:USER32.dll
 0002:00000308       __imp__ShowWindow@8        0047c308     user32:USER32.dll
 0002:0000030c       __imp__DestroyWindow@4     0047c30c     user32:USER32.dll
 0002:00000310       __imp__GetDCEx@12          0047c310     user32:USER32.dll
 0002:00000314       __imp__SendMessageA@16     0047c314     user32:USER32.dll
 0002:00000318       __imp__GetKeyboardLayout@4 0047c318     user32:USER32.dll
 0002:0000031c       __imp__RegisterWindowMessageW@4 0047c31c     user32:USER32.dll
 0002:00000320       __imp__SetRect@20          0047c320     user32:USER32.dll
 0002:00000324       __imp__SetWindowRgn@12     0047c324     user32:USER32.dll
 0002:00000328       __imp__SetActiveWindow@4   0047c328     user32:USER32.dll
 0002:0000032c       __imp__WindowFromPoint@8   0047c32c     user32:USER32.dll
 0002:00000330       __imp__SetForegroundWindow@4 0047c330     user32:USER32.dll
 0002:00000334       __imp__MessageBoxA@16      0047c334     user32:USER32.dll
 0002:00000338       __imp__GetSysColor@4       0047c338     user32:USER32.dll
 0002:0000033c       __imp__FillRect@12         0047c33c     user32:USER32.dll
 0002:00000340       __imp__PostThreadMessageA@16 0047c340     user32:USER32.dll
 0002:00000344       __imp__MessageBeep@4       0047c344     user32:USER32.dll
 0002:00000348       __imp__SystemParametersInfoA@16 0047c348     user32:USER32.dll
 0002:0000034c       __imp__CopyIcon@4          0047c34c     user32:USER32.dll
 0002:00000350       __imp__CreateIconIndirect@4 0047c350     user32:USER32.dll
 0002:00000354       __imp__DestroyIcon@4       0047c354     user32:USER32.dll
 0002:00000358       __imp__LoadIconA@8         0047c358     user32:USER32.dll
 0002:0000035c       __imp__LoadCursorA@8       0047c35c     user32:USER32.dll
 0002:00000360       __imp__GetWindow@8         0047c360     user32:USER32.dll
 0002:00000364       __imp__GetParent@4         0047c364     user32:USER32.dll
 0002:00000368       __imp__SetWindowLongA@12   0047c368     user32:USER32.dll
 0002:0000036c       __imp__GetWindowLongA@8    0047c36c     user32:USER32.dll
 0002:00000370       __imp__MapWindowPoints@16  0047c370     user32:USER32.dll
 0002:00000374       __imp__ClientToScreen@8    0047c374     user32:USER32.dll
 0002:00000378       __imp__GetCursorPos@4      0047c378     user32:USER32.dll
 0002:0000037c       __imp__SetCursor@4         0047c37c     user32:USER32.dll
 0002:00000380       __imp__AdjustWindowRectEx@16 0047c380     user32:USER32.dll
 0002:00000384       __imp__GetWindowRect@8     0047c384     user32:USER32.dll
 0002:00000388       __imp__SetWindowTextW@8    0047c388     user32:USER32.dll
 0002:0000038c       __imp__ValidateRgn@8       0047c38c     user32:USER32.dll
 0002:00000390       __imp__InvalidateRect@12   0047c390     user32:USER32.dll
 0002:00000394       __imp__GetUpdateRgn@12     0047c394     user32:USER32.dll
 0002:00000398       __imp__ReleaseDC@8         0047c398     user32:USER32.dll
 0002:0000039c       __imp__GetDC@4             0047c39c     user32:USER32.dll
 0002:000003a0       __imp__GetForegroundWindow@0 0047c3a0     user32:USER32.dll
 0002:000003a4       __imp__GetSystemMetrics@4  0047c3a4     user32:USER32.dll
 0002:000003a8       __imp__KillTimer@8         0047c3a8     user32:USER32.dll
 0002:000003ac       __imp__SetTimer@16         0047c3ac     user32:USER32.dll
 0002:000003b0       __imp__MsgWaitForMultipleObjects@20 0047c3b0     user32:USER32.dll
 0002:000003b4       __imp__ReleaseCapture@0    0047c3b4     user32:USER32.dll
 0002:000003b8       __imp__SetCapture@4        0047c3b8     user32:USER32.dll
 0002:000003bc       __imp__GetAsyncKeyState@4  0047c3bc     user32:USER32.dll
 0002:000003c0       __imp__GetKeyState@4       0047c3c0     user32:USER32.dll
 0002:000003c4       __imp__SetFocus@4          0047c3c4     user32:USER32.dll
 0002:000003c8       __imp__IsClipboardFormatAvailable@4 0047c3c8     user32:USER32.dll
 0002:000003cc       __imp__EmptyClipboard@0    0047c3cc     user32:USER32.dll
 0002:000003d0       __imp__GetClipboardData@4  0047c3d0     user32:USER32.dll
 0002:000003d4       __imp__SetClipboardData@8  0047c3d4     user32:USER32.dll
 0002:000003d8       __imp__ChangeClipboardChain@8 0047c3d8     user32:USER32.dll
 0002:000003dc       __imp__SetClipboardViewer@4 0047c3dc     user32:USER32.dll
 0002:000003e0       __imp__GetClipboardOwner@0 0047c3e0     user32:USER32.dll
 0002:000003e4       __imp__CloseClipboard@0    0047c3e4     user32:USER32.dll
 0002:000003e8       __imp__OpenClipboard@4     0047c3e8     user32:USER32.dll
 0002:000003ec       __imp__BringWindowToTop@4  0047c3ec     user32:USER32.dll
 0002:000003f0       __imp__IsIconic@4          0047c3f0     user32:USER32.dll
 0002:000003f4       __imp__SetWindowPos@28     0047c3f4     user32:USER32.dll
 0002:000003f8       __imp__IsWindow@4          0047c3f8     user32:USER32.dll
 0002:000003fc       __imp__CreateWindowExW@48  0047c3fc     user32:USER32.dll
 0002:00000400       __imp__CreateWindowExA@48  0047c400     user32:USER32.dll
 0002:00000404       __imp__RegisterClassExW@4  0047c404     user32:USER32.dll
 0002:00000408       __imp__RegisterClassExA@4  0047c408     user32:USER32.dll
 0002:0000040c       __imp__DefWindowProcW@16   0047c40c     user32:USER32.dll
 0002:00000410       __imp__DefWindowProcA@16   0047c410     user32:USER32.dll
 0002:00000414       __imp__PostMessageA@16     0047c414     user32:USER32.dll
 0002:00000418       __imp__DispatchMessageW@4  0047c418     user32:USER32.dll
 0002:0000041c       __imp__PeekMessageW@20     0047c41c     user32:USER32.dll
 0002:00000420       __imp__PeekMessageA@20     0047c420     user32:USER32.dll
 0002:00000424       __imp__TranslateMessage@4  0047c424     user32:USER32.dll
 0002:00000428       \177USER32_NULL_THUNK_DATA 0047c428     user32:USER32.dll
 0002:0000042c       __imp____std_type_info_destroy_list 0047c42c     vcruntime:VCRUNTIME140.dll
 0002:00000430       __imp____current_exception 0047c430     vcruntime:VCRUNTIME140.dll
 0002:00000434       __imp____current_exception_context 0047c434     vcruntime:VCRUNTIME140.dll
 0002:00000438       __imp___except_handler4_common 0047c438     vcruntime:VCRUNTIME140.dll
 0002:0000043c       __imp____CxxFrameHandler3  0047c43c     vcruntime:VCRUNTIME140.dll
 0002:00000440       __imp__strstr              0047c440     vcruntime:VCRUNTIME140.dll
 0002:00000444       __imp__memcmp              0047c444     vcruntime:VCRUNTIME140.dll
 0002:00000448       __imp__strrchr             0047c448     vcruntime:VCRUNTIME140.dll
 0002:0000044c       __imp___purecall           0047c44c     vcruntime:VCRUNTIME140.dll
 0002:00000450       __imp____std_terminate     0047c450     vcruntime:VCRUNTIME140.dll
 0002:00000454       __imp____std_exception_copy 0047c454     vcruntime:VCRUNTIME140.dll
 0002:00000458       __imp__memset              0047c458     vcruntime:VCRUNTIME140.dll
 0002:0000045c       __imp__strchr              0047c45c     vcruntime:VCRUNTIME140.dll
 0002:00000460       __imp__memmove             0047c460     vcruntime:VCRUNTIME140.dll
 0002:00000464       __imp____std_exception_destroy 0047c464     vcruntime:VCRUNTIME140.dll
 0002:00000468       __imp__memcpy              0047c468     vcruntime:VCRUNTIME140.dll
 0002:0000046c       __imp___CxxThrowException@8 0047c46c     vcruntime:VCRUNTIME140.dll
 0002:00000470       \177VCRUNTIME140_NULL_THUNK_DATA 0047c470     vcruntime:VCRUNTIME140.dll
 0002:00000474       __imp__strtol              0047c474     ucrt:api-ms-win-crt-convert-l1-1-0.dll
 0002:00000478       __imp__atoi                0047c478     ucrt:api-ms-win-crt-convert-l1-1-0.dll
 0002:0000047c       __imp__atof                0047c47c     ucrt:api-ms-win-crt-convert-l1-1-0.dll
 0002:00000480       __imp__mbstowcs            0047c480     ucrt:api-ms-win-crt-convert-l1-1-0.dll
 0002:00000484       __imp__wcstombs            0047c484     ucrt:api-ms-win-crt-convert-l1-1-0.dll
 0002:00000488       __imp__atol                0047c488     ucrt:api-ms-win-crt-convert-l1-1-0.dll
 0002:0000048c       \177api-ms-win-crt-convert-l1-1-0_NULL_THUNK_DATA 0047c48c     ucrt:api-ms-win-crt-convert-l1-1-0.dll
 0002:00000490       __imp___putenv             0047c490     ucrt:api-ms-win-crt-environment-l1-1-0.dll
 0002:00000494       __imp___wgetcwd            0047c494     ucrt:api-ms-win-crt-environment-l1-1-0.dll
 0002:00000498       __imp___wgetenv            0047c498     ucrt:api-ms-win-crt-environment-l1-1-0.dll
 0002:0000049c       __imp__getenv              0047c49c     ucrt:api-ms-win-crt-environment-l1-1-0.dll
 0002:000004a0       \177api-ms-win-crt-environment-l1-1-0_NULL_THUNK_DATA 0047c4a0     ucrt:api-ms-win-crt-environment-l1-1-0.dll
 0002:000004a4       __imp___wstat64i32         0047c4a4     ucrt:api-ms-win-crt-filesystem-l1-1-0.dll
 0002:000004a8       __imp___wchmod             0047c4a8     ucrt:api-ms-win-crt-filesystem-l1-1-0.dll
 0002:000004ac       __imp___access             0047c4ac     ucrt:api-ms-win-crt-filesystem-l1-1-0.dll
 0002:000004b0       __imp___lock_file          0047c4b0     ucrt:api-ms-win-crt-filesystem-l1-1-0.dll
 0002:000004b4       __imp___unlock_file        0047c4b4     ucrt:api-ms-win-crt-filesystem-l1-1-0.dll
 0002:000004b8       __imp___wrmdir             0047c4b8     ucrt:api-ms-win-crt-filesystem-l1-1-0.dll
 0002:000004bc       __imp___wmkdir             0047c4bc     ucrt:api-ms-win-crt-filesystem-l1-1-0.dll
 0002:000004c0       __imp___waccess            0047c4c0     ucrt:api-ms-win-crt-filesystem-l1-1-0.dll
 0002:000004c4       __imp___wrename            0047c4c4     ucrt:api-ms-win-crt-filesystem-l1-1-0.dll
 0002:000004c8       __imp___wunlink            0047c4c8     ucrt:api-ms-win-crt-filesystem-l1-1-0.dll
 0002:000004cc       __imp___mkdir              0047c4cc     ucrt:api-ms-win-crt-filesystem-l1-1-0.dll
 0002:000004d0       \177api-ms-win-crt-filesystem-l1-1-0_NULL_THUNK_DATA 0047c4d0     ucrt:api-ms-win-crt-filesystem-l1-1-0.dll
 0002:000004d4       __imp__free                0047c4d4     ucrt:api-ms-win-crt-heap-l1-1-0.dll
 0002:000004d8       __imp__malloc              0047c4d8     ucrt:api-ms-win-crt-heap-l1-1-0.dll
 0002:000004dc       __imp__calloc              0047c4dc     ucrt:api-ms-win-crt-heap-l1-1-0.dll
 0002:000004e0       __imp___callnewh           0047c4e0     ucrt:api-ms-win-crt-heap-l1-1-0.dll
 0002:000004e4       __imp___set_new_mode       0047c4e4     ucrt:api-ms-win-crt-heap-l1-1-0.dll
 0002:000004e8       __imp__realloc             0047c4e8     ucrt:api-ms-win-crt-heap-l1-1-0.dll
 0002:000004ec       \177api-ms-win-crt-heap-l1-1-0_NULL_THUNK_DATA 0047c4ec     ucrt:api-ms-win-crt-heap-l1-1-0.dll
 0002:000004f0       __imp__localeconv          0047c4f0     ucrt:api-ms-win-crt-locale-l1-1-0.dll
 0002:000004f4       __imp___configthreadlocale 0047c4f4     ucrt:api-ms-win-crt-locale-l1-1-0.dll
 0002:000004f8       \177api-ms-win-crt-locale-l1-1-0_NULL_THUNK_DATA 0047c4f8     ucrt:api-ms-win-crt-locale-l1-1-0.dll
 0002:000004fc       __imp___libm_sse2_sqrt_precise 0047c4fc     ucrt:api-ms-win-crt-math-l1-1-0.dll
 0002:00000500       __imp__fabs                0047c500     ucrt:api-ms-win-crt-math-l1-1-0.dll
 0002:00000504       __imp__rint                0047c504     ucrt:api-ms-win-crt-math-l1-1-0.dll
 0002:00000508       __imp___libm_sse2_sin_precise 0047c508     ucrt:api-ms-win-crt-math-l1-1-0.dll
 0002:0000050c       __imp___libm_sse2_cos_precise 0047c50c     ucrt:api-ms-win-crt-math-l1-1-0.dll
 0002:00000510       __imp____setusermatherr    0047c510     ucrt:api-ms-win-crt-math-l1-1-0.dll
 0002:00000514       __imp___libm_sse2_tan_precise 0047c514     ucrt:api-ms-win-crt-math-l1-1-0.dll
 0002:00000518       __imp___libm_sse2_pow_precise 0047c518     ucrt:api-ms-win-crt-math-l1-1-0.dll
 0002:0000051c       __imp__cos                 0047c51c     ucrt:api-ms-win-crt-math-l1-1-0.dll
 0002:00000520       __imp__pow                 0047c520     ucrt:api-ms-win-crt-math-l1-1-0.dll
 0002:00000524       __imp__sin                 0047c524     ucrt:api-ms-win-crt-math-l1-1-0.dll
 0002:00000528       __imp__sqrt                0047c528     ucrt:api-ms-win-crt-math-l1-1-0.dll
 0002:0000052c       __imp__acos                0047c52c     ucrt:api-ms-win-crt-math-l1-1-0.dll
 0002:00000530       __imp__ceil                0047c530     ucrt:api-ms-win-crt-math-l1-1-0.dll
 0002:00000534       __imp__log                 0047c534     ucrt:api-ms-win-crt-math-l1-1-0.dll
 0002:00000538       __imp___except1            0047c538     ucrt:api-ms-win-crt-math-l1-1-0.dll
 0002:0000053c       \177api-ms-win-crt-math-l1-1-0_NULL_THUNK_DATA 0047c53c     ucrt:api-ms-win-crt-math-l1-1-0.dll
 0002:00000540       __imp___wexecvp            0047c540     ucrt:api-ms-win-crt-process-l1-1-0.dll
 0002:00000544       \177api-ms-win-crt-process-l1-1-0_NULL_THUNK_DATA 0047c544     ucrt:api-ms-win-crt-process-l1-1-0.dll
 0002:00000548       __imp___crt_at_quick_exit  0047c548     ucrt:api-ms-win-crt-runtime-l1-1-0.dll
 0002:0000054c       __imp___cexit              0047c54c     ucrt:api-ms-win-crt-runtime-l1-1-0.dll
 0002:00000550       __imp__terminate           0047c550     ucrt:api-ms-win-crt-runtime-l1-1-0.dll
 0002:00000554       __imp___exit               0047c554     ucrt:api-ms-win-crt-runtime-l1-1-0.dll
 0002:00000558       __imp___c_exit             0047c558     ucrt:api-ms-win-crt-runtime-l1-1-0.dll
 0002:0000055c       __imp___initterm           0047c55c     ucrt:api-ms-win-crt-runtime-l1-1-0.dll
 0002:00000560       __imp___controlfp_s        0047c560     ucrt:api-ms-win-crt-runtime-l1-1-0.dll
 0002:00000564       __imp___wsystem            0047c564     ucrt:api-ms-win-crt-runtime-l1-1-0.dll
 0002:00000568       __imp___register_thread_local_exe_atexit_callback 0047c568     ucrt:api-ms-win-crt-runtime-l1-1-0.dll
 0002:0000056c       __imp___crt_atexit         0047c56c     ucrt:api-ms-win-crt-runtime-l1-1-0.dll
 0002:00000570       __imp___seh_filter_dll     0047c570     ucrt:api-ms-win-crt-runtime-l1-1-0.dll
 0002:00000574       __imp___get_narrow_winmain_command_line 0047c574     ucrt:api-ms-win-crt-runtime-l1-1-0.dll
 0002:00000578       __imp___initialize_onexit_table 0047c578     ucrt:api-ms-win-crt-runtime-l1-1-0.dll
 0002:0000057c       __imp___invalid_parameter_noinfo_noreturn 0047c57c     ucrt:api-ms-win-crt-runtime-l1-1-0.dll
 0002:00000580       __imp___initterm_e         0047c580     ucrt:api-ms-win-crt-runtime-l1-1-0.dll
 0002:00000584       __imp___initialize_narrow_environment 0047c584     ucrt:api-ms-win-crt-runtime-l1-1-0.dll
 0002:00000588       __imp__exit                0047c588     ucrt:api-ms-win-crt-runtime-l1-1-0.dll
 0002:0000058c       __imp___configure_narrow_argv 0047c58c     ucrt:api-ms-win-crt-runtime-l1-1-0.dll
 0002:00000590       __imp___register_onexit_function 0047c590     ucrt:api-ms-win-crt-runtime-l1-1-0.dll
 0002:00000594       __imp__raise               0047c594     ucrt:api-ms-win-crt-runtime-l1-1-0.dll
 0002:00000598       __imp___errno              0047c598     ucrt:api-ms-win-crt-runtime-l1-1-0.dll
 0002:0000059c       __imp__strerror            0047c59c     ucrt:api-ms-win-crt-runtime-l1-1-0.dll
 0002:000005a0       __imp___set_app_type       0047c5a0     ucrt:api-ms-win-crt-runtime-l1-1-0.dll
 0002:000005a4       __imp___seh_filter_exe     0047c5a4     ucrt:api-ms-win-crt-runtime-l1-1-0.dll
 0002:000005a8       __imp____p___wargv         0047c5a8     ucrt:api-ms-win-crt-runtime-l1-1-0.dll
 0002:000005ac       __imp____p___argv          0047c5ac     ucrt:api-ms-win-crt-runtime-l1-1-0.dll
 0002:000005b0       __imp____p___argc          0047c5b0     ucrt:api-ms-win-crt-runtime-l1-1-0.dll
 0002:000005b4       __imp___execute_onexit_table 0047c5b4     ucrt:api-ms-win-crt-runtime-l1-1-0.dll
 0002:000005b8       \177api-ms-win-crt-runtime-l1-1-0_NULL_THUNK_DATA 0047c5b8     ucrt:api-ms-win-crt-runtime-l1-1-0.dll
 0002:000005bc       __imp__fseek               0047c5bc     ucrt:api-ms-win-crt-stdio-l1-1-0.dll
 0002:000005c0       __imp__fwrite              0047c5c0     ucrt:api-ms-win-crt-stdio-l1-1-0.dll
 0002:000005c4       __imp___get_stream_buffer_pointers 0047c5c4     ucrt:api-ms-win-crt-stdio-l1-1-0.dll
 0002:000005c8       __imp__fflush              0047c5c8     ucrt:api-ms-win-crt-stdio-l1-1-0.dll
 0002:000005cc       __imp__fgetc               0047c5cc     ucrt:api-ms-win-crt-stdio-l1-1-0.dll
 0002:000005d0       __imp__fgetpos             0047c5d0     ucrt:api-ms-win-crt-stdio-l1-1-0.dll
 0002:000005d4       __imp__fputc               0047c5d4     ucrt:api-ms-win-crt-stdio-l1-1-0.dll
 0002:000005d8       __imp___wfopen             0047c5d8     ucrt:api-ms-win-crt-stdio-l1-1-0.dll
 0002:000005dc       __imp___wsopen_dispatch    0047c5dc     ucrt:api-ms-win-crt-stdio-l1-1-0.dll
 0002:000005e0       __imp__fsetpos             0047c5e0     ucrt:api-ms-win-crt-stdio-l1-1-0.dll
 0002:000005e4       __imp____stdio_common_vsscanf 0047c5e4     ucrt:api-ms-win-crt-stdio-l1-1-0.dll
 0002:000005e8       __imp___set_fmode          0047c5e8     ucrt:api-ms-win-crt-stdio-l1-1-0.dll
 0002:000005ec       __imp___fseeki64           0047c5ec     ucrt:api-ms-win-crt-stdio-l1-1-0.dll
 0002:000005f0       __imp__setvbuf             0047c5f0     ucrt:api-ms-win-crt-stdio-l1-1-0.dll
 0002:000005f4       __imp__ungetc              0047c5f4     ucrt:api-ms-win-crt-stdio-l1-1-0.dll
 0002:000005f8       __imp__fclose              0047c5f8     ucrt:api-ms-win-crt-stdio-l1-1-0.dll
 0002:000005fc       __imp__fgets               0047c5fc     ucrt:api-ms-win-crt-stdio-l1-1-0.dll
 0002:00000600       __imp____p__commode        0047c600     ucrt:api-ms-win-crt-stdio-l1-1-0.dll
 0002:00000604       __imp____stdio_common_vsprintf 0047c604     ucrt:api-ms-win-crt-stdio-l1-1-0.dll
 0002:00000608       __imp__fopen               0047c608     ucrt:api-ms-win-crt-stdio-l1-1-0.dll
 0002:0000060c       __imp____stdio_common_vfprintf 0047c60c     ucrt:api-ms-win-crt-stdio-l1-1-0.dll
 0002:00000610       __imp____acrt_iob_func     0047c610     ucrt:api-ms-win-crt-stdio-l1-1-0.dll
 0002:00000614       __imp__fread               0047c614     ucrt:api-ms-win-crt-stdio-l1-1-0.dll
 0002:00000618       \177api-ms-win-crt-stdio-l1-1-0_NULL_THUNK_DATA 0047c618     ucrt:api-ms-win-crt-stdio-l1-1-0.dll
 0002:0000061c       __imp__wcslen              0047c61c     ucrt:api-ms-win-crt-string-l1-1-0.dll
 0002:00000620       __imp__toupper             0047c620     ucrt:api-ms-win-crt-string-l1-1-0.dll
 0002:00000624       __imp__strcat              0047c624     ucrt:api-ms-win-crt-string-l1-1-0.dll
 0002:00000628       __imp__strcmp              0047c628     ucrt:api-ms-win-crt-string-l1-1-0.dll
 0002:0000062c       __imp___strdup             0047c62c     ucrt:api-ms-win-crt-string-l1-1-0.dll
 0002:00000630       __imp__strcpy              0047c630     ucrt:api-ms-win-crt-string-l1-1-0.dll
 0002:00000634       __imp__tolower             0047c634     ucrt:api-ms-win-crt-string-l1-1-0.dll
 0002:00000638       __imp__isdigit             0047c638     ucrt:api-ms-win-crt-string-l1-1-0.dll
 0002:0000063c       __imp__wcscpy              0047c63c     ucrt:api-ms-win-crt-string-l1-1-0.dll
 0002:00000640       __imp__isalpha             0047c640     ucrt:api-ms-win-crt-string-l1-1-0.dll
 0002:00000644       __imp__strcspn             0047c644     ucrt:api-ms-win-crt-string-l1-1-0.dll
 0002:00000648       __imp__strncmp             0047c648     ucrt:api-ms-win-crt-string-l1-1-0.dll
 0002:0000064c       __imp__isalnum             0047c64c     ucrt:api-ms-win-crt-string-l1-1-0.dll
 0002:00000650       __imp__isspace             0047c650     ucrt:api-ms-win-crt-string-l1-1-0.dll
 0002:00000654       __imp__strncpy             0047c654     ucrt:api-ms-win-crt-string-l1-1-0.dll
 0002:00000658       __imp__isxdigit            0047c658     ucrt:api-ms-win-crt-string-l1-1-0.dll
 0002:0000065c       __imp___stricmp            0047c65c     ucrt:api-ms-win-crt-string-l1-1-0.dll
 0002:00000660       __imp___strnicmp           0047c660     ucrt:api-ms-win-crt-string-l1-1-0.dll
 0002:00000664       __imp__isprint             0047c664     ucrt:api-ms-win-crt-string-l1-1-0.dll
 0002:00000668       __imp__ispunct             0047c668     ucrt:api-ms-win-crt-string-l1-1-0.dll
 0002:0000066c       __imp__islower             0047c66c     ucrt:api-ms-win-crt-string-l1-1-0.dll
 0002:00000670       __imp__strlen              0047c670     ucrt:api-ms-win-crt-string-l1-1-0.dll
 0002:00000674       __imp__isupper             0047c674     ucrt:api-ms-win-crt-string-l1-1-0.dll
 0002:00000678       \177api-ms-win-crt-string-l1-1-0_NULL_THUNK_DATA 0047c678     ucrt:api-ms-win-crt-string-l1-1-0.dll
 0002:0000067c       __imp__clock               0047c67c     ucrt:api-ms-win-crt-time-l1-1-0.dll
 0002:00000680       __imp___time64             0047c680     ucrt:api-ms-win-crt-time-l1-1-0.dll
 0002:00000684       \177api-ms-win-crt-time-l1-1-0_NULL_THUNK_DATA 0047c684     ucrt:api-ms-win-crt-time-l1-1-0.dll
 0002:00000688       __imp__abs                 0047c688     ucrt:api-ms-win-crt-utility-l1-1-0.dll
 0002:0000068c       __imp__rand                0047c68c     ucrt:api-ms-win-crt-utility-l1-1-0.dll
 0002:00000690       __imp__bsearch             0047c690     ucrt:api-ms-win-crt-utility-l1-1-0.dll
 0002:00000694       __imp__qsort               0047c694     ucrt:api-ms-win-crt-utility-l1-1-0.dll
 0002:00000698       \177api-ms-win-crt-utility-l1-1-0_NULL_THUNK_DATA 0047c698     ucrt:api-ms-win-crt-utility-l1-1-0.dll
 0002:0000069c       __imp__DoDragDrop@16       0047c69c     ole32:ole32.dll
 0002:000006a0       __imp__RegisterDragDrop@8  0047c6a0     ole32:ole32.dll
 0002:000006a4       __imp__OleUninitialize@0   0047c6a4     ole32:ole32.dll
 0002:000006a8       __imp__OleInitialize@4     0047c6a8     ole32:ole32.dll
 0002:000006ac       __imp__ReleaseStgMedium@4  0047c6ac     ole32:ole32.dll
 0002:000006b0       \177ole32_NULL_THUNK_DATA  0047c6b0     ole32:ole32.dll
 0002:000006b4       ___guard_check_icall_fptr  0047c6b4     MSVCRT:guard_support.obj
 0002:000006b8       ___guard_xfg_check_icall_fptr 0047c6b8     MSVCRT:guard_support.obj
 0002:000006bc       ___xc_a                    0047c6bc     MSVCRT:initializers.obj
 0002:000006f4       ___xc_z                    0047c6f4     MSVCRT:initializers.obj
 0002:000006f8       ___xi_a                    0047c6f8     MSVCRT:initializers.obj
 0002:00000708       ___xi_z                    0047c708     MSVCRT:initializers.obj
 0002:0000070c       ___xl_a                    0047c70c     MSVCRT:tlssup.obj
 0002:00000710       ___xl_z                    0047c710     MSVCRT:tlssup.obj
 0002:00000714       ___xp_a                    0047c714     MSVCRT:initializers.obj
 0002:00000718       ___xp_z                    0047c718     MSVCRT:initializers.obj
 0002:0000071c       ___xt_a                    0047c71c     MSVCRT:initializers.obj
 0002:00000720       ___xt_z                    0047c720     MSVCRT:initializers.obj
 0002:00000730       ??_C@_0DF@NNOEACBM@usage?3?5?$CFs?5?$FL?9r?5?$DM?$CD?$DO?5?9w?5?$DM?$CD?$DO?5?9t?$FN?5?$FLi@ 0047c730     main.obj
 0002:00000768       ??_C@_07NLNIDKMO@tr?3w?3h?3@ 0047c768     main.obj
 0002:00000770       ??_C@_0BO@KHKCPKHG@no?5input?5and?1or?5output?5name?4?6@ 0047c770     main.obj
 0002:00000790       ??_C@_0BL@CIPBKBPM@total?5time?5?$DN?5?$CF?43f?5seconds?6@ 0047c790     main.obj
 0002:000007b0       __real@3fe0000000000000    0047c7b0     main.obj
 0002:000007b8       __real@408f400000000000    0047c7b8     main.obj
 0002:000007c4       ??_7exception@std@@6B@     0047c7c4     RayTracer.obj
 0002:000007cc       ??_C@_0BC@EOODALEL@Unknown?5exception@ 0047c7cc     RayTracer.obj
 0002:000007e4       ??_7bad_alloc@std@@6B@     0047c7e4     RayTracer.obj
 0002:000007f0       ??_7bad_array_new_length@std@@6B@ 0047c7f0     RayTracer.obj
 0002:000007f8       ??_C@_0BF@KINCDENJ@bad?5array?5new?5length@ 0047c7f8     RayTracer.obj
 0002:00000810       ??_C@_0BA@DKEIIMHB@ParseError?3?5?$CFs?6@ 0047c810     RayTracer.obj
 0002:00000820       ??_C@_0BA@JFNIOLAK@string?5too?5long@ 0047c820     RayTracer.obj
 0002:00000830       ??_C@_0BC@KBDMBKEH@deque?$DMT?$DO?5too?5long@ 0047c830     RayTracer.obj
 0002:00000848       __real@3ee4f8b588e368f1    0047c848     RayTracer.obj
 0002:00000850       __real@3fa999999999999a    0047c850     RayTracer.obj
 0002:00000858       __real@3fb999999999999a    0047c858     RayTracer.obj
 0002:00000860       __real@3fc999999999999a    0047c860     RayTracer.obj
 0002:00000868       __real@3ff0000000000000    0047c868     RayTracer.obj
 0002:00000870       __real@4014000000000000    0047c870     RayTracer.obj
 0002:00000878       __real@4022000000000000    0047c878     RayTracer.obj
 0002:00000880       __real@4059000000000000    0047c880     RayTracer.obj
 0002:00000888       __real@406fe00000000000    0047c888     RayTracer.obj
 0002:00000890       __real@4070000000000000    0047c890     RayTracer.obj
 0002:000008a0       __xmm@3fe00000000000003fe0000000000000 0047c8a0     RayTracer.obj
 0002:000008b0       __xmm@3ff00000000000003ff0000000000000 0047c8b0     RayTracer.obj
 0002:000008c0       __xmm@7fffffffffffffff7fffffffffffffff 0047c8c0     RayTracer.obj
 0002:000008d0       __xmm@80000000000000008000000000000000 0047c8d0     RayTracer.obj
 0002:000008e4       ??_7Fl_Gl_Window@@6B@      0047c8e4     TraceGLWindow.obj
 0002:00000914       ??_7TraceGLWindow@@6B@     0047c914     TraceGLWindow.obj
 0002:00000940       ??_C@_05FHBCAALB@?$CGFile@ 0047c940     TraceUI.obj
 0002:00000948       ??_C@_0P@KFLCMLL@?$CGLoad?5Scene?4?4?4@ 0047c948     TraceUI.obj
 0002:00000958       ??_C@_0P@IGLBNMCE@?$CGSave?5Image?4?4?4@ 0047c958     TraceUI.obj
 0002:00000968       ??_C@_0BH@IBKJFKIK@?$CGLoad?5Background?5Image@ 0047c968     TraceUI.obj
 0002:00000980       ??_C@_05KNAFKLGA@?$CGExit@ 0047c980     TraceUI.obj
 0002:00000988       ??_C@_05JFEBOHHM@?$CGHelp@ 0047c988     TraceUI.obj
 0002:00000990       ??_C@_06JDCECANP@?$CGAbout@ 0047c990     TraceUI.obj
 0002:00000998       ??_C@_04OHJIHAFH@None@     0047c998     TraceUI.obj
 0002:000009a0       ??_C@_04FEKPLKKA@Grid@     0047c9a0     TraceUI.obj
 0002:000009a8       ??_C@_06BEOPDEGP@Random@   0047c9a8     TraceUI.obj
 0002:000009b0       ??_C@_08MKBDFFPF@Jittered@ 0047c9b0     TraceUI.obj
 0002:000009bc       ??_C@_08KANHGNEC@Adaptive@ 0047c9bc     TraceUI.obj
 0002:000009c8       ??_C@_05OACFOCNG@?$CK?4ray@ 0047c9c8     TraceUI.obj
 0002:000009d0       ??_C@_0M@GCFCGBJC@Open?5Scene?$DP@ 0047c9d0     TraceUI.obj
 0002:000009dc       ??_C@_08MDAAHFLF@Ray?5?$DM?$CFs?$DO@ 0047c9dc     TraceUI.obj
 0002:000009e8       ??_C@_0BB@NGIDKHOI@Ray?5?$DMNot?5Loaded?$DO@ 0047c9e8     TraceUI.obj
 0002:000009fc       ??_C@_08JLPGEAPE@save?4bmp@ 0047c9fc     TraceUI.obj
 0002:00000a08       ??_C@_05GIOEPHGE@?$CK?4bmp@ 0047ca08     TraceUI.obj
 0002:00000a10       ??_C@_0M@DLNIDFGI@Save?5Image?$DP@ 0047ca10     TraceUI.obj
 0002:00000a20       ??_C@_0HH@DJOINAMI@RayTracer?5Project?0?5FLTK?5version@ 0047ca20     TraceUI.obj
 0002:00000a98       ??_C@_09EAKLHDML@?$CI?$CFd?$CF?$CF?$CJ?5?$CFs@ 0047ca98     TraceUI.obj
 0002:00000aa4       ??_C@_05BOMFGPKE@Depth@    0047caa4     TraceUI.obj
 0002:00000aac       ??_C@_04EBKMHHBE@Size@     0047caac     TraceUI.obj
 0002:00000ab4       ??_C@_0BG@CGNBBMBJ@Attenuation?0?5Constant@ 0047cab4     TraceUI.obj
 0002:00000acc       ??_C@_0BE@MFODOKNI@Attenuation?0?5Linear@ 0047cacc     TraceUI.obj
 0002:00000ae0       ??_C@_0BF@BPDEHMKN@Attenuation?0?5Quadric@ 0047cae0     TraceUI.obj
 0002:00000af8       ??_C@_0O@FHMLHFLK@Ambient?5Light@ 0047caf8     TraceUI.obj
 0002:00000b08       ??_C@_09HLCHFPPJ@Threshold@ 0047cb08     TraceUI.obj
 0002:00000b14       ??_C@_0P@PONGOEPI@Super?5Sampling@ 0047cb14     TraceUI.obj
 0002:00000b24       ??_C@_09HJLFGLBK@Sub?9Pixel@ 0047cb24     TraceUI.obj
 0002:00000b30       ??_C@_07IIOEJGPH@?$CGRender@ 0047cb30     TraceUI.obj
 0002:00000b38       ??_C@_05GIJCMPEM@?$CGStop@ 0047cb38     TraceUI.obj
 0002:00000b40       ??_C@_0P@DLLDKOKB@Override?5Atten@ 0047cb40     TraceUI.obj
 0002:00000b50       ??_C@_0BB@LKFADALH@Override?5Ambient@ 0047cb50     TraceUI.obj
 0002:00000b64       ??_C@_03BHCIMNPH@DOF@      0047cb64     TraceUI.obj
 0002:00000b68       ??_C@_06FGKLFPAP@Glossy@   0047cb68     TraceUI.obj
 0002:00000b70       ??_C@_0M@EBFKHELC@Soft?5Shadow@ 0047cb70     TraceUI.obj
 0002:00000b7c       ??_C@_07PDCHJCFI@Diffuse@  0047cb7c     TraceUI.obj
 0002:00000b84       ??_C@_0P@BIKGMPPG@Rendered?5Image@ 0047cb84     TraceUI.obj
 0002:00000b98       __real@3f847ae147ae147b    0047cb98     TraceUI.obj
 0002:00000ba0       __xmm@00000014000000b40000001e0000000a 0047cba0     TraceUI.obj
 0002:00000bb0       __xmm@3ff00000000000000000000000000000 0047cbb0     TraceUI.obj
 0002:00000bc0       ??_C@_02JDPG@rb@           0047cbc0     bitmap.obj
 0002:00000bc4       ??_C@_02GMLFBBN@wb@        0047cbc4     bitmap.obj
 0002:00000bc8       ??_C@_0BB@GCADKGJO@map?1set?5too?5long@ 0047cbc8     parse.obj
 0002:00000bdc       ??_C@_05LAPONLG@false@     0047cbdc     parse.obj
 0002:00000be4       ??_C@_04LOAJBDKD@true@     0047cbe4     parse.obj
 0002:00000bec       ??_C@_01LFCBOECM@?4@       0047cbec     parse.obj
 0002:00000bf0       ??_C@_06ODAJNOHJ@?0?5got?5@ 0047cbf0     parse.obj
 0002:00000bf8       ??_C@_0CM@GIEFMEBK@Type?5mismatch?5error?5during?5pars@ 0047cbf8     parse.obj
 0002:00000c28       ??_7Obj@@6B@               0047cc28     parse.obj
 0002:00000c54       ??_C@_05JMKJMOPH@token@    0047cc54     parse.obj
 0002:00000c5c       ??_C@_06LAMNDLOG@scalar@   0047cc5c     parse.obj
 0002:00000c64       ??_C@_04DDKJGDCM@bool@     0047cc64     parse.obj
 0002:00000c6c       ??_C@_02EGCJHIOB@id@       0047cc6c     parse.obj
 0002:00000c70       ??_C@_06ICGJLFIM@string@   0047cc70     parse.obj
 0002:00000c78       ??_C@_05NNMEHDAO@tuple@    0047cc78     parse.obj
 0002:00000c80       ??_C@_04BCIDKIGN@dict@     0047cc80     parse.obj
 0002:00000c88       ??_C@_05FOFAOGDN@named@    0047cc88     parse.obj
 0002:00000c94       ??_7ScalarObj@@6B@         0047cc94     parse.obj
 0002:00000cc4       ??_7BooleanObj@@6B@        0047ccc4     parse.obj
 0002:00000cf4       ??_7IdObj@@6B@             0047ccf4     parse.obj
 0002:00000d24       ??_7StringObj@@6B@         0047cd24     parse.obj
 0002:00000d54       ??_7TupleObj@@6B@          0047cd54     parse.obj
 0002:00000d80       ??_C@_02KEGNLNML@?0?5@     0047cd80     parse.obj
 0002:00000d88       ??_7DictObj@@6B@           0047cd88     parse.obj
 0002:00000db4       ??_C@_02LNAEAIDO@?$DL?5@   0047cdb4     parse.obj
 0002:00000db8       ??_C@_03MHLONNLM@?5?$DN?5@ 0047cdb8     parse.obj
 0002:00000dc0       ??_7NamedObj@@6B@          0047cdc0     parse.obj
 0002:00000dec       ??_C@_0CC@IDEKONCJ@Parse?5Error?3?5unterminated?5comme@ 0047cdec     parse.obj
 0002:00000e10       ??_C@_04OIEAJMJE@?$HN?$CJ?0?$DL@ 0047ce10     parse.obj
 0002:00000e18       ??_C@_0M@HAMAGFOL@?5?7?6?$DN?$HL?$HN?$CI?$CJ?$DL?0?1@ 0047ce18     parse.obj
 0002:00000e24       ??_C@_0BN@PKELOCAN@Parse?5error?3?5expected?5comma?4@ 0047ce24     parse.obj
 0002:00000e44       ??_C@_0BO@DILJNIKO@Parse?5error?3?5expected?5equals?4@ 0047ce44     parse.obj
 0002:00000e64       ??_C@_0CK@FGHMGNDN@Parse?5error?3?5expected?5semicolon@ 0047ce64     parse.obj
 0002:00000e90       ??_C@_0BI@CFPLBAOH@invalid?5string?5position@ 0047ce90     parse.obj
 0002:00000ea8       ??_C@_0BA@FOIKENOD@vector?5too?5long@ 0047cea8     parse.obj
 0002:00000ec0       ??_7bad_cast@std@@6B@      0047cec0     read.obj
 0002:00000ec8       ??_C@_08EPJLHIJG@bad?5cast@ 0047cec8     read.obj
 0002:00000ed8       ??_7strstreambuf@std@@6B@  0047ced8     read.obj
 0002:00000f18       ??_7ostrstream@std@@6B@    0047cf18     read.obj
 0002:00000f1c       ??_8ostrstream@std@@7B@    0047cf1c     read.obj
 0002:00000f28       ??_7Material@@6B@          0047cf28     read.obj
 0002:00000f30       ??_7SceneElement@@6B@      0047cf30     read.obj
 0002:00000f38       ??_7Geometry@@6B@          0047cf38     read.obj
 0002:00000f54       ??_7SceneObject@@6B@       0047cf54     read.obj
 0002:00000f78       ??_7MaterialSceneObject@@6B@ 0047cf78     read.obj
 0002:00000f9c       ??_7Scene@@6B@             0047cf9c     read.obj
 0002:00000fa4       ??_7Trimesh@@6B@           0047cfa4     read.obj
 0002:00000fc8       ??_7Box@@6B@               0047cfc8     read.obj
 0002:00000fec       ??_7Cone@@6B@              0047cfec     read.obj
 0002:00001010       ??_7Cylinder@@6B@          0047d010     read.obj
 0002:00001034       ??_7Sphere@@6B@            0047d034     read.obj
 0002:00001058       ??_7Square@@6B@            0047d058     read.obj
 0002:0000107c       ??_7Light@@6B@             0047d07c     read.obj
 0002:00001094       ??_7DirectionalLight@@6B@  0047d094     read.obj
 0002:000010ac       ??_7PointLight@@6B@        0047d0ac     read.obj
 0002:000010c4       ??_7?$basic_filebuf@DU?$char_traits@D@std@@@std@@6B@ 0047d0c4     read.obj
 0002:00001104       ??_7?$basic_ifstream@DU?$char_traits@D@std@@@std@@6B@ 0047d104     read.obj
 0002:00001108       ??_8?$basic_ifstream@DU?$char_traits@D@std@@@std@@7B@ 0047d108     read.obj
 0002:00001110       ??_C@_0CB@CMNMOCL@Error?3?5couldn?8t?5read?5scene?5file@ 0047d110     read.obj
 0002:00001134       ??_C@_0O@DJOCHAI@Parse?5error?3?5@ 0047d134     read.obj
 0002:00001144       ??_C@_0O@FACIOJJJ@SBT?9raytracer@ 0047d144     read.obj
 0002:00001154       ??_C@_0CA@IMDDPACM@Input?5is?5not?5an?5SBT?5input?5file?4@ 0047d154     read.obj
 0002:00001174       ??_C@_0BD@KNJCBHMB@?0?5need?5version?51?40@ 0047d174     read.obj
 0002:00001188       ??_C@_0BC@BCJEKMIF@Input?5is?5version?5@ 0047d188     read.obj
 0002:0000119c       ??_C@_0BP@FDOIHNDN@Object?5contains?5no?5color?5field@ 0047d19c     read.obj
 0002:000011bc       ??_C@_05PEENBMOG@color@    0047d1bc     read.obj
 0002:000011c4       ??_C@_06FBNLAHKA@colour@   0047d1c4     read.obj
 0002:000011cc       ??_C@_01BJJEKLCA@?$CC@     0047d1cc     read.obj
 0002:000011d0       ??_C@_0CB@NAFHLPFG@Object?5contains?5no?5field?5named?5@ 0047d1d0     read.obj
 0002:000011f4       ??_C@_0BG@OLFBDBCH@Unknown?5input?5object?5@ 0047d1f4     read.obj
 0002:0000120c       ??_C@_0M@ECHGAHIB@?0?5expected?5@ 0047d20c     read.obj
 0002:00001218       ??_C@_0BA@BCEPJBGM@Bad?5tuple?5size?5@ 0047d218     read.obj
 0002:00001228       ??_C@_09ODNGOEIO@translate@ 0047d228     read.obj
 0002:00001234       ??_C@_06CEHMNFAL@rotate@   0047d234     read.obj
 0002:0000123c       ??_C@_05MHMEBBGO@scale@    0047d23c     read.obj
 0002:00001244       ??_C@_09IFONHNKG@transform@ 0047d244     read.obj
 0002:00001250       ??_C@_07HAACKDAH@trimesh@  0047d250     read.obj
 0002:00001258       ??_C@_08BGGMGDGA@polymesh@ 0047d258     read.obj
 0002:00001264       ??_C@_08KNOEMJMM@material@ 0047d264     read.obj
 0002:00001270       ??_C@_06FOHEPPJH@sphere@   0047d270     read.obj
 0002:00001278       ??_C@_03OLPJGAII@box@      0047d278     read.obj
 0002:0000127c       ??_C@_08GNLJBPEP@cylinder@ 0047d27c     read.obj
 0002:00001288       ??_C@_06MGAFENDN@capped@   0047d288     read.obj
 0002:00001290       ??_C@_04NOMJJLOC@cone@     0047d290     read.obj
 0002:00001298       ??_C@_06LNLHEAAG@height@   0047d298     read.obj
 0002:000012a0       ??_C@_0O@MGOOHFDO@bottom_radius@ 0047d2a0     read.obj
 0002:000012b0       ??_C@_0L@ECCBOGFH@top_radius@ 0047d2b0     read.obj
 0002:000012bc       ??_C@_06ICDKOIFG@square@   0047d2bc     read.obj
 0002:000012c4       ??_C@_06GPGIDCJA@points@   0047d2c4     read.obj
 0002:000012cc       ??_C@_05FHFPJHPF@faces@    0047d2cc     read.obj
 0002:000012d4       ??_C@_0CF@GEDICGEO@Faces?5must?5have?5at?5least?53?5vert@ 0047d2d4     read.obj
 0002:000012fc       ??_C@_0BF@OEEFHGHM@Bad?5face?5in?5trimesh?4@ 0047d2fc     read.obj
 0002:00001314       ??_C@_0L@BHGKEBAO@gennormals@ 0047d314     read.obj
 0002:00001320       ??_C@_09JGGNEAGH@materials@ 0047d320     read.obj
 0002:0000132c       ??_C@_07MDEPDJDC@normals@  0047d32c     read.obj
 0002:00001334       ??_C@_08GHNOEFBP@emissive@ 0047d334     read.obj
 0002:00001340       ??_C@_07LIABELBC@ambient@  0047d340     read.obj
 0002:00001348       ??_C@_08DPLIAGAA@specular@ 0047d348     read.obj
 0002:00001354       ??_C@_07KFBPAAO@diffuse@   0047d354     read.obj
 0002:0000135c       ??_C@_0L@PIKBEMPP@reflective@ 0047d35c     read.obj
 0002:00001368       ??_C@_0N@LNDBFIIK@transmissive@ 0047d368     read.obj
 0002:00001378       ??_C@_05FKHKFDID@index@    0047d378     read.obj
 0002:00001380       ??_C@_09KFDJGKDF@shininess@ 0047d380     read.obj
 0002:0000138c       ??_C@_04MEMAJGDJ@name@     0047d38c     read.obj
 0002:00001394       ??_C@_0CG@IHKLPAFD@Attempt?5to?5bind?5material?5with?5n@ 0047d394     read.obj
 0002:000013bc       ??_C@_08OAGMDKAF@position@ 0047d3bc     read.obj
 0002:000013c8       ??_C@_0L@JPALPDGI@quaternion@ 0047d3c8     read.obj
 0002:000013d4       ??_C@_0BC@IKBCFBBB@Bogus?5quaternion?4@ 0047d3d4     read.obj
 0002:000013e8       ??_C@_03PKBINKFB@fov@      0047d3e8     read.obj
 0002:000013ec       ??_C@_0M@FFGFHNCN@aspectratio@ 0047d3ec     read.obj
 0002:000013f8       ??_C@_07BDEMJIAO@viewdir@  0047d3f8     read.obj
 0002:00001400       ??_C@_05CELKJGO@updir@     0047d400     read.obj
 0002:00001408       ??_C@_0BC@CFBAKHOB@directional_light@ 0047d408     read.obj
 0002:0000141c       ??_C@_0BO@NHKEEDJH@No?5info?5for?5directional_light@ 0047d41c     read.obj
 0002:0000143c       ??_C@_09HPKLLIJF@direction@ 0047d43c     read.obj
 0002:00001448       ??_C@_0M@GHOKJKOP@point_light@ 0047d448     read.obj
 0002:00001454       ??_C@_0BI@OAABJGEO@No?5info?5for?5point_light@ 0047d454     read.obj
 0002:0000146c       ??_C@_0BL@GCHPFKFA@constant_attenuation_coeff@ 0047d46c     read.obj
 0002:00001488       ??_C@_0BJ@GGAAGJLB@linear_attenuation_coeff@ 0047d488     read.obj
 0002:000014a4       ??_C@_0BM@BMILJKBB@quadratic_attenuation_coeff@ 0047d4a4     read.obj
 0002:000014c0       ??_C@_0O@IHCDKIJG@ambient_light@ 0047d4c0     read.obj
 0002:000014d0       ??_C@_0BK@DJIJOOPO@No?5info?5for?5ambient_light@ 0047d4d0     read.obj
 0002:000014ec       ??_C@_06FNKMPIBD@camera@   0047d4ec     read.obj
 0002:000014f4       ??_C@_0BG@BBAIFKIF@Unrecognized?5object?3?5@ 0047d4f4     read.obj
 0002:0000150c       ??_C@_0O@NKNMEGII@list?5too?5long@ 0047d50c     read.obj
 0002:0000151c       __real@3f800000            0047d51c     read.obj
 0002:00001520       __real@bee4f8b588e368f1    0047d520     read.obj
 0002:00001530       __xmm@00000000000000003ff0000000000000 0047d530     read.obj
 0002:00001540       __xmm@bfe0000000000000bfe0000000000000 0047d540     read.obj
 0002:00001550       __xmm@bff0000000000000bff0000000000000 0047d550     read.obj
 0002:00001560       __real@0000000000000000    0047d560     vecmath.obj
 0002:00001568       __real@404ca5dc1a63bfe5    0047d568     camera.obj
 0002:00001570       __real@bff0000000000000    0047d570     camera.obj
 0002:00001578       __real@4060000000000000    0047d578     material.obj
 0002:00001580       __real@7fe1ccf385ebc8a0    0047d580     scene.obj
 0002:00001588       __real@ffe1ccf385ebc8a0    0047d588     scene.obj
 0002:00001590       __real@7fefffffffffffff    0047d590     Box.obj
 0002:00001598       __real@bfe0000000000000    0047d598     Box.obj
 0002:000015a0       __real@ffefffffffffffff    0047d5a0     Box.obj
 0002:000015a8       __real@4010000000000000    0047d5a8     Cone.obj
 0002:000015b0       __real@8000000000000000    0047d5b0     Cylinder.obj
 0002:000015bc       ??_7TrimeshFace@@6B@       0047d5bc     trimesh.obj
 0002:000015dc       ??_C@_0CI@DJLMOCOM@Bad?5Trimesh?3?5Wrong?5number?5of?5ma@ 0047d5dc     trimesh.obj
 0002:00001604       ??_C@_0CG@CGLEALMC@Bad?5Trimesh?3?5Wrong?5number?5of?5no@ 0047d604     trimesh.obj
 0002:0000162c       __real@00800000            0047d62c     trimesh.obj
 0002:00001630       __real@bf800000            0047d630     trimesh.obj
 0002:000017c0       ?clipboard_plain_text@Fl@@2QBDB 0047d7c0     fltk:Fl.obj
 0002:000017c4       ?clipboard_image@Fl@@2QBDB 0047d7c4     fltk:Fl.obj
 0002:00001a38       ??_7Fl_Image@@6B@          0047da38     fltk:Fl.obj
 0002:00001a5c       ??_7Fl_RGB_Image@@6B@      0047da5c     fltk:Fl.obj
 0002:00001a80       ??_7Fl_Device@@6B@         0047da80     fltk:Fl.obj
 0002:00001a8c       ??_7Fl_Graphics_Driver@@6B@ 0047da8c     fltk:Fl.obj
 0002:00001b7c       ??_7Fl_GDI_Graphics_Driver@@6B@ 0047db7c     fltk:Fl.obj
 0002:00001c6c       ??_7Fl_Surface_Device@@6B@ 0047dc6c     fltk:Fl.obj
 0002:00001c78       __real@3f50624dd2f1a9fc    0047dc78     fltk:Fl.obj
 0002:00001c80       __real@3ff07c1bda5119ce    0047dc80     fltk:Fl.obj
 0002:00001c88       __real@40c3880000000000    0047dc88     fltk:Fl.obj
 0002:00001c90       __real@4415af1d78b58c40    0047dc90     fltk:Fl.obj
 0002:00001cd8       ??_7Fl_Window@@6B@         0047dcd8     fltk:Fl_Window.obj
 0002:00001d04       ??_7Fl_Widget@@6B@         0047dd04     fltk:Fl_Widget.obj
 0002:00001d44       ??_7Fl_Group@@6B@          0047dd44     fltk:Fl_Group.obj
 0002:00001d6c       ??_7InputMenuButton@Fl_Input_Choice@@6B@ 0047dd6c     fltk:Fl_Group.obj
 0002:00001d94       ??_7Fl_Input_Choice@@6B@   0047dd94     fltk:Fl_Group.obj
 0002:00001dbc       ??_7Fl_Spinner@@6B@        0047ddbc     fltk:Fl_Group.obj
 0002:00001de0       ??_C@_05DLHCDJKH@?$CF?412f?$AA@ 0047dde0     fltk:Fl_Group.obj
 0002:00001e04       ??_7Fl_Menu_@@6B@          0047de04     fltk:Fl_Menu_.obj
 0002:00001e2c       ??_7Fl_Menu_Bar@@6B@       0047de2c     fltk:Fl_Menu_Bar.obj
 0002:00001e68       ??_7Fl_Valuator@@6B@       0047de68     fltk:Fl_Valuator.obj
 0002:00001e98       __real@3e0002fab692ca0a    0047de98     fltk:Fl_Valuator.obj
 0002:00001ea4       ??_7Fl_Value_Slider@@6B@   0047dea4     fltk:Fl_Value_Slider.obj
 0002:00001ed4       ??_7Fl_Hor_Value_Slider@@6B@ 0047ded4     fltk:Fl_Value_Slider.obj
 0002:00001f04       ??_7Fl_Button@@6B@         0047df04     fltk:Fl_Button.obj
 0002:00001f2c       ??_7Fl_Radio_Button@@6B@   0047df2c     fltk:Fl_Button.obj
 0002:00001f54       ??_7Fl_Toggle_Button@@6B@  0047df54     fltk:Fl_Button.obj
 0002:00001f78       __real@3fc3333333333333    0047df78     fltk:Fl_Button.obj
 0002:00001fa4       ??_7Fl_Light_Button@@6B@   0047dfa4     fltk:Fl_Light_Button.obj
 0002:00001fcc       ??_7Fl_Radio_Light_Button@@6B@ 0047dfcc     fltk:Fl_Light_Button.obj
 0002:00001ff0       __real@3e4ccccd            0047dff0     fltk:Fl_Light_Button.obj
 0002:00001ff4       __real@3f000000            0047dff4     fltk:Fl_Light_Button.obj
 0002:00001ff8       __real@404e000000000000    0047dff8     fltk:Fl_Light_Button.obj
 0002:00002000       __real@4066800000000000    0047e000     fltk:Fl_Light_Button.obj
 0002:00002008       __real@4076800000000000    0047e008     fltk:Fl_Light_Button.obj
 0002:0000201c       ??_7Fl_Choice@@6B@         0047e01c     fltk:Fl_Choice.obj
 0002:00002040       __real@3f2b851f            0047e040     fltk:Fl_Choice.obj
 0002:000024f8       __real@00000000            0047e4f8     fltk:screen_xywh.obj
 0002:000024fc       __real@437f0000            0047e4fc     fltk:Fl_Image.obj
 0002:00002500       __real@43800000            0047e500     fltk:Fl_Image.obj
 0002:00002510       __xmm@41f00000000000000000000000000000 0047e510     fltk:Fl_Image.obj
 0002:00002524       ??_7Fl_TooltipBox@@6B@     0047e524     fltk:Fl_Tooltip.obj
 0002:0000254c       __real@3ea8f5c3            0047e54c     fltk:fl_color.obj
 0002:0000256c       ??_7Fl_Double_Window@@6B@  0047e56c     fltk:Fl_Double_Window.obj
 0002:00002598       ??_7Fl_Overlay_Window@@6B@ 0047e598     fltk:Fl_Double_Window.obj
 0002:000028b0       ??_7Fl_Preferences@@6B@    0047e8b0     fltk:Fl_Preferences.obj
 0002:000028b8       ??_7Fl_Plugin@@6B@         0047e8b8     fltk:Fl_Preferences.obj
 0002:000028c0       ??_7Fl_Plugin_Manager@@6B@ 0047e8c0     fltk:Fl_Preferences.obj
 0002:00002948       ?m0@Fl_Graphics_Driver@@0Umatrix@1@B 0047e948     fltk:Fl_Device.obj
 0002:0000297c       ??_7Fl_Display_Device@@6B@ 0047e97c     fltk:Fl_Device.obj
 0002:00002a88       __real@400921fb54442d18    0047ea88     fltk:fl_vertex.obj
 0002:00002a90       __real@4056800000000000    0047ea90     fltk:fl_vertex.obj
 0002:00002a98       __real@4070e00000000000    0047ea98     fltk:fl_vertex.obj
 0002:00002aa0       __real@c056800000000000    0047eaa0     fltk:fl_vertex.obj
 0002:00002aa8       __real@4000000000000000    0047eaa8     fltk:fl_curve.obj
 0002:00002ab0       __real@4008000000000000    0047eab0     fltk:fl_curve.obj
 0002:00002ab8       __real@4018000000000000    0047eab8     fltk:fl_curve.obj
 0002:00002ac0       __real@3f91df46a2529d39    0047eac0     fltk:fl_arc.obj
 0002:00002ac8       __real@3fc0000000000000    0047eac8     fltk:fl_arc.obj
 0002:00002ce8       ??_7Fl_Pixmap@@6B@         0047ece8     fltk:Fl_Pixmap.obj
 0002:00002d30       ??_7Fl_Bitmap@@6B@         0047ed30     fltk:Fl_Bitmap.obj
 0002:00004120       __real@3fe7a6f4de9bd37a    00480120     fltk:Fl_get_system_colors.obj
 0002:00004128       __real@4037000000000000    00480128     fltk:Fl_get_system_colors.obj
 0002:00004144       ??_7FLDropTarget@@6B@      00480144     fltk:fl_dnd.obj
 0002:00004168       ??_7FLDropSource@@6B@      00480168     fltk:fl_dnd.obj
 0002:00004184       ??_7FLDataObject@@6B@      00480184     fltk:fl_dnd.obj
 0002:000042f4       ??_7Fl_Box@@6B@            004802f4     fltk:Fl_Box.obj
 0002:0000431c       ??_7Fl_Return_Button@@6B@  0048031c     fltk:Fl_Return_Button.obj
 0002:00004354       ??_7Fl_Input_@@6B@         00480354     fltk:Fl_Input_.obj
 0002:00004378       __real@40000000            00480378     fltk:Fl_Input_.obj
 0002:0000437c       __real@40200000            0048037c     fltk:Fl_Input_.obj
 0002:00004380       __real@40400000            00480380     fltk:Fl_Input_.obj
 0002:00004384       __real@40600000            00480384     fltk:Fl_Input_.obj
 0002:00004398       ??_7Fl_Input@@6B@          00480398     fltk:Fl_Input.obj
 0002:000043c0       ??_7Fl_Float_Input@@6B@    004803c0     fltk:Fl_Input.obj
 0002:000043e8       ??_7Fl_Int_Input@@6B@      004803e8     fltk:Fl_Input.obj
 0002:00004410       ??_7Fl_Multiline_Input@@6B@ 00480410     fltk:Fl_Input.obj
 0002:00004438       ??_7Fl_Output@@6B@         00480438     fltk:Fl_Input.obj
 0002:00004460       ??_7Fl_Multiline_Output@@6B@ 00480460     fltk:Fl_Input.obj
 0002:00004488       ??_7Fl_Secret_Input@@6B@   00480488     fltk:Fl_Input.obj
 0002:00004528       ??_7Fl_Menu_Button@@6B@    00480528     fltk:Fl_Menu_Button.obj
 0002:00004550       ??_7Fl_Repeat_Button@@6B@  00480550     fltk:Fl_Repeat_Button.obj
 0002:00004590       ??_7menutitle@@6B@         00480590     fltk:Fl_Menu.obj
 0002:000045bc       ??_7menuwindow@@6B@        004805bc     fltk:Fl_Menu.obj
 0002:000045f0       ??_7Fl_Slider@@6B@         004805f0     fltk:Fl_Slider.obj
 0002:00004620       ??_7Fl_Fill_Slider@@6B@    00480620     fltk:Fl_Slider.obj
 0002:00004650       ??_7Fl_Hor_Slider@@6B@     00480650     fltk:Fl_Slider.obj
 0002:00004680       ??_7Fl_Hor_Fill_Slider@@6B@ 00480680     fltk:Fl_Slider.obj
 0002:000046b0       ??_7Fl_Hor_Nice_Slider@@6B@ 004806b0     fltk:Fl_Slider.obj
 0002:000046e0       ??_7Fl_Nice_Slider@@6B@    004806e0     fltk:Fl_Slider.obj
 0002:000047c4       ??_C@_00CNPNBAHC@?$AA@     004807c4     fltk:Fl_File_Chooser.obj
 0002:000049d0       ??_7Fl_Menu_Window@@6B@    004809d0     fltk:Fl_Menu_Window.obj
 0002:00004a74       __real@3f400000            00480a74     fltk:fl_plastic.obj
 0002:00004a78       __real@4046800000000000    00480a78     fltk:fl_plastic.obj
 0002:00004a80       __real@4060e00000000000    00480a80     fltk:fl_plastic.obj
 0002:00004a88       __real@406c200000000000    00480a88     fltk:fl_plastic.obj
 0002:00004a90       __real@4073b00000000000    00480a90     fltk:fl_plastic.obj
 0002:00004a98       __real@4079500000000000    00480a98     fltk:fl_plastic.obj
 0002:00004aa0       __real@3ccccccd            00480aa0     fltk:fl_gtk.obj
 0002:00004aa4       __real@3d4ccccd            00480aa4     fltk:fl_gtk.obj
 0002:00004aa8       __real@3dcccccd            00480aa8     fltk:fl_gtk.obj
 0002:00004aac       __real@3ecccccd            00480aac     fltk:fl_gtk.obj
 0002:00004ab0       __real@3f19999a            00480ab0     fltk:fl_gtk.obj
 0002:00004ab4       __real@3e19999a            00480ab4     fltk:fl_gleam.obj
 0002:00004ab8       __real@3e800000            00480ab8     fltk:fl_gleam.obj
 0002:00004abc       __real@3eb33333            00480abc     fltk:fl_gleam.obj
 0002:00004ac0       __real@3ee66666            00480ac0     fltk:fl_gleam.obj
 0002:00004ac4       __real@3f0ccccd            00480ac4     fltk:fl_gleam.obj
 0002:00004ac8       __real@3f266666            00480ac8     fltk:fl_gleam.obj
 0002:00004acc       __real@3f59999a            00480acc     fltk:fl_gleam.obj
 0002:00004ad0       __real@3f733333            00480ad0     fltk:fl_gleam.obj
 0002:00004ad8       __real@3feff7ced916872b    00480ad8     fltk:fl_gleam.obj
 0002:00004ae4       ??_7Fl_Tiled_Image@@6B@    00480ae4     fltk:Fl_Tiled_Image.obj
 0002:00007518       __real@3f747ae147ae147b    00483518     fltk:fl_symbols.obj
 0002:00007520       __real@3f8eb851eb851eb8    00483520     fltk:fl_symbols.obj
 0002:00007528       __real@3fc0a3d70a3d70a4    00483528     fltk:fl_symbols.obj
 0002:00007530       __real@3fd3333333333333    00483530     fltk:fl_symbols.obj
 0002:00007538       __real@3fd6666666666666    00483538     fltk:fl_symbols.obj
 0002:00007540       __real@3fd999999999999a    00483540     fltk:fl_symbols.obj
 0002:00007548       __real@3fe3333333333333    00483548     fltk:fl_symbols.obj
 0002:00007550       __real@3fe4cccccccccccd    00483550     fltk:fl_symbols.obj
 0002:00007558       __real@3fe6666666666666    00483558     fltk:fl_symbols.obj
 0002:00007560       __real@3fe75c28f5c28f5c    00483560     fltk:fl_symbols.obj
 0002:00007568       __real@3fe999999999999a    00483568     fltk:fl_symbols.obj
 0002:00007570       __real@3feb333333333333    00483570     fltk:fl_symbols.obj
 0002:00007578       __real@3feccccccccccccd    00483578     fltk:fl_symbols.obj
 0002:00007580       __real@3fee666666666666    00483580     fltk:fl_symbols.obj
 0002:00007588       __real@3ff199999999999a    00483588     fltk:fl_symbols.obj
 0002:00007590       __real@3ff4cccccccccccd    00483590     fltk:fl_symbols.obj
 0002:00007598       __real@3ff6e147ae147ae1    00483598     fltk:fl_symbols.obj
 0002:000075a0       __real@3ffb333333333333    004835a0     fltk:fl_symbols.obj
 0002:000075a8       __real@4024000000000000    004835a8     fltk:fl_symbols.obj
 0002:000075b0       __real@4061800000000000    004835b0     fltk:fl_symbols.obj
 0002:000075b8       __real@40a00000            004835b8     fltk:fl_symbols.obj
 0002:000075bc       __real@40c00000            004835bc     fltk:fl_symbols.obj
 0002:000075c0       __real@41200000            004835c0     fltk:fl_symbols.obj
 0002:000075c8       __real@bfb999999999999a    004835c8     fltk:fl_symbols.obj
 0002:000075d0       __real@bfc0a3d70a3d70a4    004835d0     fltk:fl_symbols.obj
 0002:000075d8       __real@bfc3333333333333    004835d8     fltk:fl_symbols.obj
 0002:000075e0       __real@bfc999999999999a    004835e0     fltk:fl_symbols.obj
 0002:000075e8       __real@bfd0000000000000    004835e8     fltk:fl_symbols.obj
 0002:000075f0       __real@bfd3333333333333    004835f0     fltk:fl_symbols.obj
 0002:000075f8       __real@bfd6666666666666    004835f8     fltk:fl_symbols.obj
 0002:00007600       __real@bfd999999999999a    00483600     fltk:fl_symbols.obj
 0002:00007608       __real@bfe3333333333333    00483608     fltk:fl_symbols.obj
 0002:00007610       __real@bfe4cccccccccccd    00483610     fltk:fl_symbols.obj
 0002:00007618       __real@bfe6666666666666    00483618     fltk:fl_symbols.obj
 0002:00007620       __real@bfe75c28f5c28f5c    00483620     fltk:fl_symbols.obj
 0002:00007628       __real@bfe999999999999a    00483628     fltk:fl_symbols.obj
 0002:00007630       __real@bfeccccccccccccd    00483630     fltk:fl_symbols.obj
 0002:00007638       __real@bfee666666666666    00483638     fltk:fl_symbols.obj
 0002:00007640       __real@bff3333333333333    00483640     fltk:fl_symbols.obj
 0002:00007648       __real@bffccccccccccccd    00483648     fltk:fl_symbols.obj
 0002:00007650       __real@c000000000000000    00483650     fltk:fl_symbols.obj
 0002:00007658       __real@c060e00000000000    00483658     fltk:fl_symbols.obj
 0002:00007660       __real@c066800000000000    00483660     fltk:fl_symbols.obj
 0002:0000766c       ??_7Fl_Tile@@6B@           0048366c     fltk:Fl_Tile.obj
 0002:00007694       ??_7Fl_Browser_@@6B@       00483694     fltk:Fl_Browser_.obj
 0002:00007724       ??_7Fl_Browser@@6B@        00483724     fltk:Fl_File_Browser.obj
 0002:0000778c       ??_7Fl_File_Browser@@6B@   0048378c     fltk:Fl_File_Browser.obj
 0002:000077f0       __real@4020000000000000    004837f0     fltk:Fl_File_Browser.obj
 0002:000077fc       ??_7Fl_Check_Button@@6B@   004837fc     fltk:Fl_Check_Button.obj
 0002:00007824       ??_7Fl_File_Input@@6B@     00483824     fltk:Fl_File_Input.obj
 0002:00007850       ??_7Fl_Hold_Browser@@6B@   00483850     fltk:Fl_Browser.obj
 0002:000078b8       ??_7Fl_Multi_Browser@@6B@  004838b8     fltk:Fl_Browser.obj
 0002:00007920       ??_7Fl_Select_Browser@@6B@ 00483920     fltk:Fl_Browser.obj
 0002:00007988       __real@3f1a36e2eb1c432d    00483988     fltk:Fl_File_Icon.obj
 0002:000079b8       ??_7Fl_Shared_Image@@6B@   004839b8     fltk:Fl_Shared_Image.obj
 0002:000079dc       ??_7Fl_Single_Window@@6B@  004839dc     fltk:Fl_Single_Window.obj
 0002:00007a18       ??_7Fl_Scrollbar@@6B@      00483a18     fltk:Fl_Scrollbar.obj
 0002:00007a6c       ??_7Fl_XBM_Image@@6B@      00483a6c     fltk:Fl_XBM_Image.obj
 0002:00007aa0       ??_7Fl_XPM_Image@@6B@      00483aa0     fltk:Fl_XPM_Image.obj
 0002:00007b5c       ??_7Fl_Device_Plugin@@6B@  00483b5c     fltkgl:Fl_Gl_Device_Plugin.obj
 0002:00007b6c       ??_C@_0M@GJHFDAML@fltk?3device?$AA@ 00483b6c     fltkgl:Fl_Gl_Device_Plugin.obj
 0002:00007b7c       ??_7Fl_Gl_Device_Plugin@@6B@ 00483b7c     fltkgl:Fl_Gl_Device_Plugin.obj
 0002:00007b8c       ??_C@_0BH@OACKAEDA@opengl?4device?4fltk?4org?$AA@ 00483b8c     fltkgl:Fl_Gl_Device_Plugin.obj
 0002:00007ba4       _IID_IUnknown              00483ba4     uuid:unknwn_i.obj
 0002:00007bb4       _IID_AsyncIUnknown         00483bb4     uuid:unknwn_i.obj
 0002:00007bc4       _IID_IClassFactory         00483bc4     uuid:unknwn_i.obj
 0002:00007bd4       _IID_IMarshal              00483bd4     uuid:objidl_i.obj
 0002:00007be4       _IID_INoMarshal            00483be4     uuid:objidl_i.obj
 0002:00007bf4       _IID_IAgileObject          00483bf4     uuid:objidl_i.obj
 0002:00007c04       _IID_IActivationFilter     00483c04     uuid:objidl_i.obj
 0002:00007c14       _IID_IMarshal2             00483c14     uuid:objidl_i.obj
 0002:00007c24       _IID_IMalloc               00483c24     uuid:objidl_i.obj
 0002:00007c34       _IID_IStdMarshalInfo       00483c34     uuid:objidl_i.obj
 0002:00007c44       _IID_IExternalConnection   00483c44     uuid:objidl_i.obj
 0002:00007c54       _IID_IMultiQI              00483c54     uuid:objidl_i.obj
 0002:00007c64       _IID_AsyncIMultiQI         00483c64     uuid:objidl_i.obj
 0002:00007c74       _IID_IInternalUnknown      00483c74     uuid:objidl_i.obj
 0002:00007c84       _IID_IEnumUnknown          00483c84     uuid:objidl_i.obj
 0002:00007c94       _IID_IEnumString           00483c94     uuid:objidl_i.obj
 0002:00007ca4       _IID_ISequentialStream     00483ca4     uuid:objidl_i.obj
 0002:00007cb4       _IID_IStream               00483cb4     uuid:objidl_i.obj
 0002:00007cc4       _IID_IRpcChannelBuffer     00483cc4     uuid:objidl_i.obj
 0002:00007cd4       _IID_IRpcChannelBuffer2    00483cd4     uuid:objidl_i.obj
 0002:00007ce4       _IID_IAsyncRpcChannelBuffer 00483ce4     uuid:objidl_i.obj
 0002:00007cf4       _IID_IRpcChannelBuffer3    00483cf4     uuid:objidl_i.obj
 0002:00007d04       _IID_IRpcSyntaxNegotiate   00483d04     uuid:objidl_i.obj
 0002:00007d14       _IID_IRpcProxyBuffer       00483d14     uuid:objidl_i.obj
 0002:00007d24       _IID_IRpcStubBuffer        00483d24     uuid:objidl_i.obj
 0002:00007d34       _IID_IPSFactoryBuffer      00483d34     uuid:objidl_i.obj
 0002:00007d44       _IID_IChannelHook          00483d44     uuid:objidl_i.obj
 0002:00007d54       _IID_IClientSecurity       00483d54     uuid:objidl_i.obj
 0002:00007d64       _IID_IServerSecurity       00483d64     uuid:objidl_i.obj
 0002:00007d74       _IID_IRpcOptions           00483d74     uuid:objidl_i.obj
 0002:00007d84       _IID_IGlobalOptions        00483d84     uuid:objidl_i.obj
 0002:00007d94       _IID_ISurrogate            00483d94     uuid:objidl_i.obj
 0002:00007da4       _IID_IGlobalInterfaceTable 00483da4     uuid:objidl_i.obj
 0002:00007db4       _IID_ISynchronize          00483db4     uuid:objidl_i.obj
 0002:00007dc4       _IID_ISynchronizeHandle    00483dc4     uuid:objidl_i.obj
 0002:00007dd4       _IID_ISynchronizeEvent     00483dd4     uuid:objidl_i.obj
 0002:00007de4       _IID_ISynchronizeContainer 00483de4     uuid:objidl_i.obj
 0002:00007df4       _IID_ISynchronizeMutex     00483df4     uuid:objidl_i.obj
 0002:00007e04       _IID_ICancelMethodCalls    00483e04     uuid:objidl_i.obj
 0002:00007e14       _IID_IAsyncManager         00483e14     uuid:objidl_i.obj
 0002:00007e24       _IID_ICallFactory          00483e24     uuid:objidl_i.obj
 0002:00007e34       _IID_IRpcHelper            00483e34     uuid:objidl_i.obj
 0002:00007e44       _IID_IReleaseMarshalBuffers 00483e44     uuid:objidl_i.obj
 0002:00007e54       _IID_IWaitMultiple         00483e54     uuid:objidl_i.obj
 0002:00007e64       _IID_IAddrTrackingControl  00483e64     uuid:objidl_i.obj
 0002:00007e74       _IID_IAddrExclusionControl 00483e74     uuid:objidl_i.obj
 0002:00007e84       _IID_IPipeByte             00483e84     uuid:objidl_i.obj
 0002:00007e94       _IID_AsyncIPipeByte        00483e94     uuid:objidl_i.obj
 0002:00007ea4       _IID_IPipeLong             00483ea4     uuid:objidl_i.obj
 0002:00007eb4       _IID_AsyncIPipeLong        00483eb4     uuid:objidl_i.obj
 0002:00007ec4       _IID_IPipeDouble           00483ec4     uuid:objidl_i.obj
 0002:00007ed4       _IID_AsyncIPipeDouble      00483ed4     uuid:objidl_i.obj
 0002:00007ee4       _IID_IEnumContextProps     00483ee4     uuid:objidl_i.obj
 0002:00007ef4       _IID_IContext              00483ef4     uuid:objidl_i.obj
 0002:00007f04       _IID_IObjContext           00483f04     uuid:objidl_i.obj
 0002:00007f14       _IID_IComThreadingInfo     00483f14     uuid:objidl_i.obj
 0002:00007f24       _IID_IProcessInitControl   00483f24     uuid:objidl_i.obj
 0002:00007f34       _IID_IFastRundown          00483f34     uuid:objidl_i.obj
 0002:00007f44       _IID_IMarshalingStream     00483f44     uuid:objidl_i.obj
 0002:00007f54       _IID_IAgileReference       00483f54     uuid:objidl_i.obj
 0002:00007f64       _IID_IMallocSpy            00483f64     uuid:objidl_i.obj
 0002:00007f74       _IID_IBindCtx              00483f74     uuid:objidl_i.obj
 0002:00007f84       _IID_IEnumMoniker          00483f84     uuid:objidl_i.obj
 0002:00007f94       _IID_IRunnableObject       00483f94     uuid:objidl_i.obj
 0002:00007fa4       _IID_IRunningObjectTable   00483fa4     uuid:objidl_i.obj
 0002:00007fb4       _IID_IPersist              00483fb4     uuid:objidl_i.obj
 0002:00007fc4       _IID_IPersistStream        00483fc4     uuid:objidl_i.obj
 0002:00007fd4       _IID_IMoniker              00483fd4     uuid:objidl_i.obj
 0002:00007fe4       _IID_IROTData              00483fe4     uuid:objidl_i.obj
 0002:00007ff4       _IID_IEnumSTATSTG          00483ff4     uuid:objidl_i.obj
 0002:00008004       _IID_IStorage              00484004     uuid:objidl_i.obj
 0002:00008014       _IID_IPersistFile          00484014     uuid:objidl_i.obj
 0002:00008024       _IID_IPersistStorage       00484024     uuid:objidl_i.obj
 0002:00008034       _IID_ILockBytes            00484034     uuid:objidl_i.obj
 0002:00008044       _IID_IEnumFORMATETC        00484044     uuid:objidl_i.obj
 0002:00008054       _IID_IEnumSTATDATA         00484054     uuid:objidl_i.obj
 0002:00008064       _IID_IRootStorage          00484064     uuid:objidl_i.obj
 0002:00008074       _IID_IAdviseSink           00484074     uuid:objidl_i.obj
 0002:00008084       _IID_AsyncIAdviseSink      00484084     uuid:objidl_i.obj
 0002:00008094       _IID_IAdviseSink2          00484094     uuid:objidl_i.obj
 0002:000080a4       _IID_AsyncIAdviseSink2     004840a4     uuid:objidl_i.obj
 0002:000080b4       _IID_IDataObject           004840b4     uuid:objidl_i.obj
 0002:000080c4       _IID_IDataAdviseHolder     004840c4     uuid:objidl_i.obj
 0002:000080d4       _IID_IMessageFilter        004840d4     uuid:objidl_i.obj
 0002:000080e4       _IID_IClassActivator       004840e4     uuid:objidl_i.obj
 0002:000080f4       _IID_IFillLockBytes        004840f4     uuid:objidl_i.obj
 0002:00008104       _IID_IProgressNotify       00484104     uuid:objidl_i.obj
 0002:00008114       _IID_ILayoutStorage        00484114     uuid:objidl_i.obj
 0002:00008124       _IID_IBlockingLock         00484124     uuid:objidl_i.obj
 0002:00008134       _IID_ITimeAndNoticeControl 00484134     uuid:objidl_i.obj
 0002:00008144       _IID_IOplockStorage        00484144     uuid:objidl_i.obj
 0002:00008154       _IID_IDirectWriterLock     00484154     uuid:objidl_i.obj
 0002:00008164       _IID_IUrlMon               00484164     uuid:objidl_i.obj
 0002:00008174       _IID_IForegroundTransfer   00484174     uuid:objidl_i.obj
 0002:00008184       _IID_IThumbnailExtractor   00484184     uuid:objidl_i.obj
 0002:00008194       _IID_IDummyHICONIncluder   00484194     uuid:objidl_i.obj
 0002:000081a4       _IID_IProcessLock          004841a4     uuid:objidl_i.obj
 0002:000081b4       _IID_ISurrogateService     004841b4     uuid:objidl_i.obj
 0002:000081c4       _IID_IInitializeSpy        004841c4     uuid:objidl_i.obj
 0002:000081d4       _IID_IApartmentShutdown    004841d4     uuid:objidl_i.obj
 0002:000081e4       _IID_IOleAdviseHolder      004841e4     uuid:oleidl_i.obj
 0002:000081f4       _IID_IOleCache             004841f4     uuid:oleidl_i.obj
 0002:00008204       _IID_IOleCache2            00484204     uuid:oleidl_i.obj
 0002:00008214       _IID_IOleCacheControl      00484214     uuid:oleidl_i.obj
 0002:00008224       _IID_IParseDisplayName     00484224     uuid:oleidl_i.obj
 0002:00008234       _IID_IOleContainer         00484234     uuid:oleidl_i.obj
 0002:00008244       _IID_IOleClientSite        00484244     uuid:oleidl_i.obj
 0002:00008254       _IID_IOleObject            00484254     uuid:oleidl_i.obj
 0002:00008264       _IID_IOleWindow            00484264     uuid:oleidl_i.obj
 0002:00008274       _IID_IOleLink              00484274     uuid:oleidl_i.obj
 0002:00008284       _IID_IOleItemContainer     00484284     uuid:oleidl_i.obj
 0002:00008294       _IID_IOleInPlaceUIWindow   00484294     uuid:oleidl_i.obj
 0002:000082a4       _IID_IOleInPlaceActiveObject 004842a4     uuid:oleidl_i.obj
 0002:000082b4       _IID_IOleInPlaceFrame      004842b4     uuid:oleidl_i.obj
 0002:000082c4       _IID_IOleInPlaceObject     004842c4     uuid:oleidl_i.obj
 0002:000082d4       _IID_IOleInPlaceSite       004842d4     uuid:oleidl_i.obj
 0002:000082e4       _IID_IContinue             004842e4     uuid:oleidl_i.obj
 0002:000082f4       _IID_IViewObject           004842f4     uuid:oleidl_i.obj
 0002:00008304       _IID_IViewObject2          00484304     uuid:oleidl_i.obj
 0002:00008314       _IID_IDropSource           00484314     uuid:oleidl_i.obj
 0002:00008324       _IID_IDropTarget           00484324     uuid:oleidl_i.obj
 0002:00008334       _IID_IDropSourceNotify     00484334     uuid:oleidl_i.obj
 0002:00008344       _IID_IEnterpriseDropTarget 00484344     uuid:oleidl_i.obj
 0002:00008354       _IID_IEnumOLEVERB          00484354     uuid:oleidl_i.obj
 0002:00008368       ??_7type_info@@6B@         00484368     MSVCRT:std_type_info_static.obj
 0002:00008378       ??_C@_1EC@JIJBPKFM@?$AAa?$AAp?$AAi?$AA?9?$AAm?$AAs?$AA?9?$AAw?$AAi?$AAn?$AA?9?$AAc?$AAo?$AAr?$AAe@ 00484378     MSVCRT:thread_safe_statics.obj
 0002:000083bc       ??_C@_1BK@MGMFAEKH@?$AAk?$AAe?$AAr?$AAn?$AAe?$AAl?$AA3?$AA2?$AA?4?$AAd?$AAl?$AAl@ 004843bc     MSVCRT:thread_safe_statics.obj
 0002:000083d8       ??_C@_0BJ@JEBJOJFJ@SleepConditionVariableCS@ 004843d8     MSVCRT:thread_safe_statics.obj
 0002:000083f4       ??_C@_0BJ@PGPPEPCC@WakeAllConditionVariable@ 004843f4     MSVCRT:thread_safe_statics.obj
 0002:0000843c       ??_C@_0P@GHFPNOJB@bad?5allocation@ 0048443c     MSVCRT:throw_bad_alloc.obj
 0002:000084a0       __load_config_used         004844a0     MSVCRT:loadcfg.obj
 0002:00008558       __tls_used                 00484558     MSVCRT:tlssup.obj
 0002:00008570       ??_R4exception@std@@6B@    00484570     RayTracer.obj
 0002:00008584       ??_R3exception@std@@8      00484584     RayTracer.obj
 0002:00008594       ??_R2exception@std@@8      00484594     RayTracer.obj
 0002:0000859c       ??_R1A@?0A@EA@exception@std@@8 0048459c     RayTracer.obj
 0002:000085b8       ??_R4bad_alloc@std@@6B@    004845b8     RayTracer.obj
 0002:000085cc       ??_R3bad_alloc@std@@8      004845cc     RayTracer.obj
 0002:000085dc       ??_R2bad_alloc@std@@8      004845dc     RayTracer.obj
 0002:000085e8       ??_R1A@?0A@EA@bad_alloc@std@@8 004845e8     RayTracer.obj
 0002:00008604       ??_R4bad_array_new_length@std@@6B@ 00484604     RayTracer.obj
 0002:00008618       ??_R3bad_array_new_length@std@@8 00484618     RayTracer.obj
 0002:00008628       ??_R2bad_array_new_length@std@@8 00484628     RayTracer.obj
 0002:00008638       ??_R1A@?0A@EA@bad_array_new_length@std@@8 00484638     RayTracer.obj
 0002:00008654       ??_R4Fl_Gl_Window@@6B@     00484654     TraceGLWindow.obj
 0002:00008668       ??_R3Fl_Gl_Window@@8       00484668     TraceGLWindow.obj
 0002:00008678       ??_R2Fl_Gl_Window@@8       00484678     TraceGLWindow.obj
 0002:0000868c       ??_R1A@?0A@EA@Fl_Gl_Window@@8 0048468c     TraceGLWindow.obj
 0002:000086a8       ??_R1A@?0A@EA@Fl_Window@@8 004846a8     TraceGLWindow.obj
 0002:000086c4       ??_R3Fl_Window@@8          004846c4     TraceGLWindow.obj
 0002:000086d4       ??_R2Fl_Window@@8          004846d4     TraceGLWindow.obj
 0002:000086e4       ??_R1A@?0A@EA@Fl_Group@@8  004846e4     TraceGLWindow.obj
 0002:00008700       ??_R3Fl_Group@@8           00484700     TraceGLWindow.obj
 0002:00008710       ??_R2Fl_Group@@8           00484710     TraceGLWindow.obj
 0002:0000871c       ??_R1A@?0A@EA@Fl_Widget@@8 0048471c     TraceGLWindow.obj
 0002:00008738       ??_R3Fl_Widget@@8          00484738     TraceGLWindow.obj
 0002:00008748       ??_R2Fl_Widget@@8          00484748     TraceGLWindow.obj
 0002:00008750       ??_R4TraceGLWindow@@6B@    00484750     TraceGLWindow.obj
 0002:00008764       ??_R3TraceGLWindow@@8      00484764     TraceGLWindow.obj
 0002:00008774       ??_R2TraceGLWindow@@8      00484774     TraceGLWindow.obj
 0002:0000878c       ??_R1A@?0A@EA@TraceGLWindow@@8 0048478c     TraceGLWindow.obj
 0002:000087a8       ??_R4Obj@@6B@              004847a8     parse.obj
 0002:000087bc       ??_R3Obj@@8                004847bc     parse.obj
 0002:000087cc       ??_R2Obj@@8                004847cc     parse.obj
 0002:000087d4       ??_R1A@?0A@EA@Obj@@8       004847d4     parse.obj
 0002:000087f0       ??_R4ScalarObj@@6B@        004847f0     parse.obj
 0002:00008804       ??_R3ScalarObj@@8          00484804     parse.obj
 0002:00008814       ??_R2ScalarObj@@8          00484814     parse.obj
 0002:00008820       ??_R1A@?0A@EA@ScalarObj@@8 00484820     parse.obj
 0002:0000883c       ??_R4BooleanObj@@6B@       0048483c     parse.obj
 0002:00008850       ??_R3BooleanObj@@8         00484850     parse.obj
 0002:00008860       ??_R2BooleanObj@@8         00484860     parse.obj
 0002:0000886c       ??_R1A@?0A@EA@BooleanObj@@8 0048486c     parse.obj
 0002:00008888       ??_R4IdObj@@6B@            00484888     parse.obj
 0002:0000889c       ??_R3IdObj@@8              0048489c     parse.obj
 0002:000088ac       ??_R2IdObj@@8              004848ac     parse.obj
 0002:000088b8       ??_R1A@?0A@EA@IdObj@@8     004848b8     parse.obj
 0002:000088d4       ??_R4StringObj@@6B@        004848d4     parse.obj
 0002:000088e8       ??_R3StringObj@@8          004848e8     parse.obj
 0002:000088f8       ??_R2StringObj@@8          004848f8     parse.obj
 0002:00008904       ??_R1A@?0A@EA@StringObj@@8 00484904     parse.obj
 0002:00008920       ??_R4TupleObj@@6B@         00484920     parse.obj
 0002:00008934       ??_R3TupleObj@@8           00484934     parse.obj
 0002:00008944       ??_R2TupleObj@@8           00484944     parse.obj
 0002:00008950       ??_R1A@?0A@EA@TupleObj@@8  00484950     parse.obj
 0002:0000896c       ??_R4DictObj@@6B@          0048496c     parse.obj
 0002:00008980       ??_R3DictObj@@8            00484980     parse.obj
 0002:00008990       ??_R2DictObj@@8            00484990     parse.obj
 0002:0000899c       ??_R1A@?0A@EA@DictObj@@8   0048499c     parse.obj
 0002:000089b8       ??_R4NamedObj@@6B@         004849b8     parse.obj
 0002:000089cc       ??_R3NamedObj@@8           004849cc     parse.obj
 0002:000089dc       ??_R2NamedObj@@8           004849dc     parse.obj
 0002:000089e8       ??_R1A@?0A@EA@NamedObj@@8  004849e8     parse.obj
 0002:00008a04       ??_R4?$basic_filebuf@DU?$char_traits@D@std@@@std@@6B@ 00484a04     read.obj
 0002:00008a18       ??_R3?$basic_filebuf@DU?$char_traits@D@std@@@std@@8 00484a18     read.obj
 0002:00008a28       ??_R2?$basic_filebuf@DU?$char_traits@D@std@@@std@@8 00484a28     read.obj
 0002:00008a34       ??_R1A@?0A@EA@?$basic_filebuf@DU?$char_traits@D@std@@@std@@8 00484a34     read.obj
 0002:00008a50       ??_R1A@?0A@EA@?$basic_streambuf@DU?$char_traits@D@std@@@std@@8 00484a50     read.obj
 0002:00008a6c       ??_R3?$basic_streambuf@DU?$char_traits@D@std@@@std@@8 00484a6c     read.obj
 0002:00008a7c       ??_R2?$basic_streambuf@DU?$char_traits@D@std@@@std@@8 00484a7c     read.obj
 0002:00008a84       ??_R4?$basic_ifstream@DU?$char_traits@D@std@@@std@@6B@ 00484a84     read.obj
 0002:00008a98       ??_R3?$basic_ifstream@DU?$char_traits@D@std@@@std@@8 00484a98     read.obj
 0002:00008aa8       ??_R2?$basic_ifstream@DU?$char_traits@D@std@@@std@@8 00484aa8     read.obj
 0002:00008ac0       ??_R1A@?0A@EA@?$basic_ifstream@DU?$char_traits@D@std@@@std@@8 00484ac0     read.obj
 0002:00008adc       ??_R1A@?0A@EA@?$basic_istream@DU?$char_traits@D@std@@@std@@8 00484adc     read.obj
 0002:00008af8       ??_R3?$basic_istream@DU?$char_traits@D@std@@@std@@8 00484af8     read.obj
 0002:00008b08       ??_R2?$basic_istream@DU?$char_traits@D@std@@@std@@8 00484b08     read.obj
 0002:00008b1c       ??_R1A@A@3FA@?$basic_ios@DU?$char_traits@D@std@@@std@@8 00484b1c     read.obj
 0002:00008b38       ??_R3?$basic_ios@DU?$char_traits@D@std@@@std@@8 00484b38     read.obj
 0002:00008b48       ??_R2?$basic_ios@DU?$char_traits@D@std@@@std@@8 00484b48     read.obj
 0002:00008b58       ??_R1A@?0A@EA@?$basic_ios@DU?$char_traits@D@std@@@std@@8 00484b58     read.obj
 0002:00008b74       ??_R1A@?0A@EA@ios_base@std@@8 00484b74     read.obj
 0002:00008b90       ??_R3ios_base@std@@8       00484b90     read.obj
 0002:00008ba0       ??_R2ios_base@std@@8       00484ba0     read.obj
 0002:00008bac       ??_R17?0A@EA@?$_Iosb@H@std@@8 00484bac     read.obj
 0002:00008bc8       ??_R3?$_Iosb@H@std@@8      00484bc8     read.obj
 0002:00008bd8       ??_R2?$_Iosb@H@std@@8      00484bd8     read.obj
 0002:00008be0       ??_R1A@?0A@EA@?$_Iosb@H@std@@8 00484be0     read.obj
 0002:00008bfc       ??_R1A@A@3EA@ios_base@std@@8 00484bfc     read.obj
 0002:00008c18       ??_R17A@3EA@?$_Iosb@H@std@@8 00484c18     read.obj
 0002:00008c34       ??_R4bad_cast@std@@6B@     00484c34     read.obj
 0002:00008c48       ??_R3bad_cast@std@@8       00484c48     read.obj
 0002:00008c58       ??_R2bad_cast@std@@8       00484c58     read.obj
 0002:00008c64       ??_R1A@?0A@EA@bad_cast@std@@8 00484c64     read.obj
 0002:00008c80       ??_R4strstreambuf@std@@6B@ 00484c80     read.obj
 0002:00008c94       ??_R3strstreambuf@std@@8   00484c94     read.obj
 0002:00008ca4       ??_R2strstreambuf@std@@8   00484ca4     read.obj
 0002:00008cb0       ??_R1A@?0A@EA@strstreambuf@std@@8 00484cb0     read.obj
 0002:00008ccc       ??_R4ostrstream@std@@6B@   00484ccc     read.obj
 0002:00008ce0       ??_R3ostrstream@std@@8     00484ce0     read.obj
 0002:00008cf0       ??_R2ostrstream@std@@8     00484cf0     read.obj
 0002:00008d08       ??_R1A@?0A@EA@ostrstream@std@@8 00484d08     read.obj
 0002:00008d24       ??_R1A@?0A@EA@?$basic_ostream@DU?$char_traits@D@std@@@std@@8 00484d24     read.obj
 0002:00008d40       ??_R3?$basic_ostream@DU?$char_traits@D@std@@@std@@8 00484d40     read.obj
 0002:00008d50       ??_R2?$basic_ostream@DU?$char_traits@D@std@@@std@@8 00484d50     read.obj
 0002:00008d64       ??_R4Scene@@6B@            00484d64     read.obj
 0002:00008d78       ??_R3Scene@@8              00484d78     read.obj
 0002:00008d88       ??_R2Scene@@8              00484d88     read.obj
 0002:00008d90       ??_R1A@?0A@EA@Scene@@8     00484d90     read.obj
 0002:00008dac       ??_R4Material@@6B@         00484dac     read.obj
 0002:00008dc0       ??_R3Material@@8           00484dc0     read.obj
 0002:00008dd0       ??_R2Material@@8           00484dd0     read.obj
 0002:00008dd8       ??_R1A@?0A@EA@Material@@8  00484dd8     read.obj
 0002:00008df4       ??_R4SceneObject@@6B@      00484df4     read.obj
 0002:00008e08       ??_R3SceneObject@@8        00484e08     read.obj
 0002:00008e18       ??_R2SceneObject@@8        00484e18     read.obj
 0002:00008e28       ??_R1A@?0A@EA@SceneObject@@8 00484e28     read.obj
 0002:00008e44       ??_R1A@?0A@EA@Geometry@@8  00484e44     read.obj
 0002:00008e60       ??_R3Geometry@@8           00484e60     read.obj
 0002:00008e70       ??_R2Geometry@@8           00484e70     read.obj
 0002:00008e7c       ??_R1A@?0A@EA@SceneElement@@8 00484e7c     read.obj
 0002:00008e98       ??_R3SceneElement@@8       00484e98     read.obj
 0002:00008ea8       ??_R2SceneElement@@8       00484ea8     read.obj
 0002:00008eb0       ??_R4Light@@6B@            00484eb0     read.obj
 0002:00008ec4       ??_R3Light@@8              00484ec4     read.obj
 0002:00008ed4       ??_R2Light@@8              00484ed4     read.obj
 0002:00008ee0       ??_R1A@?0A@EA@Light@@8     00484ee0     read.obj
 0002:00008efc       ??_R4SceneElement@@6B@     00484efc     read.obj
 0002:00008f10       ??_R4Geometry@@6B@         00484f10     read.obj
 0002:00008f24       ??_R4MaterialSceneObject@@6B@ 00484f24     read.obj
 0002:00008f38       ??_R3MaterialSceneObject@@8 00484f38     read.obj
 0002:00008f48       ??_R2MaterialSceneObject@@8 00484f48     read.obj
 0002:00008f5c       ??_R1A@?0A@EA@MaterialSceneObject@@8 00484f5c     read.obj
 0002:00008f78       ??_R4Trimesh@@6B@          00484f78     read.obj
 0002:00008f8c       ??_R3Trimesh@@8            00484f8c     read.obj
 0002:00008f9c       ??_R2Trimesh@@8            00484f9c     read.obj
 0002:00008fb4       ??_R1A@?0A@EA@Trimesh@@8   00484fb4     read.obj
 0002:00008fd0       ??_R4Box@@6B@              00484fd0     read.obj
 0002:00008fe4       ??_R3Box@@8                00484fe4     read.obj
 0002:00008ff4       ??_R2Box@@8                00484ff4     read.obj
 0002:0000900c       ??_R1A@?0A@EA@Box@@8       0048500c     read.obj
 0002:00009028       ??_R4Cone@@6B@             00485028     read.obj
 0002:0000903c       ??_R3Cone@@8               0048503c     read.obj
 0002:0000904c       ??_R2Cone@@8               0048504c     read.obj
 0002:00009064       ??_R1A@?0A@EA@Cone@@8      00485064     read.obj
 0002:00009080       ??_R4Cylinder@@6B@         00485080     read.obj
 0002:00009094       ??_R3Cylinder@@8           00485094     read.obj
 0002:000090a4       ??_R2Cylinder@@8           004850a4     read.obj
 0002:000090bc       ??_R1A@?0A@EA@Cylinder@@8  004850bc     read.obj
 0002:000090d8       ??_R4Sphere@@6B@           004850d8     read.obj
 0002:000090ec       ??_R3Sphere@@8             004850ec     read.obj
 0002:000090fc       ??_R2Sphere@@8             004850fc     read.obj
 0002:00009114       ??_R1A@?0A@EA@Sphere@@8    00485114     read.obj
 0002:00009130       ??_R4Square@@6B@           00485130     read.obj
 0002:00009144       ??_R3Square@@8             00485144     read.obj
 0002:00009154       ??_R2Square@@8             00485154     read.obj
 0002:0000916c       ??_R1A@?0A@EA@Square@@8    0048516c     read.obj
 0002:00009188       ??_R4DirectionalLight@@6B@ 00485188     read.obj
 0002:0000919c       ??_R3DirectionalLight@@8   0048519c     read.obj
 0002:000091ac       ??_R2DirectionalLight@@8   004851ac     read.obj
 0002:000091bc       ??_R1A@?0A@EA@DirectionalLight@@8 004851bc     read.obj
 0002:000091d8       ??_R4PointLight@@6B@       004851d8     read.obj
 0002:000091ec       ??_R3PointLight@@8         004851ec     read.obj
 0002:000091fc       ??_R2PointLight@@8         004851fc     read.obj
 0002:0000920c       ??_R1A@?0A@EA@PointLight@@8 0048520c     read.obj
 0002:00009228       ??_R4TrimeshFace@@6B@      00485228     trimesh.obj
 0002:0000923c       ??_R3TrimeshFace@@8        0048523c     trimesh.obj
 0002:0000924c       ??_R2TrimeshFace@@8        0048524c     trimesh.obj
 0002:00009264       ??_R1A@?0A@EA@TrimeshFace@@8 00485264     trimesh.obj
 0002:00009280       ??_R4Fl_Image@@6B@         00485280     fltk:Fl.obj
 0002:00009294       ??_R3Fl_Image@@8           00485294     fltk:Fl.obj
 0002:000092a4       ??_R2Fl_Image@@8           004852a4     fltk:Fl.obj
 0002:000092ac       ??_R1A@?0A@EA@Fl_Image@@8  004852ac     fltk:Fl.obj
 0002:000092c8       ??_R4Fl_RGB_Image@@6B@     004852c8     fltk:Fl.obj
 0002:000092dc       ??_R3Fl_RGB_Image@@8       004852dc     fltk:Fl.obj
 0002:000092ec       ??_R2Fl_RGB_Image@@8       004852ec     fltk:Fl.obj
 0002:000092f8       ??_R1A@?0A@EA@Fl_RGB_Image@@8 004852f8     fltk:Fl.obj
 0002:00009314       ??_R4Fl_GDI_Graphics_Driver@@6B@ 00485314     fltk:Fl.obj
 0002:00009328       ??_R3Fl_GDI_Graphics_Driver@@8 00485328     fltk:Fl.obj
 0002:00009338       ??_R2Fl_GDI_Graphics_Driver@@8 00485338     fltk:Fl.obj
 0002:00009348       ??_R1A@?0A@EA@Fl_GDI_Graphics_Driver@@8 00485348     fltk:Fl.obj
 0002:00009364       ??_R1A@?0A@EA@Fl_Graphics_Driver@@8 00485364     fltk:Fl.obj
 0002:00009380       ??_R3Fl_Graphics_Driver@@8 00485380     fltk:Fl.obj
 0002:00009390       ??_R2Fl_Graphics_Driver@@8 00485390     fltk:Fl.obj
 0002:0000939c       ??_R1A@?0A@EA@Fl_Device@@8 0048539c     fltk:Fl.obj
 0002:000093b8       ??_R3Fl_Device@@8          004853b8     fltk:Fl.obj
 0002:000093c8       ??_R2Fl_Device@@8          004853c8     fltk:Fl.obj
 0002:000093d0       ??_R4Fl_Graphics_Driver@@6B@ 004853d0     fltk:Fl.obj
 0002:000093e4       ??_R4Fl_Device@@6B@        004853e4     fltk:Fl.obj
 0002:000093f8       ??_R4Fl_Surface_Device@@6B@ 004853f8     fltk:Fl.obj
 0002:0000940c       ??_R3Fl_Surface_Device@@8  0048540c     fltk:Fl.obj
 0002:0000941c       ??_R2Fl_Surface_Device@@8  0048541c     fltk:Fl.obj
 0002:00009428       ??_R1A@?0A@EA@Fl_Surface_Device@@8 00485428     fltk:Fl.obj
 0002:00009444       ??_R4Fl_Window@@6B@        00485444     fltk:Fl_Window.obj
 0002:00009458       ??_R4Fl_Widget@@6B@        00485458     fltk:Fl_Widget.obj
 0002:0000946c       ??_R4Fl_Group@@6B@         0048546c     fltk:Fl_Group.obj
 0002:00009480       ??_R4Fl_Input_Choice@@6B@  00485480     fltk:Fl_Group.obj
 0002:00009494       ??_R3Fl_Input_Choice@@8    00485494     fltk:Fl_Group.obj
 0002:000094a4       ??_R2Fl_Input_Choice@@8    004854a4     fltk:Fl_Group.obj
 0002:000094b4       ??_R1A@?0A@EA@Fl_Input_Choice@@8 004854b4     fltk:Fl_Group.obj
 0002:000094d0       ??_R4InputMenuButton@Fl_Input_Choice@@6B@ 004854d0     fltk:Fl_Group.obj
 0002:000094e4       ??_R3InputMenuButton@Fl_Input_Choice@@8 004854e4     fltk:Fl_Group.obj
 0002:000094f4       ??_R2InputMenuButton@Fl_Input_Choice@@8 004854f4     fltk:Fl_Group.obj
 0002:00009508       ??_R1A@?0A@EA@InputMenuButton@Fl_Input_Choice@@8 00485508     fltk:Fl_Group.obj
 0002:00009524       ??_R1A@?0A@EA@Fl_Menu_Button@@8 00485524     fltk:Fl_Group.obj
 0002:00009540       ??_R3Fl_Menu_Button@@8     00485540     fltk:Fl_Group.obj
 0002:00009550       ??_R2Fl_Menu_Button@@8     00485550     fltk:Fl_Group.obj
 0002:00009560       ??_R1A@?0A@EA@Fl_Menu_@@8  00485560     fltk:Fl_Group.obj
 0002:0000957c       ??_R3Fl_Menu_@@8           0048557c     fltk:Fl_Group.obj
 0002:0000958c       ??_R2Fl_Menu_@@8           0048558c     fltk:Fl_Group.obj
 0002:00009598       ??_R4Fl_Spinner@@6B@       00485598     fltk:Fl_Group.obj
 0002:000095ac       ??_R3Fl_Spinner@@8         004855ac     fltk:Fl_Group.obj
 0002:000095bc       ??_R2Fl_Spinner@@8         004855bc     fltk:Fl_Group.obj
 0002:000095cc       ??_R1A@?0A@EA@Fl_Spinner@@8 004855cc     fltk:Fl_Group.obj
 0002:000095e8       ??_R4Fl_Menu_@@6B@         004855e8     fltk:Fl_Menu_.obj
 0002:000095fc       ??_R4Fl_Menu_Bar@@6B@      004855fc     fltk:Fl_Menu_Bar.obj
 0002:00009610       ??_R3Fl_Menu_Bar@@8        00485610     fltk:Fl_Menu_Bar.obj
 0002:00009620       ??_R2Fl_Menu_Bar@@8        00485620     fltk:Fl_Menu_Bar.obj
 0002:00009630       ??_R1A@?0A@EA@Fl_Menu_Bar@@8 00485630     fltk:Fl_Menu_Bar.obj
 0002:0000964c       ??_R4Fl_Valuator@@6B@      0048564c     fltk:Fl_Valuator.obj
 0002:00009660       ??_R3Fl_Valuator@@8        00485660     fltk:Fl_Valuator.obj
 0002:00009670       ??_R2Fl_Valuator@@8        00485670     fltk:Fl_Valuator.obj
 0002:0000967c       ??_R1A@?0A@EA@Fl_Valuator@@8 0048567c     fltk:Fl_Valuator.obj
 0002:00009698       ??_R4Fl_Value_Slider@@6B@  00485698     fltk:Fl_Value_Slider.obj
 0002:000096ac       ??_R3Fl_Value_Slider@@8    004856ac     fltk:Fl_Value_Slider.obj
 0002:000096bc       ??_R2Fl_Value_Slider@@8    004856bc     fltk:Fl_Value_Slider.obj
 0002:000096d0       ??_R1A@?0A@EA@Fl_Value_Slider@@8 004856d0     fltk:Fl_Value_Slider.obj
 0002:000096ec       ??_R1A@?0A@EA@Fl_Slider@@8 004856ec     fltk:Fl_Value_Slider.obj
 0002:00009708       ??_R3Fl_Slider@@8          00485708     fltk:Fl_Value_Slider.obj
 0002:00009718       ??_R2Fl_Slider@@8          00485718     fltk:Fl_Value_Slider.obj
 0002:00009728       ??_R4Fl_Hor_Value_Slider@@6B@ 00485728     fltk:Fl_Value_Slider.obj
 0002:0000973c       ??_R3Fl_Hor_Value_Slider@@8 0048573c     fltk:Fl_Value_Slider.obj
 0002:0000974c       ??_R2Fl_Hor_Value_Slider@@8 0048574c     fltk:Fl_Value_Slider.obj
 0002:00009764       ??_R1A@?0A@EA@Fl_Hor_Value_Slider@@8 00485764     fltk:Fl_Value_Slider.obj
 0002:00009780       ??_R4Fl_Button@@6B@        00485780     fltk:Fl_Button.obj
 0002:00009794       ??_R3Fl_Button@@8          00485794     fltk:Fl_Button.obj
 0002:000097a4       ??_R2Fl_Button@@8          004857a4     fltk:Fl_Button.obj
 0002:000097b0       ??_R1A@?0A@EA@Fl_Button@@8 004857b0     fltk:Fl_Button.obj
 0002:000097cc       ??_R4Fl_Radio_Button@@6B@  004857cc     fltk:Fl_Button.obj
 0002:000097e0       ??_R3Fl_Radio_Button@@8    004857e0     fltk:Fl_Button.obj
 0002:000097f0       ??_R2Fl_Radio_Button@@8    004857f0     fltk:Fl_Button.obj
 0002:00009800       ??_R1A@?0A@EA@Fl_Radio_Button@@8 00485800     fltk:Fl_Button.obj
 0002:0000981c       ??_R4Fl_Toggle_Button@@6B@ 0048581c     fltk:Fl_Button.obj
 0002:00009830       ??_R3Fl_Toggle_Button@@8   00485830     fltk:Fl_Button.obj
 0002:00009840       ??_R2Fl_Toggle_Button@@8   00485840     fltk:Fl_Button.obj
 0002:00009850       ??_R1A@?0A@EA@Fl_Toggle_Button@@8 00485850     fltk:Fl_Button.obj
 0002:0000986c       ??_R4Fl_Light_Button@@6B@  0048586c     fltk:Fl_Light_Button.obj
 0002:00009880       ??_R3Fl_Light_Button@@8    00485880     fltk:Fl_Light_Button.obj
 0002:00009890       ??_R2Fl_Light_Button@@8    00485890     fltk:Fl_Light_Button.obj
 0002:000098a0       ??_R1A@?0A@EA@Fl_Light_Button@@8 004858a0     fltk:Fl_Light_Button.obj
 0002:000098bc       ??_R4Fl_Radio_Light_Button@@6B@ 004858bc     fltk:Fl_Light_Button.obj
 0002:000098d0       ??_R3Fl_Radio_Light_Button@@8 004858d0     fltk:Fl_Light_Button.obj
 0002:000098e0       ??_R2Fl_Radio_Light_Button@@8 004858e0     fltk:Fl_Light_Button.obj
 0002:000098f4       ??_R1A@?0A@EA@Fl_Radio_Light_Button@@8 004858f4     fltk:Fl_Light_Button.obj
 0002:00009910       ??_R4Fl_Choice@@6B@        00485910     fltk:Fl_Choice.obj
 0002:00009924       ??_R3Fl_Choice@@8          00485924     fltk:Fl_Choice.obj
 0002:00009934       ??_R2Fl_Choice@@8          00485934     fltk:Fl_Choice.obj
 0002:00009944       ??_R1A@?0A@EA@Fl_Choice@@8 00485944     fltk:Fl_Choice.obj
 0002:00009960       ??_R4Fl_TooltipBox@@6B@    00485960     fltk:Fl_Tooltip.obj
 0002:00009974       ??_R3Fl_TooltipBox@@8      00485974     fltk:Fl_Tooltip.obj
 0002:00009984       ??_R2Fl_TooltipBox@@8      00485984     fltk:Fl_Tooltip.obj
 0002:000099a0       ??_R1A@?0A@EA@Fl_TooltipBox@@8 004859a0     fltk:Fl_Tooltip.obj
 0002:000099bc       ??_R1A@?0A@EA@Fl_Menu_Window@@8 004859bc     fltk:Fl_Tooltip.obj
 0002:000099d8       ??_R3Fl_Menu_Window@@8     004859d8     fltk:Fl_Tooltip.obj
 0002:000099e8       ??_R2Fl_Menu_Window@@8     004859e8     fltk:Fl_Tooltip.obj
 0002:00009a00       ??_R1A@?0A@EA@Fl_Single_Window@@8 00485a00     fltk:Fl_Tooltip.obj
 0002:00009a1c       ??_R3Fl_Single_Window@@8   00485a1c     fltk:Fl_Tooltip.obj
 0002:00009a2c       ??_R2Fl_Single_Window@@8   00485a2c     fltk:Fl_Tooltip.obj
 0002:00009a40       ??_R4Fl_Double_Window@@6B@ 00485a40     fltk:Fl_Double_Window.obj
 0002:00009a54       ??_R3Fl_Double_Window@@8   00485a54     fltk:Fl_Double_Window.obj
 0002:00009a64       ??_R2Fl_Double_Window@@8   00485a64     fltk:Fl_Double_Window.obj
 0002:00009a78       ??_R1A@?0A@EA@Fl_Double_Window@@8 00485a78     fltk:Fl_Double_Window.obj
 0002:00009a94       ??_R4Fl_Overlay_Window@@6B@ 00485a94     fltk:Fl_Double_Window.obj
 0002:00009aa8       ??_R3Fl_Overlay_Window@@8  00485aa8     fltk:Fl_Double_Window.obj
 0002:00009ab8       ??_R2Fl_Overlay_Window@@8  00485ab8     fltk:Fl_Double_Window.obj
 0002:00009ad0       ??_R1A@?0A@EA@Fl_Overlay_Window@@8 00485ad0     fltk:Fl_Double_Window.obj
 0002:00009aec       ??_R4Fl_Preferences@@6B@   00485aec     fltk:Fl_Preferences.obj
 0002:00009b00       ??_R3Fl_Preferences@@8     00485b00     fltk:Fl_Preferences.obj
 0002:00009b10       ??_R2Fl_Preferences@@8     00485b10     fltk:Fl_Preferences.obj
 0002:00009b18       ??_R1A@?0A@EA@Fl_Preferences@@8 00485b18     fltk:Fl_Preferences.obj
 0002:00009b34       ??_R4Fl_Plugin@@6B@        00485b34     fltk:Fl_Preferences.obj
 0002:00009b48       ??_R3Fl_Plugin@@8          00485b48     fltk:Fl_Preferences.obj
 0002:00009b58       ??_R2Fl_Plugin@@8          00485b58     fltk:Fl_Preferences.obj
 0002:00009b60       ??_R1A@?0A@EA@Fl_Plugin@@8 00485b60     fltk:Fl_Preferences.obj
 0002:00009b7c       ??_R4Fl_Plugin_Manager@@6B@ 00485b7c     fltk:Fl_Preferences.obj
 0002:00009b90       ??_R3Fl_Plugin_Manager@@8  00485b90     fltk:Fl_Preferences.obj
 0002:00009ba0       ??_R2Fl_Plugin_Manager@@8  00485ba0     fltk:Fl_Preferences.obj
 0002:00009bac       ??_R1A@?0A@EA@Fl_Plugin_Manager@@8 00485bac     fltk:Fl_Preferences.obj
 0002:00009bc8       ??_R4Fl_Display_Device@@6B@ 00485bc8     fltk:Fl_Device.obj
 0002:00009bdc       ??_R3Fl_Display_Device@@8  00485bdc     fltk:Fl_Device.obj
 0002:00009bec       ??_R2Fl_Display_Device@@8  00485bec     fltk:Fl_Device.obj
 0002:00009bfc       ??_R1A@?0A@EA@Fl_Display_Device@@8 00485bfc     fltk:Fl_Device.obj
 0002:00009c18       ??_R4Fl_Pixmap@@6B@        00485c18     fltk:Fl_Pixmap.obj
 0002:00009c2c       ??_R3Fl_Pixmap@@8          00485c2c     fltk:Fl_Pixmap.obj
 0002:00009c3c       ??_R2Fl_Pixmap@@8          00485c3c     fltk:Fl_Pixmap.obj
 0002:00009c48       ??_R1A@?0A@EA@Fl_Pixmap@@8 00485c48     fltk:Fl_Pixmap.obj
 0002:00009c64       ??_R4Fl_Bitmap@@6B@        00485c64     fltk:Fl_Bitmap.obj
 0002:00009c78       ??_R3Fl_Bitmap@@8          00485c78     fltk:Fl_Bitmap.obj
 0002:00009c88       ??_R2Fl_Bitmap@@8          00485c88     fltk:Fl_Bitmap.obj
 0002:00009c94       ??_R1A@?0A@EA@Fl_Bitmap@@8 00485c94     fltk:Fl_Bitmap.obj
 0002:00009cb0       ??_R3IUnknown@@8           00485cb0     fltk:fl_dnd.obj
 0002:00009cc0       ??_R2IUnknown@@8           00485cc0     fltk:fl_dnd.obj
 0002:00009cc8       ??_R1A@?0A@EA@IUnknown@@8  00485cc8     fltk:fl_dnd.obj
 0002:00009ce4       ??_R3IDataObject@@8        00485ce4     fltk:fl_dnd.obj
 0002:00009cf4       ??_R2IDataObject@@8        00485cf4     fltk:fl_dnd.obj
 0002:00009d00       ??_R1A@?0A@EA@IDataObject@@8 00485d00     fltk:fl_dnd.obj
 0002:00009d1c       ??_R3IDropSource@@8        00485d1c     fltk:fl_dnd.obj
 0002:00009d2c       ??_R2IDropSource@@8        00485d2c     fltk:fl_dnd.obj
 0002:00009d38       ??_R1A@?0A@EA@IDropSource@@8 00485d38     fltk:fl_dnd.obj
 0002:00009d54       ??_R3IDropTarget@@8        00485d54     fltk:fl_dnd.obj
 0002:00009d64       ??_R2IDropTarget@@8        00485d64     fltk:fl_dnd.obj
 0002:00009d70       ??_R1A@?0A@EA@IDropTarget@@8 00485d70     fltk:fl_dnd.obj
 0002:00009d8c       ??_R4FLDropTarget@@6B@     00485d8c     fltk:fl_dnd.obj
 0002:00009da0       ??_R3FLDropTarget@@8       00485da0     fltk:fl_dnd.obj
 0002:00009db0       ??_R2FLDropTarget@@8       00485db0     fltk:fl_dnd.obj
 0002:00009dc0       ??_R1A@?0A@EA@FLDropTarget@@8 00485dc0     fltk:fl_dnd.obj
 0002:00009ddc       ??_R4FLDropSource@@6B@     00485ddc     fltk:fl_dnd.obj
 0002:00009df0       ??_R3FLDropSource@@8       00485df0     fltk:fl_dnd.obj
 0002:00009e00       ??_R2FLDropSource@@8       00485e00     fltk:fl_dnd.obj
 0002:00009e10       ??_R1A@?0A@EA@FLDropSource@@8 00485e10     fltk:fl_dnd.obj
 0002:00009e2c       ??_R4FLDataObject@@6B@     00485e2c     fltk:fl_dnd.obj
 0002:00009e40       ??_R3FLDataObject@@8       00485e40     fltk:fl_dnd.obj
 0002:00009e50       ??_R2FLDataObject@@8       00485e50     fltk:fl_dnd.obj
 0002:00009e60       ??_R1A@?0A@EA@FLDataObject@@8 00485e60     fltk:fl_dnd.obj
 0002:00009e7c       ??_R4Fl_Box@@6B@           00485e7c     fltk:Fl_Box.obj
 0002:00009e90       ??_R3Fl_Box@@8             00485e90     fltk:Fl_Box.obj
 0002:00009ea0       ??_R2Fl_Box@@8             00485ea0     fltk:Fl_Box.obj
 0002:00009eac       ??_R1A@?0A@EA@Fl_Box@@8    00485eac     fltk:Fl_Box.obj
 0002:00009ec8       ??_R4Fl_Return_Button@@6B@ 00485ec8     fltk:Fl_Return_Button.obj
 0002:00009edc       ??_R3Fl_Return_Button@@8   00485edc     fltk:Fl_Return_Button.obj
 0002:00009eec       ??_R2Fl_Return_Button@@8   00485eec     fltk:Fl_Return_Button.obj
 0002:00009efc       ??_R1A@?0A@EA@Fl_Return_Button@@8 00485efc     fltk:Fl_Return_Button.obj
 0002:00009f18       ??_R4Fl_Input_@@6B@        00485f18     fltk:Fl_Input_.obj
 0002:00009f2c       ??_R3Fl_Input_@@8          00485f2c     fltk:Fl_Input_.obj
 0002:00009f3c       ??_R2Fl_Input_@@8          00485f3c     fltk:Fl_Input_.obj
 0002:00009f48       ??_R1A@?0A@EA@Fl_Input_@@8 00485f48     fltk:Fl_Input_.obj
 0002:00009f64       ??_R4Fl_Input@@6B@         00485f64     fltk:Fl_Input.obj
 0002:00009f78       ??_R3Fl_Input@@8           00485f78     fltk:Fl_Input.obj
 0002:00009f88       ??_R2Fl_Input@@8           00485f88     fltk:Fl_Input.obj
 0002:00009f98       ??_R1A@?0A@EA@Fl_Input@@8  00485f98     fltk:Fl_Input.obj
 0002:00009fb4       ??_R4Fl_Float_Input@@6B@   00485fb4     fltk:Fl_Input.obj
 0002:00009fc8       ??_R3Fl_Float_Input@@8     00485fc8     fltk:Fl_Input.obj
 0002:00009fd8       ??_R2Fl_Float_Input@@8     00485fd8     fltk:Fl_Input.obj
 0002:00009fec       ??_R1A@?0A@EA@Fl_Float_Input@@8 00485fec     fltk:Fl_Input.obj
 0002:0000a008       ??_R4Fl_Int_Input@@6B@     00486008     fltk:Fl_Input.obj
 0002:0000a01c       ??_R3Fl_Int_Input@@8       0048601c     fltk:Fl_Input.obj
 0002:0000a02c       ??_R2Fl_Int_Input@@8       0048602c     fltk:Fl_Input.obj
 0002:0000a040       ??_R1A@?0A@EA@Fl_Int_Input@@8 00486040     fltk:Fl_Input.obj
 0002:0000a05c       ??_R4Fl_Multiline_Input@@6B@ 0048605c     fltk:Fl_Input.obj
 0002:0000a070       ??_R3Fl_Multiline_Input@@8 00486070     fltk:Fl_Input.obj
 0002:0000a080       ??_R2Fl_Multiline_Input@@8 00486080     fltk:Fl_Input.obj
 0002:0000a094       ??_R1A@?0A@EA@Fl_Multiline_Input@@8 00486094     fltk:Fl_Input.obj
 0002:0000a0b0       ??_R4Fl_Output@@6B@        004860b0     fltk:Fl_Input.obj
 0002:0000a0c4       ??_R3Fl_Output@@8          004860c4     fltk:Fl_Input.obj
 0002:0000a0d4       ??_R2Fl_Output@@8          004860d4     fltk:Fl_Input.obj
 0002:0000a0e8       ??_R1A@?0A@EA@Fl_Output@@8 004860e8     fltk:Fl_Input.obj
 0002:0000a104       ??_R4Fl_Multiline_Output@@6B@ 00486104     fltk:Fl_Input.obj
 0002:0000a118       ??_R3Fl_Multiline_Output@@8 00486118     fltk:Fl_Input.obj
 0002:0000a128       ??_R2Fl_Multiline_Output@@8 00486128     fltk:Fl_Input.obj
 0002:0000a140       ??_R1A@?0A@EA@Fl_Multiline_Output@@8 00486140     fltk:Fl_Input.obj
 0002:0000a15c       ??_R4Fl_Secret_Input@@6B@  0048615c     fltk:Fl_Input.obj
 0002:0000a170       ??_R3Fl_Secret_Input@@8    00486170     fltk:Fl_Input.obj
 0002:0000a180       ??_R2Fl_Secret_Input@@8    00486180     fltk:Fl_Input.obj
 0002:0000a194       ??_R1A@?0A@EA@Fl_Secret_Input@@8 00486194     fltk:Fl_Input.obj
 0002:0000a1b0       ??_R4Fl_Menu_Button@@6B@   004861b0     fltk:Fl_Menu_Button.obj
 0002:0000a1c4       ??_R4Fl_Repeat_Button@@6B@ 004861c4     fltk:Fl_Repeat_Button.obj
 0002:0000a1d8       ??_R3Fl_Repeat_Button@@8   004861d8     fltk:Fl_Repeat_Button.obj
 0002:0000a1e8       ??_R2Fl_Repeat_Button@@8   004861e8     fltk:Fl_Repeat_Button.obj
 0002:0000a1f8       ??_R1A@?0A@EA@Fl_Repeat_Button@@8 004861f8     fltk:Fl_Repeat_Button.obj
 0002:0000a214       ??_R4menutitle@@6B@        00486214     fltk:Fl_Menu.obj
 0002:0000a228       ??_R3menutitle@@8          00486228     fltk:Fl_Menu.obj
 0002:0000a238       ??_R2menutitle@@8          00486238     fltk:Fl_Menu.obj
 0002:0000a254       ??_R1A@?0A@EA@menutitle@@8 00486254     fltk:Fl_Menu.obj
 0002:0000a270       ??_R4menuwindow@@6B@       00486270     fltk:Fl_Menu.obj
 0002:0000a284       ??_R3menuwindow@@8         00486284     fltk:Fl_Menu.obj
 0002:0000a294       ??_R2menuwindow@@8         00486294     fltk:Fl_Menu.obj
 0002:0000a2b0       ??_R1A@?0A@EA@menuwindow@@8 004862b0     fltk:Fl_Menu.obj
 0002:0000a2cc       ??_R4Fl_Slider@@6B@        004862cc     fltk:Fl_Slider.obj
 0002:0000a2e0       ??_R4Fl_Fill_Slider@@6B@   004862e0     fltk:Fl_Slider.obj
 0002:0000a2f4       ??_R3Fl_Fill_Slider@@8     004862f4     fltk:Fl_Slider.obj
 0002:0000a304       ??_R2Fl_Fill_Slider@@8     00486304     fltk:Fl_Slider.obj
 0002:0000a318       ??_R1A@?0A@EA@Fl_Fill_Slider@@8 00486318     fltk:Fl_Slider.obj
 0002:0000a334       ??_R4Fl_Hor_Slider@@6B@    00486334     fltk:Fl_Slider.obj
 0002:0000a348       ??_R3Fl_Hor_Slider@@8      00486348     fltk:Fl_Slider.obj
 0002:0000a358       ??_R2Fl_Hor_Slider@@8      00486358     fltk:Fl_Slider.obj
 0002:0000a36c       ??_R1A@?0A@EA@Fl_Hor_Slider@@8 0048636c     fltk:Fl_Slider.obj
 0002:0000a388       ??_R4Fl_Hor_Fill_Slider@@6B@ 00486388     fltk:Fl_Slider.obj
 0002:0000a39c       ??_R3Fl_Hor_Fill_Slider@@8 0048639c     fltk:Fl_Slider.obj
 0002:0000a3ac       ??_R2Fl_Hor_Fill_Slider@@8 004863ac     fltk:Fl_Slider.obj
 0002:0000a3c0       ??_R1A@?0A@EA@Fl_Hor_Fill_Slider@@8 004863c0     fltk:Fl_Slider.obj
 0002:0000a3dc       ??_R4Fl_Hor_Nice_Slider@@6B@ 004863dc     fltk:Fl_Slider.obj
 0002:0000a3f0       ??_R3Fl_Hor_Nice_Slider@@8 004863f0     fltk:Fl_Slider.obj
 0002:0000a400       ??_R2Fl_Hor_Nice_Slider@@8 00486400     fltk:Fl_Slider.obj
 0002:0000a414       ??_R1A@?0A@EA@Fl_Hor_Nice_Slider@@8 00486414     fltk:Fl_Slider.obj
 0002:0000a430       ??_R4Fl_Nice_Slider@@6B@   00486430     fltk:Fl_Slider.obj
 0002:0000a444       ??_R3Fl_Nice_Slider@@8     00486444     fltk:Fl_Slider.obj
 0002:0000a454       ??_R2Fl_Nice_Slider@@8     00486454     fltk:Fl_Slider.obj
 0002:0000a468       ??_R1A@?0A@EA@Fl_Nice_Slider@@8 00486468     fltk:Fl_Slider.obj
 0002:0000a484       ??_R4Fl_Menu_Window@@6B@   00486484     fltk:Fl_Menu_Window.obj
 0002:0000a498       ??_R4Fl_Tiled_Image@@6B@   00486498     fltk:Fl_Tiled_Image.obj
 0002:0000a4ac       ??_R3Fl_Tiled_Image@@8     004864ac     fltk:Fl_Tiled_Image.obj
 0002:0000a4bc       ??_R2Fl_Tiled_Image@@8     004864bc     fltk:Fl_Tiled_Image.obj
 0002:0000a4c8       ??_R1A@?0A@EA@Fl_Tiled_Image@@8 004864c8     fltk:Fl_Tiled_Image.obj
 0002:0000a4e4       ??_R4Fl_Tile@@6B@          004864e4     fltk:Fl_Tile.obj
 0002:0000a4f8       ??_R3Fl_Tile@@8            004864f8     fltk:Fl_Tile.obj
 0002:0000a508       ??_R2Fl_Tile@@8            00486508     fltk:Fl_Tile.obj
 0002:0000a518       ??_R1A@?0A@EA@Fl_Tile@@8   00486518     fltk:Fl_Tile.obj
 0002:0000a534       ??_R4Fl_Browser_@@6B@      00486534     fltk:Fl_Browser_.obj
 0002:0000a548       ??_R3Fl_Browser_@@8        00486548     fltk:Fl_Browser_.obj
 0002:0000a558       ??_R2Fl_Browser_@@8        00486558     fltk:Fl_Browser_.obj
 0002:0000a568       ??_R1A@?0A@EA@Fl_Browser_@@8 00486568     fltk:Fl_Browser_.obj
 0002:0000a584       ??_R4Fl_Browser@@6B@       00486584     fltk:Fl_File_Browser.obj
 0002:0000a598       ??_R3Fl_Browser@@8         00486598     fltk:Fl_File_Browser.obj
 0002:0000a5a8       ??_R2Fl_Browser@@8         004865a8     fltk:Fl_File_Browser.obj
 0002:0000a5bc       ??_R1A@?0A@EA@Fl_Browser@@8 004865bc     fltk:Fl_File_Browser.obj
 0002:0000a5d8       ??_R4Fl_File_Browser@@6B@  004865d8     fltk:Fl_File_Browser.obj
 0002:0000a5ec       ??_R3Fl_File_Browser@@8    004865ec     fltk:Fl_File_Browser.obj
 0002:0000a5fc       ??_R2Fl_File_Browser@@8    004865fc     fltk:Fl_File_Browser.obj
 0002:0000a614       ??_R1A@?0A@EA@Fl_File_Browser@@8 00486614     fltk:Fl_File_Browser.obj
 0002:0000a630       ??_R4Fl_Check_Button@@6B@  00486630     fltk:Fl_Check_Button.obj
 0002:0000a644       ??_R3Fl_Check_Button@@8    00486644     fltk:Fl_Check_Button.obj
 0002:0000a654       ??_R2Fl_Check_Button@@8    00486654     fltk:Fl_Check_Button.obj
 0002:0000a668       ??_R1A@?0A@EA@Fl_Check_Button@@8 00486668     fltk:Fl_Check_Button.obj
 0002:0000a684       ??_R4Fl_File_Input@@6B@    00486684     fltk:Fl_File_Input.obj
 0002:0000a698       ??_R3Fl_File_Input@@8      00486698     fltk:Fl_File_Input.obj
 0002:0000a6a8       ??_R2Fl_File_Input@@8      004866a8     fltk:Fl_File_Input.obj
 0002:0000a6bc       ??_R1A@?0A@EA@Fl_File_Input@@8 004866bc     fltk:Fl_File_Input.obj
 0002:0000a6d8       ??_R4Fl_Hold_Browser@@6B@  004866d8     fltk:Fl_Browser.obj
 0002:0000a6ec       ??_R3Fl_Hold_Browser@@8    004866ec     fltk:Fl_Browser.obj
 0002:0000a6fc       ??_R2Fl_Hold_Browser@@8    004866fc     fltk:Fl_Browser.obj
 0002:0000a714       ??_R1A@?0A@EA@Fl_Hold_Browser@@8 00486714     fltk:Fl_Browser.obj
 0002:0000a730       ??_R4Fl_Multi_Browser@@6B@ 00486730     fltk:Fl_Browser.obj
 0002:0000a744       ??_R3Fl_Multi_Browser@@8   00486744     fltk:Fl_Browser.obj
 0002:0000a754       ??_R2Fl_Multi_Browser@@8   00486754     fltk:Fl_Browser.obj
 0002:0000a76c       ??_R1A@?0A@EA@Fl_Multi_Browser@@8 0048676c     fltk:Fl_Browser.obj
 0002:0000a788       ??_R4Fl_Select_Browser@@6B@ 00486788     fltk:Fl_Browser.obj
 0002:0000a79c       ??_R3Fl_Select_Browser@@8  0048679c     fltk:Fl_Browser.obj
 0002:0000a7ac       ??_R2Fl_Select_Browser@@8  004867ac     fltk:Fl_Browser.obj
 0002:0000a7c4       ??_R1A@?0A@EA@Fl_Select_Browser@@8 004867c4     fltk:Fl_Browser.obj
 0002:0000a7e0       ??_R4Fl_Shared_Image@@6B@  004867e0     fltk:Fl_Shared_Image.obj
 0002:0000a7f4       ??_R3Fl_Shared_Image@@8    004867f4     fltk:Fl_Shared_Image.obj
 0002:0000a804       ??_R2Fl_Shared_Image@@8    00486804     fltk:Fl_Shared_Image.obj
 0002:0000a810       ??_R1A@?0A@EA@Fl_Shared_Image@@8 00486810     fltk:Fl_Shared_Image.obj
 0002:0000a82c       ??_R4Fl_Single_Window@@6B@ 0048682c     fltk:Fl_Single_Window.obj
 0002:0000a840       ??_R4Fl_Scrollbar@@6B@     00486840     fltk:Fl_Scrollbar.obj
 0002:0000a854       ??_R3Fl_Scrollbar@@8       00486854     fltk:Fl_Scrollbar.obj
 0002:0000a864       ??_R2Fl_Scrollbar@@8       00486864     fltk:Fl_Scrollbar.obj
 0002:0000a878       ??_R1A@?0A@EA@Fl_Scrollbar@@8 00486878     fltk:Fl_Scrollbar.obj
 0002:0000a894       ??_R4Fl_XBM_Image@@6B@     00486894     fltk:Fl_XBM_Image.obj
 0002:0000a8a8       ??_R3Fl_XBM_Image@@8       004868a8     fltk:Fl_XBM_Image.obj
 0002:0000a8b8       ??_R2Fl_XBM_Image@@8       004868b8     fltk:Fl_XBM_Image.obj
 0002:0000a8c8       ??_R1A@?0A@EA@Fl_XBM_Image@@8 004868c8     fltk:Fl_XBM_Image.obj
 0002:0000a8e4       ??_R4Fl_XPM_Image@@6B@     004868e4     fltk:Fl_XPM_Image.obj
 0002:0000a8f8       ??_R3Fl_XPM_Image@@8       004868f8     fltk:Fl_XPM_Image.obj
 0002:0000a908       ??_R2Fl_XPM_Image@@8       00486908     fltk:Fl_XPM_Image.obj
 0002:0000a918       ??_R1A@?0A@EA@Fl_XPM_Image@@8 00486918     fltk:Fl_XPM_Image.obj
 0002:0000a934       ??_R4Fl_Device_Plugin@@6B@ 00486934     fltkgl:Fl_Gl_Device_Plugin.obj
 0002:0000a948       ??_R3Fl_Device_Plugin@@8   00486948     fltkgl:Fl_Gl_Device_Plugin.obj
 0002:0000a958       ??_R2Fl_Device_Plugin@@8   00486958     fltkgl:Fl_Gl_Device_Plugin.obj
 0002:0000a964       ??_R1A@?0A@EA@Fl_Device_Plugin@@8 00486964     fltkgl:Fl_Gl_Device_Plugin.obj
 0002:0000a980       ??_R4Fl_Gl_Device_Plugin@@6B@ 00486980     fltkgl:Fl_Gl_Device_Plugin.obj
 0002:0000a994       ??_R3Fl_Gl_Device_Plugin@@8 00486994     fltkgl:Fl_Gl_Device_Plugin.obj
 0002:0000a9a4       ??_R2Fl_Gl_Device_Plugin@@8 004869a4     fltkgl:Fl_Gl_Device_Plugin.obj
 0002:0000a9b4       ??_R1A@?0A@EA@Fl_Gl_Device_Plugin@@8 004869b4     fltkgl:Fl_Gl_Device_Plugin.obj
 0002:0000a9d0       ??_R4type_info@@6B@        004869d0     MSVCRT:std_type_info_static.obj
 0002:0000a9e4       ??_R3type_info@@8          004869e4     MSVCRT:std_type_info_static.obj
 0002:0000a9f4       ??_R2type_info@@8          004869f4     MSVCRT:std_type_info_static.obj
 0002:0000a9fc       ??_R1A@?0A@EA@type_info@@8 004869fc     MSVCRT:std_type_info_static.obj
 0002:0000ade4       ___rtc_iaa                 00486de4     MSVCRT:initsect.obj
 0002:0000ade8       ___rtc_izz                 00486de8     MSVCRT:initsect.obj
 0002:0000adec       ___rtc_taa                 00486dec     MSVCRT:initsect.obj
 0002:0000adf0       ___rtc_tzz                 00486df0     MSVCRT:initsect.obj
 0002:0000adf4       __tls_start                00486df4     MSVCRT:tlssup.obj
 0002:0000adf8       __Init_thread_epoch        00486df8     MSVCRT:thread_safe_statics.obj
 0002:0000adfc       __tls_end                  00486dfc     MSVCRT:tlssup.obj
 0002:0000b010       __TI3?AVbad_array_new_length@std@@ 00487010     RayTracer.obj
 0002:0000b020       __CTA3?AVbad_array_new_length@std@@ 00487020     RayTracer.obj
 0002:0000b030       __CT??_R0?AVbad_array_new_length@std@@@8??0bad_array_new_length@std@@QAE@ABV01@@Z12 00487030     RayTracer.obj
 0002:0000b04c       __CT??_R0?AVbad_alloc@std@@@8??0bad_alloc@std@@QAE@ABV01@@Z12 0048704c     RayTracer.obj
 0002:0000b068       __CT??_R0?AVexception@std@@@8??0exception@std@@QAE@ABV01@@Z12 00487068     RayTracer.obj
 0002:0000b758       __TI3?AVObjTypeMismatch@@  00487758     parse.obj
 0002:0000b768       __CTA3?AVObjTypeMismatch@@ 00487768     parse.obj
 0002:0000b778       __CT??_R0?AVObjTypeMismatch@@@8??0ObjTypeMismatch@@QAE@ABV0@@Z24 00487778     parse.obj
 0002:0000b794       __CT??_R0?AVParseError@@@8??0ParseError@@QAE@ABV0@@Z24 00487794     parse.obj
 0002:0000b7b0       __CT??_R0?AVException@@@8??0Exception@@QAE@ABV0@@Z24 004877b0     parse.obj
 0002:0000b7cc       __TI2?AVParseError@@       004877cc     parse.obj
 0002:0000b7dc       __CTA2?AVParseError@@      004877dc     parse.obj
 0002:0000bfd0       __TI2?AVbad_cast@std@@     00487fd0     read.obj
 0002:0000bfe0       __CTA2?AVbad_cast@std@@    00487fe0     read.obj
 0002:0000bfec       __CT??_R0?AVbad_cast@std@@@8??0bad_cast@std@@QAE@ABV01@@Z12 00487fec     read.obj
 0002:0000c008       __TI1?AVSingularMatrixException@@ 00488008     vecmath.obj
 0002:0000c018       __CTA1?AVSingularMatrixException@@ 00488018     vecmath.obj
 0002:0000c020       __CT??_R0?AVSingularMatrixException@@@81 00488020     vecmath.obj
 0002:0000d0ac       __TI2?AVbad_alloc@std@@    004890ac     MSVCRT:throw_bad_alloc.obj
 0002:0000d0bc       __CTA2?AVbad_alloc@std@@   004890bc     MSVCRT:throw_bad_alloc.obj
 0002:0000d0c8       __IMPORT_DESCRIPTOR_OPENGL32 004890c8     opengl32:OPENGL32.dll
 0002:0000d0dc       __IMPORT_DESCRIPTOR_KERNEL32 004890dc     kernel32:KERNEL32.dll
 0002:0000d0f0       __IMPORT_DESCRIPTOR_USER32 004890f0     user32:USER32.dll
 0002:0000d104       __IMPORT_DESCRIPTOR_GDI32  00489104     gdi32:GDI32.dll
 0002:0000d118       __IMPORT_DESCRIPTOR_ADVAPI32 00489118     advapi32:ADVAPI32.dll
 0002:0000d12c       __IMPORT_DESCRIPTOR_SHELL32 0048912c     shell32:SHELL32.dll
 0002:0000d140       __IMPORT_DESCRIPTOR_ole32  00489140     ole32:ole32.dll
 0002:0000d154       __IMPORT_DESCRIPTOR_MSVCP140 00489154     msvcprt:MSVCP140.dll
 0002:0000d168       __IMPORT_DESCRIPTOR_COMCTL32 00489168     comctl32:COMCTL32.dll
 0002:0000d17c       __IMPORT_DESCRIPTOR_VCRUNTIME140 0048917c     vcruntime:VCRUNTIME140.dll
 0002:0000d190       __IMPORT_DESCRIPTOR_api-ms-win-crt-string-l1-1-0 00489190     ucrt:api-ms-win-crt-string-l1-1-0.dll
 0002:0000d1a4       __IMPORT_DESCRIPTOR_api-ms-win-crt-stdio-l1-1-0 004891a4     ucrt:api-ms-win-crt-stdio-l1-1-0.dll
 0002:0000d1b8       __IMPORT_DESCRIPTOR_api-ms-win-crt-runtime-l1-1-0 004891b8     ucrt:api-ms-win-crt-runtime-l1-1-0.dll
 0002:0000d1cc       __IMPORT_DESCRIPTOR_api-ms-win-crt-convert-l1-1-0 004891cc     ucrt:api-ms-win-crt-convert-l1-1-0.dll
 0002:0000d1e0       __IMPORT_DESCRIPTOR_api-ms-win-crt-time-l1-1-0 004891e0     ucrt:api-ms-win-crt-time-l1-1-0.dll
 0002:0000d1f4       __IMPORT_DESCRIPTOR_api-ms-win-crt-utility-l1-1-0 004891f4     ucrt:api-ms-win-crt-utility-l1-1-0.dll
 0002:0000d208       __IMPORT_DESCRIPTOR_api-ms-win-crt-math-l1-1-0 00489208     ucrt:api-ms-win-crt-math-l1-1-0.dll
 0002:0000d21c       __IMPORT_DESCRIPTOR_api-ms-win-crt-heap-l1-1-0 0048921c     ucrt:api-ms-win-crt-heap-l1-1-0.dll
 0002:0000d230       __IMPORT_DESCRIPTOR_api-ms-win-crt-filesystem-l1-1-0 00489230     ucrt:api-ms-win-crt-filesystem-l1-1-0.dll
 0002:0000d244       __IMPORT_DESCRIPTOR_api-ms-win-crt-environment-l1-1-0 00489244     ucrt:api-ms-win-crt-environment-l1-1-0.dll
 0002:0000d258       __IMPORT_DESCRIPTOR_api-ms-win-crt-process-l1-1-0 00489258     ucrt:api-ms-win-crt-process-l1-1-0.dll
 0002:0000d26c       __IMPORT_DESCRIPTOR_api-ms-win-crt-locale-l1-1-0 0048926c     ucrt:api-ms-win-crt-locale-l1-1-0.dll
 0002:0000d280       __NULL_IMPORT_DESCRIPTOR   00489280     opengl32:OPENGL32.dll
 0003:00000004       ?g_width@@3HA              0048c004     main.obj
 0003:00000018       ?menuitems@TraceUI@@1PAUFl_Menu_Item@@A 0048c018     TraceUI.obj
 0003:00000180       ?menuItem_super_sampling@TraceUI@@1PAUFl_Menu_Item@@A 0048c180     TraceUI.obj
 0003:0000025c       ?e_text@Fl@@2PADA          0048c25c     fltk:Fl.obj
 0003:00000260       ?e_clipboard_type@Fl@@2PBDB 0048c260     fltk:Fl.obj
 0003:00000264       ?scrollbar_size_@Fl@@2HA   0048c264     fltk:Fl.obj
 0003:00000268       ?fl_lock_function@@3P6AXXZA 0048c268     fltk:Fl.obj
 0003:0000026c       ?fl_unlock_function@@3P6AXXZA 0048c26c     fltk:Fl.obj
 0003:00000270       ?_display@Fl_Display_Device@@0PAV1@A 0048c270     fltk:Fl.obj
 0003:00000274       ?enter@Fl_Tooltip@@2P6AXPAVFl_Widget@@@ZA 0048c274     fltk:Fl.obj
 0003:00000278       ?exit@Fl_Tooltip@@2P6AXPAVFl_Widget@@@ZA 0048c278     fltk:Fl.obj
 0003:00000284       ?fl_message_size_@@3HA     0048c284     fltk:fl_ask.obj
 0003:00000288       ?fl_no@@3PBDB              0048c288     fltk:fl_ask.obj
 0003:0000028c       ?fl_yes@@3PBDB             0048c28c     fltk:fl_ask.obj
 0003:00000290       ?fl_ok@@3PBDB              0048c290     fltk:fl_ask.obj
 0003:00000294       ?fl_cancel@@3PBDB          0048c294     fltk:fl_ask.obj
 0003:00000298       ?fl_close@@3PBDB           0048c298     fltk:fl_ask.obj
 0003:0000029c       ?atclose@Fl@@2P6AXPAVFl_Window@@PAX@ZA 0048c29c     fltk:Fl_Window.obj
 0003:000002a0       ?FL_NORMAL_SIZE@@3HA       0048c2a0     fltk:Fl_Widget.obj
 0003:00000330       ?max_size_@Fl_RGB_Image@@0IA 0048c330     fltk:Fl_Image.obj
 0003:00000334       ?delay_@Fl_Tooltip@@0MA    0048c334     fltk:Fl_Tooltip.obj
 0003:00000338       ?hoverdelay_@Fl_Tooltip@@0MA 0048c338     fltk:Fl_Tooltip.obj
 0003:0000033c       ?textcolor_@Fl_Tooltip@@0IA 0048c33c     fltk:Fl_Tooltip.obj
 0003:00000340       ?size_@Fl_Tooltip@@0HA     0048c340     fltk:Fl_Tooltip.obj
 0003:0000074c       ?lastEntrySet@Node@Fl_Preferences@@2HA 0048c74c     fltk:Fl_Preferences.obj
 0003:00000764       ?class_id@Fl_Graphics_Driver@@2PBDB 0048c764     fltk:Fl_Device.obj
 0003:00000768       ?class_id@Fl_GDI_Graphics_Driver@@2PBDB 0048c768     fltk:Fl_Device.obj
 0003:0000076c       ?class_id@Fl_GDI_Printer_Graphics_Driver@@2PBDB 0048c76c     fltk:Fl_Device.obj
 0003:00000770       ?class_id@Fl_Surface_Device@@2PBDB 0048c770     fltk:Fl_Device.obj
 0003:00000774       ?class_id@Fl_Display_Device@@2PBDB 0048c774     fltk:Fl_Device.obj
 0003:00000778       ?class_id@Fl_Device@@2PBDB 0048c778     fltk:Fl_Device.obj
 0003:00001020       ?fl_fonts@@3PAUFl_Fontdesc@@A 0048d020     fltk:fl_font.obj
 0003:000011bc       ?warning@Fl@@2P6AXPBDZZA   0048d1bc     fltk:Fl_abort.obj
 0003:000011c0       ?error@Fl@@2P6AXPBDZZA     0048d1c0     fltk:Fl_abort.obj
 0003:000011c4       ?fatal@Fl@@2P6AXPBDZZA     0048d1c4     fltk:Fl_abort.obj
 0003:000011c8       ?fullscreen_screen_top@Fl_Window@@0HA 0048d1c8     fltk:Fl_Window_fullscreen.obj
 0003:000011cc       ?fullscreen_screen_bottom@Fl_Window@@0HA 0048d1cc     fltk:Fl_Window_fullscreen.obj
 0003:000011d0       ?fullscreen_screen_left@Fl_Window@@0HA 0048d1d0     fltk:Fl_Window_fullscreen.obj
 0003:000011d4       ?fullscreen_screen_right@Fl_Window@@0HA 0048d1d4     fltk:Fl_Window_fullscreen.obj
 0003:000011d8       ?flIDropTarget@@3PAUIDropTarget@@A 0048d1d8     fltk:fl_dnd.obj
 0003:00001f08       ?add_favorites_label@Fl_File_Chooser@@2PBDB 0048df08     fltk:Fl_File_Chooser2.obj
 0003:00001f0c       ?all_files_label@Fl_File_Chooser@@2PBDB 0048df0c     fltk:Fl_File_Chooser2.obj
 0003:00001f10       ?custom_filter_label@Fl_File_Chooser@@2PBDB 0048df10     fltk:Fl_File_Chooser2.obj
 0003:00001f14       ?existing_file_label@Fl_File_Chooser@@2PBDB 0048df14     fltk:Fl_File_Chooser2.obj
 0003:00001f18       ?favorites_label@Fl_File_Chooser@@2PBDB 0048df18     fltk:Fl_File_Chooser2.obj
 0003:00001f1c       ?filename_label@Fl_File_Chooser@@2PBDB 0048df1c     fltk:Fl_File_Chooser2.obj
 0003:00001f20       ?filesystems_label@Fl_File_Chooser@@2PBDB 0048df20     fltk:Fl_File_Chooser2.obj
 0003:00001f24       ?manage_favorites_label@Fl_File_Chooser@@2PBDB 0048df24     fltk:Fl_File_Chooser2.obj
 0003:00001f28       ?new_directory_label@Fl_File_Chooser@@2PBDB 0048df28     fltk:Fl_File_Chooser2.obj
 0003:00001f2c       ?new_directory_tooltip@Fl_File_Chooser@@2PBDB 0048df2c     fltk:Fl_File_Chooser2.obj
 0003:00001f30       ?preview_label@Fl_File_Chooser@@2PBDB 0048df30     fltk:Fl_File_Chooser2.obj
 0003:00001f34       ?save_label@Fl_File_Chooser@@2PBDB 0048df34     fltk:Fl_File_Chooser2.obj
 0003:00001f38       ?show_label@Fl_File_Chooser@@2PBDB 0048df38     fltk:Fl_File_Chooser2.obj
 0003:00001f3c       ?hidden_label@Fl_File_Chooser@@2PBDB 0048df3c     fltk:Fl_File_Chooser2.obj
 0003:00001f40       ?sort@Fl_File_Chooser@@2P6AHPAPAUdirent@@0@ZA 0048df40     fltk:Fl_File_Chooser2.obj
 0003:00001f68       ___security_cookie_complement 0048df68     MSVCRT:gs_cookie.obj
 0003:00001f6c       ___security_cookie         0048df6c     MSVCRT:gs_cookie.obj
 0003:00001f70       __fltused                  0048df70     MSVCRT:fltused.obj
 0003:00001f74       ___scrt_native_dllmain_reason 0048df74     MSVCRT:utility.obj
 0003:00001f78       __Init_global_epoch        0048df78     MSVCRT:thread_safe_statics.obj
 0003:00001f80       ___scrt_default_matherr    0048df80     MSVCRT:matherr.obj
 0003:00001f90       ___isa_enabled             0048df90     MSVCRT:cpu_disp.obj
 0003:00001f94       ___scrt_ucrt_dll_is_in_use 0048df94     MSVCRT:ucrt_stubs.obj
 0003:00001f98       ??_R0?AVbad_array_new_length@std@@@8 0048df98     RayTracer.obj
 0003:00001fc0       ??_R0?AVbad_alloc@std@@@8  0048dfc0     RayTracer.obj
 0003:00001fdc       ??_R0?AVexception@std@@@8  0048dfdc     RayTracer.obj
 0003:00001ff8       ??_R0?AVParseError@@@8     0048dff8     RayTracer.obj
 0003:00002014       ??_R0?AVFl_Gl_Window@@@8   0048e014     TraceGLWindow.obj
 0003:00002030       ??_R0?AVFl_Window@@@8      0048e030     TraceGLWindow.obj
 0003:00002048       ??_R0?AVFl_Group@@@8       0048e048     TraceGLWindow.obj
 0003:00002060       ??_R0?AVFl_Widget@@@8      0048e060     TraceGLWindow.obj
 0003:00002078       ??_R0?AVTraceGLWindow@@@8  0048e078     TraceGLWindow.obj
 0003:00002094       ??_R0?AVObjTypeMismatch@@@8 0048e094     parse.obj
 0003:000020b4       ??_R0?AVException@@@8      0048e0b4     parse.obj
 0003:000020cc       ??_R0?AVObj@@@8            0048e0cc     parse.obj
 0003:000020e0       ??_R0?AVScalarObj@@@8      0048e0e0     parse.obj
 0003:000020f8       ??_R0?AVBooleanObj@@@8     0048e0f8     parse.obj
 0003:00002114       ??_R0?AVIdObj@@@8          0048e114     parse.obj
 0003:00002128       ??_R0?AVStringObj@@@8      0048e128     parse.obj
 0003:00002140       ??_R0?AVTupleObj@@@8       0048e140     parse.obj
 0003:00002158       ??_R0?AVDictObj@@@8        0048e158     parse.obj
 0003:00002170       ??_R0?AVNamedObj@@@8       0048e170     parse.obj
 0003:00002188       ??_R0?AVbad_cast@std@@@8   0048e188     read.obj
 0003:000021a4       ??_R0?AV?$basic_filebuf@DU?$char_traits@D@std@@@std@@@8 0048e1a4     read.obj
 0003:000021e0       ??_R0?AV?$basic_streambuf@DU?$char_traits@D@std@@@std@@@8 0048e1e0     read.obj
 0003:0000221c       ??_R0?AV?$basic_ifstream@DU?$char_traits@D@std@@@std@@@8 0048e21c     read.obj
 0003:00002258       ??_R0?AV?$basic_istream@DU?$char_traits@D@std@@@std@@@8 0048e258     read.obj
 0003:00002294       ??_R0?AV?$basic_ios@DU?$char_traits@D@std@@@std@@@8 0048e294     read.obj
 0003:000022cc       ??_R0?AVios_base@std@@@8   0048e2cc     read.obj
 0003:000022e8       ??_R0?AV?$_Iosb@H@std@@@8  0048e2e8     read.obj
 0003:00002304       ??_R0?AVstrstreambuf@std@@@8 0048e304     read.obj
 0003:00002324       ??_R0?AVostrstream@std@@@8 0048e324     read.obj
 0003:00002344       ??_R0?AV?$basic_ostream@DU?$char_traits@D@std@@@std@@@8 0048e344     read.obj
 0003:00002380       ??_R0?AVScene@@@8          0048e380     read.obj
 0003:00002394       ??_R0?AVMaterial@@@8       0048e394     read.obj
 0003:000023ac       ??_R0?AVSceneObject@@@8    0048e3ac     read.obj
 0003:000023c8       ??_R0?AVGeometry@@@8       0048e3c8     read.obj
 0003:000023e0       ??_R0?AVSceneElement@@@8   0048e3e0     read.obj
 0003:000023fc       ??_R0?AVLight@@@8          0048e3fc     read.obj
 0003:00002410       ??_R0?AVMaterialSceneObject@@@8 0048e410     read.obj
 0003:00002434       ??_R0?AVTrimesh@@@8        0048e434     read.obj
 0003:0000244c       ??_R0?AVBox@@@8            0048e44c     read.obj
 0003:00002460       ??_R0?AVCone@@@8           0048e460     read.obj
 0003:00002474       ??_R0?AVCylinder@@@8       0048e474     read.obj
 0003:0000248c       ??_R0?AVSphere@@@8         0048e48c     read.obj
 0003:000024a4       ??_R0?AVSquare@@@8         0048e4a4     read.obj
 0003:000024bc       ??_R0?AVDirectionalLight@@@8 0048e4bc     read.obj
 0003:000024dc       ??_R0?AVPointLight@@@8     0048e4dc     read.obj
 0003:000024f8       ??_R0?AVSingularMatrixException@@@8 0048e4f8     vecmath.obj
 0003:00002520       ??_R0?AVTrimeshFace@@@8    0048e520     trimesh.obj
 0003:0000253c       ??_R0?AVFl_Image@@@8       0048e53c     fltk:Fl.obj
 0003:00002554       ??_R0?AVFl_RGB_Image@@@8   0048e554     fltk:Fl.obj
 0003:00002570       ??_R0?AVFl_GDI_Graphics_Driver@@@8 0048e570     fltk:Fl.obj
 0003:00002598       ??_R0?AVFl_Graphics_Driver@@@8 0048e598     fltk:Fl.obj
 0003:000025bc       ??_R0?AVFl_Device@@@8      0048e5bc     fltk:Fl.obj
 0003:000025d4       ??_R0?AVFl_Surface_Device@@@8 0048e5d4     fltk:Fl.obj
 0003:000025f4       ??_R0?AVFl_Input_Choice@@@8 0048e5f4     fltk:Fl_Group.obj
 0003:00002614       ??_R0?AVInputMenuButton@Fl_Input_Choice@@@8 0048e614     fltk:Fl_Group.obj
 0003:00002644       ??_R0?AVFl_Menu_Button@@@8 0048e644     fltk:Fl_Group.obj
 0003:00002664       ??_R0?AVFl_Menu_@@@8       0048e664     fltk:Fl_Group.obj
 0003:0000267c       ??_R0?AVFl_Spinner@@@8     0048e67c     fltk:Fl_Group.obj
 0003:00002698       ??_R0?AVFl_Menu_Bar@@@8    0048e698     fltk:Fl_Menu_Bar.obj
 0003:000026b4       ??_R0?AVFl_Valuator@@@8    0048e6b4     fltk:Fl_Valuator.obj
 0003:000026d0       ??_R0?AVFl_Value_Slider@@@8 0048e6d0     fltk:Fl_Value_Slider.obj
 0003:000026f0       ??_R0?AVFl_Slider@@@8      0048e6f0     fltk:Fl_Value_Slider.obj
 0003:00002708       ??_R0?AVFl_Hor_Value_Slider@@@8 0048e708     fltk:Fl_Value_Slider.obj
 0003:0000272c       ??_R0?AVFl_Button@@@8      0048e72c     fltk:Fl_Button.obj
 0003:00002744       ??_R0?AVFl_Radio_Button@@@8 0048e744     fltk:Fl_Button.obj
 0003:00002764       ??_R0?AVFl_Toggle_Button@@@8 0048e764     fltk:Fl_Button.obj
 0003:00002784       ??_R0?AVFl_Light_Button@@@8 0048e784     fltk:Fl_Light_Button.obj
 0003:000027a4       ??_R0?AVFl_Radio_Light_Button@@@8 0048e7a4     fltk:Fl_Light_Button.obj
 0003:000027c8       ??_R0?AVFl_Choice@@@8      0048e7c8     fltk:Fl_Choice.obj
 0003:000027e0       ??_R0?AVFl_TooltipBox@@@8  0048e7e0     fltk:Fl_Tooltip.obj
 0003:000027fc       ??_R0?AVFl_Menu_Window@@@8 0048e7fc     fltk:Fl_Tooltip.obj
 0003:0000281c       ??_R0?AVFl_Single_Window@@@8 0048e81c     fltk:Fl_Tooltip.obj
 0003:0000283c       ??_R0?AVFl_Double_Window@@@8 0048e83c     fltk:Fl_Double_Window.obj
 0003:0000285c       ??_R0?AVFl_Overlay_Window@@@8 0048e85c     fltk:Fl_Double_Window.obj
 0003:0000287c       ??_R0?AVFl_Preferences@@@8 0048e87c     fltk:Fl_Preferences.obj
 0003:0000289c       ??_R0?AVFl_Plugin@@@8      0048e89c     fltk:Fl_Preferences.obj
 0003:000028b4       ??_R0?AVFl_Plugin_Manager@@@8 0048e8b4     fltk:Fl_Preferences.obj
 0003:000028d4       ??_R0?AVFl_Display_Device@@@8 0048e8d4     fltk:Fl_Device.obj
 0003:000028f4       ??_R0?AVFl_Pixmap@@@8      0048e8f4     fltk:Fl_Pixmap.obj
 0003:0000290c       ??_R0?AVFl_Bitmap@@@8      0048e90c     fltk:Fl_Bitmap.obj
 0003:00002924       ??_R0?AUIUnknown@@@8       0048e924     fltk:fl_dnd.obj
 0003:0000293c       ??_R0?AUIDataObject@@@8    0048e93c     fltk:fl_dnd.obj
 0003:00002958       ??_R0?AUIDropSource@@@8    0048e958     fltk:fl_dnd.obj
 0003:00002974       ??_R0?AUIDropTarget@@@8    0048e974     fltk:fl_dnd.obj
 0003:00002990       ??_R0?AVFLDropTarget@@@8   0048e990     fltk:fl_dnd.obj
 0003:000029ac       ??_R0?AVFLDropSource@@@8   0048e9ac     fltk:fl_dnd.obj
 0003:000029c8       ??_R0?AVFLDataObject@@@8   0048e9c8     fltk:fl_dnd.obj
 0003:000029e4       ??_R0?AVFl_Box@@@8         0048e9e4     fltk:Fl_Box.obj
 0003:000029fc       ??_R0?AVFl_Return_Button@@@8 0048e9fc     fltk:Fl_Return_Button.obj
 0003:00002a1c       ??_R0?AVFl_Input_@@@8      0048ea1c     fltk:Fl_Input_.obj
 0003:00002a34       ??_R0?AVFl_Input@@@8       0048ea34     fltk:Fl_Input.obj
 0003:00002a4c       ??_R0?AVFl_Float_Input@@@8 0048ea4c     fltk:Fl_Input.obj
 0003:00002a6c       ??_R0?AVFl_Int_Input@@@8   0048ea6c     fltk:Fl_Input.obj
 0003:00002a88       ??_R0?AVFl_Multiline_Input@@@8 0048ea88     fltk:Fl_Input.obj
 0003:00002aac       ??_R0?AVFl_Output@@@8      0048eaac     fltk:Fl_Input.obj
 0003:00002ac4       ??_R0?AVFl_Multiline_Output@@@8 0048eac4     fltk:Fl_Input.obj
 0003:00002ae8       ??_R0?AVFl_Secret_Input@@@8 0048eae8     fltk:Fl_Input.obj
 0003:00002b08       ??_R0?AVFl_Repeat_Button@@@8 0048eb08     fltk:Fl_Repeat_Button.obj
 0003:00002b28       ??_R0?AVmenutitle@@@8      0048eb28     fltk:Fl_Menu.obj
 0003:00002b40       ??_R0?AVmenuwindow@@@8     0048eb40     fltk:Fl_Menu.obj
 0003:00002b5c       ??_R0?AVFl_Fill_Slider@@@8 0048eb5c     fltk:Fl_Slider.obj
 0003:00002b7c       ??_R0?AVFl_Hor_Slider@@@8  0048eb7c     fltk:Fl_Slider.obj
 0003:00002b98       ??_R0?AVFl_Hor_Fill_Slider@@@8 0048eb98     fltk:Fl_Slider.obj
 0003:00002bbc       ??_R0?AVFl_Hor_Nice_Slider@@@8 0048ebbc     fltk:Fl_Slider.obj
 0003:00002be0       ??_R0?AVFl_Nice_Slider@@@8 0048ebe0     fltk:Fl_Slider.obj
 0003:00002c00       ??_R0?AVFl_Tiled_Image@@@8 0048ec00     fltk:Fl_Tiled_Image.obj
 0003:00002c20       ??_R0?AVFl_Tile@@@8        0048ec20     fltk:Fl_Tile.obj
 0003:00002c38       ??_R0?AVFl_Browser_@@@8    0048ec38     fltk:Fl_Browser_.obj
 0003:00002c54       ??_R0?AVFl_Browser@@@8     0048ec54     fltk:Fl_File_Browser.obj
 0003:00002c70       ??_R0?AVFl_File_Browser@@@8 0048ec70     fltk:Fl_File_Browser.obj
 0003:00002c90       ??_R0?AVFl_Check_Button@@@8 0048ec90     fltk:Fl_Check_Button.obj
 0003:00002cb0       ??_R0?AVFl_File_Input@@@8  0048ecb0     fltk:Fl_File_Input.obj
 0003:00002ccc       ??_R0?AVFl_Hold_Browser@@@8 0048eccc     fltk:Fl_Browser.obj
 0003:00002cec       ??_R0?AVFl_Multi_Browser@@@8 0048ecec     fltk:Fl_Browser.obj
 0003:00002d0c       ??_R0?AVFl_Select_Browser@@@8 0048ed0c     fltk:Fl_Browser.obj
 0003:00002d2c       ??_R0?AVFl_Shared_Image@@@8 0048ed2c     fltk:Fl_Shared_Image.obj
 0003:00002d4c       ??_R0?AVFl_Scrollbar@@@8   0048ed4c     fltk:Fl_Scrollbar.obj
 0003:00002d68       ??_R0?AVFl_XBM_Image@@@8   0048ed68     fltk:Fl_XBM_Image.obj
 0003:00002d84       ??_R0?AVFl_XPM_Image@@@8   0048ed84     fltk:Fl_XPM_Image.obj
 0003:00002da0       ??_R0?AVFl_Device_Plugin@@@8 0048eda0     fltkgl:Fl_Gl_Device_Plugin.obj
 0003:00002dc0       ??_R0?AVFl_Gl_Device_Plugin@@@8 0048edc0     fltkgl:Fl_Gl_Device_Plugin.obj
 0003:00002de4       ??_R0?AVtype_info@@@8      0048ede4     MSVCRT:std_type_info_static.obj
 0003:00002e00       ?optarg@@3PADA             0048ee00     getopt.obj
 0003:00002e04       ?optind@@3HA               0048ee04     getopt.obj
 0003:00002e08       ?opterr@@3HA               0048ee08     getopt.obj
 0003:00002e0c       ?optopt@@3HA               0048ee0c     getopt.obj
 0003:00002e10       ?traceUI@@3PAVTraceUI@@A   0048ee10     main.obj
 0003:00002e14       ?theRayTracer@@3PAVRayTracer@@A 0048ee14     main.obj
 0003:00002e18       ?recursion_depth@@3HA      0048ee18     main.obj
 0003:00002e1c       ?g_height@@3HA             0048ee1c     main.obj
 0003:00002e20       ?bReport@@3_NA             0048ee20     main.obj
 0003:00002e24       ?progname@@3PADA           0048ee24     main.obj
 0003:00002e28       ?rayName@@3PADA            0048ee28     main.obj
 0003:00002e2c       ?imgName@@3PADA            0048ee2c     main.obj
 0003:00002e30       ?_OptionsStorage@?1??__local_stdio_printf_options@@9@4_KA 0048ee30     main.obj
 0003:00002e3c       ?bmfh@@3UBMP_BITMAPFILEHEADER@@A 0048ee3c     bitmap.obj
 0003:00002e4c       ?bmih@@3UBMP_BITMAPINFOHEADER@@A 0048ee4c     bitmap.obj
 0003:00002e74       ?_Stinit@?1??_Init@?$basic_filebuf@DU?$char_traits@D@std@@@std@@IAEXPAU_iobuf@@W4_Initfl@23@@Z@4U_Mbstatet@@A 0048ee74     read.obj
 0003:00002e7c       ?_Psave@?$_Facetptr@V?$codecvt@DDU_Mbstatet@@@std@@@std@@2PBVfacet@locale@2@B 0048ee7c     read.obj
 0003:00002e84       ?first@Fl_X@@2PAV1@A       0048ee84     fltk:Fl.obj
 0003:00002e88       ?fl_wake_msg@@3IA          0048ee88     fltk:Fl.obj
 0003:00002ea4       ?fl_window@@3PAUHWND__@@A  0048eea4     fltk:Fl.obj
 0003:00002ea8       ?fl_gc@@3PAUHDC__@@A       0048eea8     fltk:Fl.obj
 0003:00002eac       ?fl_msg@@3UtagMSG@@A       0048eeac     fltk:Fl.obj
 0003:00002ec8       ?fl_local_grab@@3P6AHH@ZA  0048eec8     fltk:Fl.obj
 0003:00002ed4       ?fl_show_iconic@@3DA       0048eed4     fltk:Fl.obj
 0003:00002ed6       ?options_read_@Fl@@0EA     0048eed6     fltk:Fl.obj
 0003:00002edc       ?fl_disable_transient_for@@3HA 0048eedc     fltk:Fl.obj
 0003:00002efc       ?e_number@Fl@@2HA          0048eefc     fltk:Fl.obj
 0003:00002f00       ?e_x@Fl@@2HA               0048ef00     fltk:Fl.obj
 0003:00002f04       ?e_y@Fl@@2HA               0048ef04     fltk:Fl.obj
 0003:00002f08       ?e_x_root@Fl@@2HA          0048ef08     fltk:Fl.obj
 0003:00002f0c       ?e_y_root@Fl@@2HA          0048ef0c     fltk:Fl.obj
 0003:00002f10       ?e_dx@Fl@@2HA              0048ef10     fltk:Fl.obj
 0003:00002f14       ?e_dy@Fl@@2HA              0048ef14     fltk:Fl.obj
 0003:00002f18       ?e_state@Fl@@2HA           0048ef18     fltk:Fl.obj
 0003:00002f1c       ?fl_oldfocus@@3PAVFl_Widget@@A 0048ef1c     fltk:Fl.obj
 0003:00002f20       ?e_clicks@Fl@@2HA          0048ef20     fltk:Fl.obj
 0003:00002f28       ?e_is_click@Fl@@2HA        0048ef28     fltk:Fl.obj
 0003:00002f2c       ?e_keysym@Fl@@2HA          0048ef2c     fltk:Fl.obj
 0003:00002f30       ?e_length@Fl@@2HA          0048ef30     fltk:Fl.obj
 0003:00002f34       ?e_clipboard_data@Fl@@2PAXA 0048ef34     fltk:Fl.obj
 0003:00002f38       ?e_dispatch@Fl@@2P6AHHPAVFl_Window@@@ZA 0048ef38     fltk:Fl.obj
 0003:00002f3c       ?belowmouse_@Fl@@2PAVFl_Widget@@A 0048ef3c     fltk:Fl.obj
 0003:00002f40       ?pushed_@Fl@@2PAVFl_Widget@@A 0048ef40     fltk:Fl.obj
 0003:00002f44       ?focus_@Fl@@2PAVFl_Widget@@A 0048ef44     fltk:Fl.obj
 0003:00002f48       ?damage_@Fl@@2HA           0048ef48     fltk:Fl.obj
 0003:00002f4c       ?selection_owner_@Fl@@2PAVFl_Widget@@A 0048ef4c     fltk:Fl.obj
 0003:00002f50       ?modal_@Fl@@2PAVFl_Window@@A 0048ef50     fltk:Fl.obj
 0003:00002f54       ?grab_@Fl@@2PAVFl_Window@@A 0048ef54     fltk:Fl.obj
 0003:00002f58       ?options_@Fl@@0PAEA        0048ef58     fltk:Fl.obj
 0003:00002f60       ?idle@Fl@@2P6AXXZA         0048ef60     fltk:Fl.obj
 0003:00002f64       ?e_original_keysym@Fl@@2HA 0048ef64     fltk:Fl.obj
 0003:00002f68       ?fl_selection_buffer@@3PAPADA 0048ef68     fltk:Fl.obj
 0003:00002f70       ?fl_selection_length@@3PAHA 0048ef70     fltk:Fl.obj
 0003:00002f78       ?fl_selection_buffer_length@@3PAHA 0048ef78     fltk:Fl.obj
 0003:00002f80       ?fl_i_own_selection@@3PADA 0048ef80     fltk:Fl.obj
 0003:00002f90       ?fl_capture@@3PAUHWND__@@A 0048ef90     fltk:Fl.obj
 0003:00002f94       ?current_@Fl_Window@@1PAV1@A 0048ef94     fltk:Fl.obj
 0003:00002fb0       ?fl_xfocus@@3PAVFl_Window@@A 0048efb0     fltk:Fl.obj
 0003:00002fb4       ?fl_xmousewin@@3PAVFl_Window@@A 0048efb4     fltk:Fl.obj
 0003:00002fc4       ?fl_display@@3PAUHINSTANCE__@@A 0048efc4     fltk:Fl.obj
 0003:00004218       ?fl_message_font_@@3HA     00490218     fltk:fl_ask.obj
 0003:00004240       ?default_xclass_@Fl_Window@@0PADA 00490240     fltk:Fl_Window.obj
 0003:000042a0       ?current_@Fl_Group@@0PAV1@A 004902a0     fltk:Fl_Group.obj
 0003:000042a4       ?fl_menu_array_owner@@3PAVFl_Menu_@@A 004902a4     fltk:Fl_Menu_.obj
 0003:000042a8       ?key_release_tracker@Fl_Button@@1PAVFl_Widget_Tracker@@A 004902a8     fltk:Fl_Button.obj
 0003:00005540       ?awake_ring_@Fl@@2PAP6AXPAX@ZA 00491540     fltk:Fl_lock.obj
 0003:00005544       ?awake_data_@Fl@@2PAPAXA   00491544     fltk:Fl_lock.obj
 0003:00005548       ?awake_ring_size_@Fl@@2HA  00491548     fltk:Fl_lock.obj
 0003:0000554c       ?awake_ring_head_@Fl@@2HA  0049154c     fltk:Fl_lock.obj
 0003:00005550       ?awake_ring_tail_@Fl@@2HA  00491550     fltk:Fl_lock.obj
 0003:00005554       ?cs@@3U_RTL_CRITICAL_SECTION@@A 00491554     fltk:Fl_lock.obj
 0003:0000556c       ?cs_ring@@3PAU_RTL_CRITICAL_SECTION@@A 0049156c     fltk:Fl_lock.obj
 0003:00005574       ?compose_state@Fl@@2HA     00491574     fltk:Fl_compose.obj
 0003:000055b8       ?RGB_scaling_@Fl_Image@@0W4Fl_RGB_Scaling@@A 004915b8     fltk:Fl_Image.obj
 0003:000055bc       ?font_@Fl_Tooltip@@0HA     004915bc     fltk:Fl_Tooltip.obj
 0003:000055c0       ?widget_@Fl_Tooltip@@0PAVFl_Widget@@A 004915c0     fltk:Fl_Tooltip.obj
 0003:000055c8       ?color_@Fl_Tooltip@@0IA    004915c8     fltk:Fl_Tooltip.obj
 0003:000055e0       ?fl_palette@@3PAUHPALETTE__@@A 004915e0     fltk:fl_color.obj
 0003:000055e4       ?fl_current_xmap@@3PAUFl_XMap@@A 004915e4     fltk:fl_color.obj
 0003:000055e8       ?fl_xmap@@3PAUFl_XMap@@A   004915e8     fltk:fl_color.obj
 0003:000062d0       ?nameBuffer@Fl_Preferences@@0PADA 004922d0     fltk:Fl_Preferences.obj
 0003:00006350       ?uuidBuffer@Fl_Preferences@@0PADA 00492350     fltk:Fl_Preferences.obj
 0003:00006378       ?runtimePrefs@Fl_Preferences@@0PAV1@A 00492378     fltk:Fl_Preferences.obj
 0003:00006380       ?_surface@Fl_Surface_Device@@0PAV1@A 00492380     fltk:Fl_Device.obj
 0003:00006384       ?fl_graphics_driver@@3PAVFl_Graphics_Driver@@A 00492384     fltk:Fl_Device.obj
 0003:00006388       ?fl_line_width_@@3HA       00492388     fltk:fl_line_style.obj
 0003:000063ac       ?pixmap_bg_color@Fl_Pixmap@@0IA 004923ac     fltk:Fl_Pixmap.obj
 0003:000063b0       ?_OptionsStorage@?1??__local_stdio_scanf_options@@9@4_KA 004923b0     fltk:Fl_Pixmap.obj
 0003:00006820       ?scheme_@Fl@@2PBDB         00492820     fltk:Fl_get_system_colors.obj
 0003:00006824       ?scheme_bg_@Fl@@2PAVFl_Image@@A 00492824     fltk:Fl_get_system_colors.obj
 0003:0000682c       ?fl_fg@@3PBDB              0049282c     fltk:Fl_get_system_colors.obj
 0003:00006830       ?fl_bg@@3PBDB              00492830     fltk:Fl_get_system_colors.obj
 0003:00006834       ?fl_bg2@@3PBDB             00492834     fltk:Fl_get_system_colors.obj
 0003:00006c60       ?no_fullscreen_x@Fl_Window@@0HA 00492c60     fltk:Fl_Window_fullscreen.obj
 0003:00006c64       ?no_fullscreen_y@Fl_Window@@0HA 00492c64     fltk:Fl_Window_fullscreen.obj
 0003:00006c68       ?no_fullscreen_w@Fl_Window@@0HA 00492c68     fltk:Fl_Window_fullscreen.obj
 0003:00006c6c       ?no_fullscreen_h@Fl_Window@@0HA 00492c6c     fltk:Fl_Window_fullscreen.obj
 0003:00006c70       ?fl_dnd_target_window@@3PAVFl_Window@@A 00492c70     fltk:fl_dnd.obj
 0003:00006c74       ?currDragRef@FLDropTarget@@0PAUIDataObject@@A 00492c74     fltk:fl_dnd.obj
 0003:00006c78       ?currDragData@FLDropTarget@@0PADA 00492c78     fltk:fl_dnd.obj
 0003:00006c7c       ?currDragSize@FLDropTarget@@0HA 00492c7c     fltk:fl_dnd.obj
 0003:00006c80       ?currDragResult@FLDropTarget@@0DA 00492c80     fltk:fl_dnd.obj
 0003:00006c84       ?flDropTarget@@3VFLDropTarget@@A 00492c84     fltk:fl_dnd.obj
 0003:00006c9c       ?fl_codepage@@3IA          00492c9c     fltk:fl_utf8.obj
 0003:00006cf0       ?up_down_pos@Fl_Input_@@0NA 00492cf0     fltk:Fl_Input_.obj
 0003:00006cf8       ?was_up_down@Fl_Input_@@0HA 00492cf8     fltk:Fl_Input_.obj
 0003:00006d30       ?fl_draw_shortcut@@3DA     00492d30     fltk:fl_draw.obj
 0003:00006d40       ?shape_data_@Fl_Window@@1PAUshape_data_type@1@A 00492d40     fltk:Fl_Window_shape.obj
 0003:00006dac       ?prefs_@Fl_File_Chooser@@0VFl_Preferences@@A 00492dac     fltk:Fl_File_Chooser2.obj
 0003:000075b8       ?fl_mask_bitmap@@3PAPAEA   004935b8     fltk:fl_draw_pixmap.obj
 0003:000075bc       ?win_pixmap_bg_color@@3IA  004935bc     fltk:fl_draw_pixmap.obj
 0003:00007fe4       ?first_@Fl_File_Icon@@0PAV1@A 00493fe4     fltk:Fl_File_Icon.obj
 0003:00007fe8       ?images_@Fl_Shared_Image@@1PAPAV1@A 00493fe8     fltk:Fl_Shared_Image.obj
 0003:00007fec       ?num_images_@Fl_Shared_Image@@1HA 00493fec     fltk:Fl_Shared_Image.obj
 0003:00007ff0       ?alloc_images_@Fl_Shared_Image@@1HA 00493ff0     fltk:Fl_Shared_Image.obj
 0003:00007ff4       ?handlers_@Fl_Shared_Image@@1PAP6APAVFl_Image@@PBDPAEH@ZA 00493ff4     fltk:Fl_Shared_Image.obj
 0003:00007ff8       ?num_handlers_@Fl_Shared_Image@@1HA 00493ff8     fltk:Fl_Shared_Image.obj
 0003:00007ffc       ?alloc_handlers_@Fl_Shared_Image@@1HA 00493ffc     fltk:Fl_Shared_Image.obj
 0003:00008001       ?fl_overlay@@3EA           00494001     fltkgl:Fl_Gl_Window.obj
 0003:00008004       ?fl_overlay_depth@@3HA     00494004     fltkgl:Fl_Gl_Window.obj
 0003:00008028       ?fl_gl_load_plugin@@3HA    00494028     fltkgl:Fl_Gl_Device_Plugin.obj
 0003:0000835c       ___scrt_current_native_startup_state 0049435c     MSVCRT:utility.obj
 0003:00008360       ___scrt_native_startup_lock 00494360     MSVCRT:utility.obj
 0003:000083a8       __tls_index                004943a8     MSVCRT:tlssup.obj
 0003:000083b0       ?__type_info_root_node@@3U__type_info_node@@A 004943b0     MSVCRT:tncleanup.obj
 0003:000083b8       ___scrt_debugger_hook_flag 004943b8     MSVCRT:utility_desktop.obj
 0003:000083bc       ___isa_available           004943bc     MSVCRT:cpu_disp.obj
 0003:000083c0       ___favor                   004943c0     MSVCRT:cpu_disp.obj
 0003:000083d0       ?_OptionsStorage@?1??__local_stdio_printf_options@@9@9 004943d0     <common>
 0003:000083d8       ___dyn_tls_dtor_callback   004943d8     <common>
 0003:000083dc       ___dyn_tls_init_callback   004943dc     <common>

 entry point at        0001:000760c3

 Static symbols

 0002:fff84000       __catchsym$??$?6U?$char_traits@D@std@@@std@@YAAAV?$basic_ostream@DU?$char_traits@D@std@@@0@AAV10@PBD@Z$5 00400000     read.obj
 0002:fff84000       __catchsym$??$_Insert_string@DU?$char_traits@D@std@@I@std@@YAAAV?$basic_ostream@DU?$char_traits@D@std@@@0@AAV10@QBDI@Z$5 00400000     read.obj
 0002:fff84000       __ehfuncinfo$??1_Sentry_base@?$basic_ostream@DU?$char_traits@D@std@@@std@@QAE@XZ 00400000     read.obj
 0001:fffff000       __ehhandler$??1_Sentry_base@?$basic_ostream@DU?$char_traits@D@std@@@std@@QAE@XZ 00400000 f   read.obj
 0001:fffff000       __ehhandler$??1sentry@?$basic_ostream@DU?$char_traits@D@std@@@std@@QAE@XZ 00400000 f   read.obj
 0001:fffff000       __unwindfunclet$??$?6U?$char_traits@D@std@@@std@@YAAAV?$basic_ostream@DU?$char_traits@D@std@@@0@AAV10@PBD@Z$2 00400000 f   read.obj
 0001:fffff000       __unwindfunclet$??$_Insert_string@DU?$char_traits@D@std@@I@std@@YAAAV?$basic_ostream@DU?$char_traits@D@std@@@0@AAV10@QBDI@Z$2 00400000 f   read.obj
 0001:fffff000       __unwindfunclet$??0sentry@?$basic_ostream@DU?$char_traits@D@std@@@std@@QAE@AAV12@@Z$0 00400000 f   read.obj
 0002:fff84000       __unwindtable$??0sentry@?$basic_ostream@DU?$char_traits@D@std@@@std@@QAE@AAV12@@Z 00400000     read.obj
 0002:fff84000       __unwindtable$??1sentry@?$basic_ostream@DU?$char_traits@D@std@@@std@@QAE@XZ 00400000     read.obj
 0000:fff6a000       .debug$S                   00400000     ucrt:api-ms-win-crt-convert-l1-1-0.dll
 0000:fff6a000       .debug$S                   00400000     ucrt:api-ms-win-crt-convert-l1-1-0.dll
 0000:fff6a000       .debug$S                   00400000     ucrt:api-ms-win-crt-convert-l1-1-0.dll
 0000:fff6a000       .debug$S                   00400000     ucrt:api-ms-win-crt-convert-l1-1-0.dll
 0000:fff6a000       .debug$S                   00400000     ucrt:api-ms-win-crt-convert-l1-1-0.dll
 0000:fff6a000       .debug$S                   00400000     ucrt:api-ms-win-crt-convert-l1-1-0.dll
 0000:fff6a000       .debug$S                   00400000     ucrt:api-ms-win-crt-environment-l1-1-0.dll
 0000:fff6a000       .debug$S                   00400000     ucrt:api-ms-win-crt-environment-l1-1-0.dll
 0000:fff6a000       .debug$S                   00400000     ucrt:api-ms-win-crt-environment-l1-1-0.dll
 0000:fff6a000       .debug$S                   00400000     ucrt:api-ms-win-crt-environment-l1-1-0.dll
 0000:fff6a000       .debug$S                   00400000     ucrt:api-ms-win-crt-filesystem-l1-1-0.dll
 0000:fff6a000       .debug$S                   00400000     ucrt:api-ms-win-crt-filesystem-l1-1-0.dll
 0000:fff6a000       .debug$S                   00400000     ucrt:api-ms-win-crt-filesystem-l1-1-0.dll
 0000:fff6a000       .debug$S                   00400000     ucrt:api-ms-win-crt-filesystem-l1-1-0.dll
 0000:fff6a000       .debug$S                   00400000     ucrt:api-ms-win-crt-filesystem-l1-1-0.dll
 0000:fff6a000       .debug$S                   00400000     ucrt:api-ms-win-crt-filesystem-l1-1-0.dll
 0000:fff6a000       .debug$S                   00400000     ucrt:api-ms-win-crt-filesystem-l1-1-0.dll
 0000:fff6a000       .debug$S                   00400000     ucrt:api-ms-win-crt-filesystem-l1-1-0.dll
 0000:fff6a000       .debug$S                   00400000     ucrt:api-ms-win-crt-filesystem-l1-1-0.dll
 0000:fff6a000       .debug$S                   00400000     ucrt:api-ms-win-crt-filesystem-l1-1-0.dll
 0000:fff6a000       .debug$S                   00400000     ucrt:api-ms-win-crt-filesystem-l1-1-0.dll
 0000:fff6a000       .debug$S                   00400000     ucrt:api-ms-win-crt-heap-l1-1-0.dll
 0000:fff6a000       .debug$S                   00400000     ucrt:api-ms-win-crt-heap-l1-1-0.dll
 0000:fff6a000       .debug$S                   00400000     ucrt:api-ms-win-crt-heap-l1-1-0.dll
 0000:fff6a000       .debug$S                   00400000     ucrt:api-ms-win-crt-heap-l1-1-0.dll
 0000:fff6a000       .debug$S                   00400000     ucrt:api-ms-win-crt-heap-l1-1-0.dll
 0000:fff6a000       .debug$S                   00400000     ucrt:api-ms-win-crt-heap-l1-1-0.dll
 0000:fff6a000       .debug$S                   00400000     ucrt:api-ms-win-crt-locale-l1-1-0.dll
 0000:fff6a000       .debug$S                   00400000     ucrt:api-ms-win-crt-locale-l1-1-0.dll
 0000:fff6a000       .debug$S                   00400000     ucrt:api-ms-win-crt-math-l1-1-0.dll
 0000:fff6a000       .debug$S                   00400000     ucrt:api-ms-win-crt-math-l1-1-0.dll
 0000:fff6a000       .debug$S                   00400000     ucrt:api-ms-win-crt-math-l1-1-0.dll
 0000:fff6a000       .debug$S                   00400000     ucrt:api-ms-win-crt-math-l1-1-0.dll
 0000:fff6a000       .debug$S                   00400000     ucrt:api-ms-win-crt-math-l1-1-0.dll
 0000:fff6a000       .debug$S                   00400000     ucrt:api-ms-win-crt-math-l1-1-0.dll
 0000:fff6a000       .debug$S                   00400000     ucrt:api-ms-win-crt-math-l1-1-0.dll
 0000:fff6a000       .debug$S                   00400000     ucrt:api-ms-win-crt-math-l1-1-0.dll
 0000:fff6a000       .debug$S                   00400000     ucrt:api-ms-win-crt-math-l1-1-0.dll
 0000:fff6a000       .debug$S                   00400000     ucrt:api-ms-win-crt-math-l1-1-0.dll
 0000:fff6a000       .debug$S                   00400000     ucrt:api-ms-win-crt-math-l1-1-0.dll
 0000:fff6a000       .debug$S                   00400000     ucrt:api-ms-win-crt-math-l1-1-0.dll
 0000:fff6a000       .debug$S                   00400000     ucrt:api-ms-win-crt-math-l1-1-0.dll
 0000:fff6a000       .debug$S                   00400000     ucrt:api-ms-win-crt-math-l1-1-0.dll
 0000:fff6a000       .debug$S                   00400000     ucrt:api-ms-win-crt-math-l1-1-0.dll
 0000:fff6a000       .debug$S                   00400000     ucrt:api-ms-win-crt-math-l1-1-0.dll
 0000:fff6a000       .debug$S                   00400000     ucrt:api-ms-win-crt-process-l1-1-0.dll
 0000:fff6a000       .debug$S                   00400000     ucrt:api-ms-win-crt-runtime-l1-1-0.dll
 0000:fff6a000       .debug$S                   00400000     ucrt:api-ms-win-crt-runtime-l1-1-0.dll
 0000:fff6a000       .debug$S                   00400000     ucrt:api-ms-win-crt-runtime-l1-1-0.dll
 0000:fff6a000       .debug$S                   00400000     ucrt:api-ms-win-crt-runtime-l1-1-0.dll
 0000:fff6a000       .debug$S                   00400000     ucrt:api-ms-win-crt-runtime-l1-1-0.dll
 0000:fff6a000       .debug$S                   00400000     ucrt:api-ms-win-crt-runtime-l1-1-0.dll
 0000:fff6a000       .debug$S                   00400000     ucrt:api-ms-win-crt-runtime-l1-1-0.dll
 0000:fff6a000       .debug$S                   00400000     ucrt:api-ms-win-crt-runtime-l1-1-0.dll
 0000:fff6a000       .debug$S                   00400000     ucrt:api-ms-win-crt-runtime-l1-1-0.dll
 0000:fff6a000       .debug$S                   00400000     ucrt:api-ms-win-crt-runtime-l1-1-0.dll
 0000:fff6a000       .debug$S                   00400000     ucrt:api-ms-win-crt-runtime-l1-1-0.dll
 0000:fff6a000       .debug$S                   00400000     ucrt:api-ms-win-crt-runtime-l1-1-0.dll
 0000:fff6a000       .debug$S                   00400000     ucrt:api-ms-win-crt-runtime-l1-1-0.dll
 0000:fff6a000       .debug$S                   00400000     ucrt:api-ms-win-crt-runtime-l1-1-0.dll
 0000:fff6a000       .debug$S                   00400000     ucrt:api-ms-win-crt-runtime-l1-1-0.dll
 0000:fff6a000       .debug$S                   00400000     ucrt:api-ms-win-crt-runtime-l1-1-0.dll
 0000:fff6a000       .debug$S                   00400000     ucrt:api-ms-win-crt-runtime-l1-1-0.dll
 0000:fff6a000       .debug$S                   00400000     ucrt:api-ms-win-crt-runtime-l1-1-0.dll
 0000:fff6a000       .debug$S                   00400000     ucrt:api-ms-win-crt-runtime-l1-1-0.dll
 0000:fff6a000       .debug$S                   00400000     ucrt:api-ms-win-crt-runtime-l1-1-0.dll
 0000:fff6a000       .debug$S                   00400000     ucrt:api-ms-win-crt-runtime-l1-1-0.dll
 0000:fff6a000       .debug$S                   00400000     ucrt:api-ms-win-crt-runtime-l1-1-0.dll
 0000:fff6a000       .debug$S                   00400000     ucrt:api-ms-win-crt-runtime-l1-1-0.dll
 0000:fff6a000       .debug$S                   00400000     ucrt:api-ms-win-crt-runtime-l1-1-0.dll
 0000:fff6a000       .debug$S                   00400000     ucrt:api-ms-win-crt-runtime-l1-1-0.dll
 0000:fff6a000       .debug$S                   00400000     ucrt:api-ms-win-crt-runtime-l1-1-0.dll
 0000:fff6a000       .debug$S                   00400000     ucrt:api-ms-win-crt-runtime-l1-1-0.dll
 0000:fff6a000       .debug$S                   00400000     ucrt:api-ms-win-crt-runtime-l1-1-0.dll
 0000:fff6a000       .debug$S                   00400000     ucrt:api-ms-win-crt-stdio-l1-1-0.dll
 0000:fff6a000       .debug$S                   00400000     ucrt:api-ms-win-crt-stdio-l1-1-0.dll
 0000:fff6a000       .debug$S                   00400000     ucrt:api-ms-win-crt-stdio-l1-1-0.dll
 0000:fff6a000       .debug$S                   00400000     ucrt:api-ms-win-crt-stdio-l1-1-0.dll
 0000:fff6a000       .debug$S                   00400000     ucrt:api-ms-win-crt-stdio-l1-1-0.dll
 0000:fff6a000       .debug$S                   00400000     ucrt:api-ms-win-crt-stdio-l1-1-0.dll
 0000:fff6a000       .debug$S                   00400000     ucrt:api-ms-win-crt-stdio-l1-1-0.dll
 0000:fff6a000       .debug$S                   00400000     ucrt:api-ms-win-crt-stdio-l1-1-0.dll
 0000:fff6a000       .debug$S                   00400000     ucrt:api-ms-win-crt-stdio-l1-1-0.dll
 0000:fff6a000       .debug$S                   00400000     ucrt:api-ms-win-crt-stdio-l1-1-0.dll
 0000:fff6a000       .debug$S                   00400000     ucrt:api-ms-win-crt-stdio-l1-1-0.dll
 0000:fff6a000       .debug$S                   00400000     ucrt:api-ms-win-crt-stdio-l1-1-0.dll
 0000:fff6a000       .debug$S                   00400000     ucrt:api-ms-win-crt-stdio-l1-1-0.dll
 0000:fff6a000       .debug$S                   00400000     ucrt:api-ms-win-crt-stdio-l1-1-0.dll
 0000:fff6a000       .debug$S                   00400000     ucrt:api-ms-win-crt-stdio-l1-1-0.dll
 0000:fff6a000       .debug$S                   00400000     ucrt:api-ms-win-crt-stdio-l1-1-0.dll
 0000:fff6a000       .debug$S                   00400000     ucrt:api-ms-win-crt-stdio-l1-1-0.dll
 0000:fff6a000       .debug$S                   00400000     ucrt:api-ms-win-crt-stdio-l1-1-0.dll
 0000:fff6a000       .debug$S                   00400000     ucrt:api-ms-win-crt-stdio-l1-1-0.dll
 0000:fff6a000       .debug$S                   00400000     ucrt:api-ms-win-crt-stdio-l1-1-0.dll
 0000:fff6a000       .debug$S                   00400000     ucrt:api-ms-win-crt-stdio-l1-1-0.dll
 0000:fff6a000       .debug$S                   00400000     ucrt:api-ms-win-crt-stdio-l1-1-0.dll
 0000:fff6a000       .debug$S                   00400000     ucrt:api-ms-win-crt-stdio-l1-1-0.dll
 0000:fff6a000       .debug$S                   00400000     ucrt:api-ms-win-crt-string-l1-1-0.dll
 0000:fff6a000       .debug$S                   00400000     ucrt:api-ms-win-crt-string-l1-1-0.dll
 0000:fff6a000       .debug$S                   00400000     ucrt:api-ms-win-crt-string-l1-1-0.dll
 0000:fff6a000       .debug$S                   00400000     ucrt:api-ms-win-crt-string-l1-1-0.dll
 0000:fff6a000       .debug$S                   00400000     ucrt:api-ms-win-crt-string-l1-1-0.dll
 0000:fff6a000       .debug$S                   00400000     ucrt:api-ms-win-crt-string-l1-1-0.dll
 0000:fff6a000       .debug$S                   00400000     ucrt:api-ms-win-crt-string-l1-1-0.dll
 0000:fff6a000       .debug$S                   00400000     ucrt:api-ms-win-crt-string-l1-1-0.dll
 0000:fff6a000       .debug$S                   00400000     ucrt:api-ms-win-crt-string-l1-1-0.dll
 0000:fff6a000       .debug$S                   00400000     ucrt:api-ms-win-crt-string-l1-1-0.dll
 0000:fff6a000       .debug$S                   00400000     ucrt:api-ms-win-crt-string-l1-1-0.dll
 0000:fff6a000       .debug$S                   00400000     ucrt:api-ms-win-crt-string-l1-1-0.dll
 0000:fff6a000       .debug$S                   00400000     ucrt:api-ms-win-crt-string-l1-1-0.dll
 0000:fff6a000       .debug$S                   00400000     ucrt:api-ms-win-crt-string-l1-1-0.dll
 0000:fff6a000       .debug$S                   00400000     ucrt:api-ms-win-crt-string-l1-1-0.dll
 0000:fff6a000       .debug$S                   00400000     ucrt:api-ms-win-crt-string-l1-1-0.dll
 0000:fff6a000       .debug$S                   00400000     ucrt:api-ms-win-crt-string-l1-1-0.dll
 0000:fff6a000       .debug$S                   00400000     ucrt:api-ms-win-crt-string-l1-1-0.dll
 0000:fff6a000       .debug$S                   00400000     ucrt:api-ms-win-crt-string-l1-1-0.dll
 0000:fff6a000       .debug$S                   00400000     ucrt:api-ms-win-crt-string-l1-1-0.dll
 0000:fff6a000       .debug$S                   00400000     ucrt:api-ms-win-crt-string-l1-1-0.dll
 0000:fff6a000       .debug$S                   00400000     ucrt:api-ms-win-crt-string-l1-1-0.dll
 0000:fff6a000       .debug$S                   00400000     ucrt:api-ms-win-crt-string-l1-1-0.dll
 0000:fff6a000       .debug$S                   00400000     ucrt:api-ms-win-crt-time-l1-1-0.dll
 0000:fff6a000       .debug$S                   00400000     ucrt:api-ms-win-crt-time-l1-1-0.dll
 0000:fff6a000       .debug$S                   00400000     ucrt:api-ms-win-crt-utility-l1-1-0.dll
 0000:fff6a000       .debug$S                   00400000     ucrt:api-ms-win-crt-utility-l1-1-0.dll
 0000:fff6a000       .debug$S                   00400000     ucrt:api-ms-win-crt-utility-l1-1-0.dll
 0000:fff6a000       .debug$S                   00400000     ucrt:api-ms-win-crt-utility-l1-1-0.dll
 0000:fff6a000       .debug$S                   00400000     advapi32:ADVAPI32.dll
 0000:fff6a000       .debug$S                   00400000     advapi32:ADVAPI32.dll
 0000:fff6a000       .debug$S                   00400000     advapi32:ADVAPI32.dll
 0000:fff6a000       .debug$S                   00400000     comctl32:COMCTL32.dll
 0000:fff6a000       .debug$S                   00400000     gdi32:GDI32.dll
 0000:fff6a000       .debug$S                   00400000     gdi32:GDI32.dll
 0000:fff6a000       .debug$S                   00400000     gdi32:GDI32.dll
 0000:fff6a000       .debug$S                   00400000     gdi32:GDI32.dll
 0000:fff6a000       .debug$S                   00400000     gdi32:GDI32.dll
 0000:fff6a000       .debug$S                   00400000     gdi32:GDI32.dll
 0000:fff6a000       .debug$S                   00400000     gdi32:GDI32.dll
 0000:fff6a000       .debug$S                   00400000     gdi32:GDI32.dll
 0000:fff6a000       .debug$S                   00400000     gdi32:GDI32.dll
 0000:fff6a000       .debug$S                   00400000     gdi32:GDI32.dll
 0000:fff6a000       .debug$S                   00400000     gdi32:GDI32.dll
 0000:fff6a000       .debug$S                   00400000     gdi32:GDI32.dll
 0000:fff6a000       .debug$S                   00400000     gdi32:GDI32.dll
 0000:fff6a000       .debug$S                   00400000     gdi32:GDI32.dll
 0000:fff6a000       .debug$S                   00400000     gdi32:GDI32.dll
 0000:fff6a000       .debug$S                   00400000     gdi32:GDI32.dll
 0000:fff6a000       .debug$S                   00400000     gdi32:GDI32.dll
 0000:fff6a000       .debug$S                   00400000     gdi32:GDI32.dll
 0000:fff6a000       .debug$S                   00400000     gdi32:GDI32.dll
 0000:fff6a000       .debug$S                   00400000     gdi32:GDI32.dll
 0000:fff6a000       .debug$S                   00400000     gdi32:GDI32.dll
 0000:fff6a000       .debug$S                   00400000     gdi32:GDI32.dll
 0000:fff6a000       .debug$S                   00400000     gdi32:GDI32.dll
 0000:fff6a000       .debug$S                   00400000     gdi32:GDI32.dll
 0000:fff6a000       .debug$S                   00400000     gdi32:GDI32.dll
 0000:fff6a000       .debug$S                   00400000     gdi32:GDI32.dll
 0000:fff6a000       .debug$S                   00400000     gdi32:GDI32.dll
 0000:fff6a000       .debug$S                   00400000     gdi32:GDI32.dll
 0000:fff6a000       .debug$S                   00400000     gdi32:GDI32.dll
 0000:fff6a000       .debug$S                   00400000     gdi32:GDI32.dll
 0000:fff6a000       .debug$S                   00400000     gdi32:GDI32.dll
 0000:fff6a000       .debug$S                   00400000     gdi32:GDI32.dll
 0000:fff6a000       .debug$S                   00400000     gdi32:GDI32.dll
 0000:fff6a000       .debug$S                   00400000     gdi32:GDI32.dll
 0000:fff6a000       .debug$S                   00400000     gdi32:GDI32.dll
 0000:fff6a000       .debug$S                   00400000     gdi32:GDI32.dll
 0000:fff6a000       .debug$S                   00400000     gdi32:GDI32.dll
 0000:fff6a000       .debug$S                   00400000     gdi32:GDI32.dll
 0000:fff6a000       .debug$S                   00400000     gdi32:GDI32.dll
 0000:fff6a000       .debug$S                   00400000     gdi32:GDI32.dll
 0000:fff6a000       .debug$S                   00400000     gdi32:GDI32.dll
 0000:fff6a000       .debug$S                   00400000     gdi32:GDI32.dll
 0000:fff6a000       .debug$S                   00400000     gdi32:GDI32.dll
 0000:fff6a000       .debug$S                   00400000     gdi32:GDI32.dll
 0000:fff6a000       .debug$S                   00400000     gdi32:GDI32.dll
 0000:fff6a000       .debug$S                   00400000     gdi32:GDI32.dll
 0000:fff6a000       .debug$S                   00400000     gdi32:GDI32.dll
 0000:fff6a000       .debug$S                   00400000     gdi32:GDI32.dll
 0000:fff6a000       .debug$S                   00400000     gdi32:GDI32.dll
 0000:fff6a000       .debug$S                   00400000     gdi32:GDI32.dll
 0000:fff6a000       .debug$S                   00400000     gdi32:GDI32.dll
 0000:fff6a000       .debug$S                   00400000     gdi32:GDI32.dll
 0000:fff6a000       .debug$S                   00400000     gdi32:GDI32.dll
 0000:fff6a000       .debug$S                   00400000     gdi32:GDI32.dll
 0000:fff6a000       .debug$S                   00400000     gdi32:GDI32.dll
 0000:fff6a000       .debug$S                   00400000     kernel32:KERNEL32.dll
 0000:fff6a000       .debug$S                   00400000     kernel32:KERNEL32.dll
 0000:fff6a000       .debug$S                   00400000     kernel32:KERNEL32.dll
 0000:fff6a000       .debug$S                   00400000     kernel32:KERNEL32.dll
 0000:fff6a000       .debug$S                   00400000     kernel32:KERNEL32.dll
 0000:fff6a000       .debug$S                   00400000     kernel32:KERNEL32.dll
 0000:fff6a000       .debug$S                   00400000     kernel32:KERNEL32.dll
 0000:fff6a000       .debug$S                   00400000     kernel32:KERNEL32.dll
 0000:fff6a000       .debug$S                   00400000     kernel32:KERNEL32.dll
 0000:fff6a000       .debug$S                   00400000     kernel32:KERNEL32.dll
 0000:fff6a000       .debug$S                   00400000     kernel32:KERNEL32.dll
 0000:fff6a000       .debug$S                   00400000     kernel32:KERNEL32.dll
 0000:fff6a000       .debug$S                   00400000     kernel32:KERNEL32.dll
 0000:fff6a000       .debug$S                   00400000     kernel32:KERNEL32.dll
 0000:fff6a000       .debug$S                   00400000     kernel32:KERNEL32.dll
 0000:fff6a000       .debug$S                   00400000     kernel32:KERNEL32.dll
 0000:fff6a000       .debug$S                   00400000     kernel32:KERNEL32.dll
 0000:fff6a000       .debug$S                   00400000     kernel32:KERNEL32.dll
 0000:fff6a000       .debug$S                   00400000     kernel32:KERNEL32.dll
 0000:fff6a000       .debug$S                   00400000     kernel32:KERNEL32.dll
 0000:fff6a000       .debug$S                   00400000     kernel32:KERNEL32.dll
 0000:fff6a000       .debug$S                   00400000     kernel32:KERNEL32.dll
 0000:fff6a000       .debug$S                   00400000     kernel32:KERNEL32.dll
 0000:fff6a000       .debug$S                   00400000     kernel32:KERNEL32.dll
 0000:fff6a000       .debug$S                   00400000     kernel32:KERNEL32.dll
 0000:fff6a000       .debug$S                   00400000     kernel32:KERNEL32.dll
 0000:fff6a000       .debug$S                   00400000     kernel32:KERNEL32.dll
 0000:fff6a000       .debug$S                   00400000     kernel32:KERNEL32.dll
 0000:fff6a000       .debug$S                   00400000     kernel32:KERNEL32.dll
 0000:fff6a000       .debug$S                   00400000     kernel32:KERNEL32.dll
 0000:fff6a000       .debug$S                   00400000     kernel32:KERNEL32.dll
 0000:fff6a000       .debug$S                   00400000     kernel32:KERNEL32.dll
 0000:fff6a000       .debug$S                   00400000     kernel32:KERNEL32.dll
 0000:fff6a000       .debug$S                   00400000     kernel32:KERNEL32.dll
 0000:fff6a000       .debug$S                   00400000     kernel32:KERNEL32.dll
 0000:fff6a000       .debug$S                   00400000     kernel32:KERNEL32.dll
 0000:fff6a000       .debug$S                   00400000     kernel32:KERNEL32.dll
 0000:fff6a000       .debug$S                   00400000     kernel32:KERNEL32.dll
 0000:fff6a000       .debug$S                   00400000     kernel32:KERNEL32.dll
 0000:fff6a000       .debug$S                   00400000     kernel32:KERNEL32.dll
 0000:fff6a000       .debug$S                   00400000     ole32:ole32.dll
 0000:fff6a000       .debug$S                   00400000     ole32:ole32.dll
 0000:fff6a000       .debug$S                   00400000     ole32:ole32.dll
 0000:fff6a000       .debug$S                   00400000     ole32:ole32.dll
 0000:fff6a000       .debug$S                   00400000     ole32:ole32.dll
 0000:fff6a000       .debug$S                   00400000     opengl32:OPENGL32.dll
 0000:fff6a000       .debug$S                   00400000     opengl32:OPENGL32.dll
 0000:fff6a000       .debug$S                   00400000     opengl32:OPENGL32.dll
 0000:fff6a000       .debug$S                   00400000     opengl32:OPENGL32.dll
 0000:fff6a000       .debug$S                   00400000     opengl32:OPENGL32.dll
 0000:fff6a000       .debug$S                   00400000     opengl32:OPENGL32.dll
 0000:fff6a000       .debug$S                   00400000     opengl32:OPENGL32.dll
 0000:fff6a000       .debug$S                   00400000     opengl32:OPENGL32.dll
 0000:fff6a000       .debug$S                   00400000     opengl32:OPENGL32.dll
 0000:fff6a000       .debug$S                   00400000     opengl32:OPENGL32.dll
 0000:fff6a000       .debug$S                   00400000     opengl32:OPENGL32.dll
 0000:fff6a000       .debug$S                   00400000     opengl32:OPENGL32.dll
 0000:fff6a000       .debug$S                   00400000     opengl32:OPENGL32.dll
 0000:fff6a000       .debug$S                   00400000     opengl32:OPENGL32.dll
 0000:fff6a000       .debug$S                   00400000     opengl32:OPENGL32.dll
 0000:fff6a000       .debug$S                   00400000     opengl32:OPENGL32.dll
 0000:fff6a000       .debug$S                   00400000     opengl32:OPENGL32.dll
 0000:fff6a000       .debug$S                   00400000     opengl32:OPENGL32.dll
 0000:fff6a000       .debug$S                   00400000     opengl32:OPENGL32.dll
 0000:fff6a000       .debug$S                   00400000     opengl32:OPENGL32.dll
 0000:fff6a000       .debug$S                   00400000     opengl32:OPENGL32.dll
 0000:fff6a000       .debug$S                   00400000     opengl32:OPENGL32.dll
 0000:fff6a000       .debug$S                   00400000     opengl32:OPENGL32.dll
 0000:fff6a000       .debug$S                   00400000     opengl32:OPENGL32.dll
 0000:fff6a000       .debug$S                   00400000     opengl32:OPENGL32.dll
 0000:fff6a000       .debug$S                   00400000     opengl32:OPENGL32.dll
 0000:fff6a000       .debug$S                   00400000     opengl32:OPENGL32.dll
 0000:fff6a000       .debug$S                   00400000     opengl32:OPENGL32.dll
 0000:fff6a000       .debug$S                   00400000     opengl32:OPENGL32.dll
 0000:fff6a000       .debug$S                   00400000     opengl32:OPENGL32.dll
 0000:fff6a000       .debug$S                   00400000     opengl32:OPENGL32.dll
 0000:fff6a000       .debug$S                   00400000     opengl32:OPENGL32.dll
 0000:fff6a000       .debug$S                   00400000     opengl32:OPENGL32.dll
 0000:fff6a000       .debug$S                   00400000     opengl32:OPENGL32.dll
 0000:fff6a000       .debug$S                   00400000     opengl32:OPENGL32.dll
 0000:fff6a000       .debug$S                   00400000     shell32:SHELL32.dll
 0000:fff6a000       .debug$S                   00400000     user32:USER32.dll
 0000:fff6a000       .debug$S                   00400000     user32:USER32.dll
 0000:fff6a000       .debug$S                   00400000     user32:USER32.dll
 0000:fff6a000       .debug$S                   00400000     user32:USER32.dll
 0000:fff6a000       .debug$S                   00400000     user32:USER32.dll
 0000:fff6a000       .debug$S                   00400000     user32:USER32.dll
 0000:fff6a000       .debug$S                   00400000     user32:USER32.dll
 0000:fff6a000       .debug$S                   00400000     user32:USER32.dll
 0000:fff6a000       .debug$S                   00400000     user32:USER32.dll
 0000:fff6a000       .debug$S                   00400000     user32:USER32.dll
 0000:fff6a000       .debug$S                   00400000     user32:USER32.dll
 0000:fff6a000       .debug$S                   00400000     user32:USER32.dll
 0000:fff6a000       .debug$S                   00400000     user32:USER32.dll
 0000:fff6a000       .debug$S                   00400000     user32:USER32.dll
 0000:fff6a000       .debug$S                   00400000     user32:USER32.dll
 0000:fff6a000       .debug$S                   00400000     user32:USER32.dll
 0000:fff6a000       .debug$S                   00400000     user32:USER32.dll
 0000:fff6a000       .debug$S                   00400000     user32:USER32.dll
 0000:fff6a000       .debug$S                   00400000     user32:USER32.dll
 0000:fff6a000       .debug$S                   00400000     user32:USER32.dll
 0000:fff6a000       .debug$S                   00400000     user32:USER32.dll
 0000:fff6a000       .debug$S                   00400000     user32:USER32.dll
 0000:fff6a000       .debug$S                   00400000     user32:USER32.dll
 0000:fff6a000       .debug$S                   00400000     user32:USER32.dll
 0000:fff6a000       .debug$S                   00400000     user32:USER32.dll
 0000:fff6a000       .debug$S                   00400000     user32:USER32.dll
 0000:fff6a000       .debug$S                   00400000     user32:USER32.dll
 0000:fff6a000       .debug$S                   00400000     user32:USER32.dll
 0000:fff6a000       .debug$S                   00400000     user32:USER32.dll
 0000:fff6a000       .debug$S                   00400000     user32:USER32.dll
 0000:fff6a000       .debug$S                   00400000     user32:USER32.dll
 0000:fff6a000       .debug$S                   00400000     user32:USER32.dll
 0000:fff6a000       .debug$S                   00400000     user32:USER32.dll
 0000:fff6a000       .debug$S                   00400000     user32:USER32.dll
 0000:fff6a000       .debug$S                   00400000     user32:USER32.dll
 0000:fff6a000       .debug$S                   00400000     user32:USER32.dll
 0000:fff6a000       .debug$S                   00400000     user32:USER32.dll
 0000:fff6a000       .debug$S                   00400000     user32:USER32.dll
 0000:fff6a000       .debug$S                   00400000     user32:USER32.dll
 0000:fff6a000       .debug$S                   00400000     user32:USER32.dll
 0000:fff6a000       .debug$S                   00400000     user32:USER32.dll
 0000:fff6a000       .debug$S                   00400000     user32:USER32.dll
 0000:fff6a000       .debug$S                   00400000     user32:USER32.dll
 0000:fff6a000       .debug$S                   00400000     user32:USER32.dll
 0000:fff6a000       .debug$S                   00400000     user32:USER32.dll
 0000:fff6a000       .debug$S                   00400000     user32:USER32.dll
 0000:fff6a000       .debug$S                   00400000     user32:USER32.dll
 0000:fff6a000       .debug$S                   00400000     user32:USER32.dll
 0000:fff6a000       .debug$S                   00400000     user32:USER32.dll
 0000:fff6a000       .debug$S                   00400000     user32:USER32.dll
 0000:fff6a000       .debug$S                   00400000     user32:USER32.dll
 0000:fff6a000       .debug$S                   00400000     user32:USER32.dll
 0000:fff6a000       .debug$S                   00400000     user32:USER32.dll
 0000:fff6a000       .debug$S                   00400000     user32:USER32.dll
 0000:fff6a000       .debug$S                   00400000     user32:USER32.dll
 0000:fff6a000       .debug$S                   00400000     user32:USER32.dll
 0000:fff6a000       .debug$S                   00400000     user32:USER32.dll
 0000:fff6a000       .debug$S                   00400000     user32:USER32.dll
 0000:fff6a000       .debug$S                   00400000     user32:USER32.dll
 0000:fff6a000       .debug$S                   00400000     user32:USER32.dll
 0000:fff6a000       .debug$S                   00400000     user32:USER32.dll
 0000:fff6a000       .debug$S                   00400000     user32:USER32.dll
 0000:fff6a000       .debug$S                   00400000     user32:USER32.dll
 0000:fff6a000       .debug$S                   00400000     user32:USER32.dll
 0000:fff6a000       .debug$S                   00400000     user32:USER32.dll
 0000:fff6a000       .debug$S                   00400000     user32:USER32.dll
 0000:fff6a000       .debug$S                   00400000     user32:USER32.dll
 0000:fff6a000       .debug$S                   00400000     user32:USER32.dll
 0000:fff6a000       .debug$S                   00400000     user32:USER32.dll
 0000:fff6a000       .debug$S                   00400000     user32:USER32.dll
 0000:fff6a000       .debug$S                   00400000     user32:USER32.dll
 0000:fff6a000       .debug$S                   00400000     user32:USER32.dll
 0000:fff6a000       .debug$S                   00400000     user32:USER32.dll
 0002:fff84000       __guard_fids___except_handler4 00400000     MSVCRT:chandler4gs.obj
 0002:fff84000       __guard_fids_?pre_c_initialization@@YAHXZ 00400000     MSVCRT:exe_winmain.obj
 0002:fff84000       __guard_fids__             00400000     MSVCRT:exe_winmain.obj
 0002:fff84000       __guard_fids__             00400000     MSVCRT:guard_support.obj
 0002:fff84000       __guard_fids__             00400000     MSVCRT:guard_support.obj
 0002:fff84000       __guard_fids___guard_icall_checks_enforced 00400000     MSVCRT:guard_support.obj
 0002:fff84000       __guard_fids__             00400000     MSVCRT:std_type_info_static.obj
 0002:fff84000       __guard_fids_?__scrt_initialize_thread_safe_statics@@YAHXZ 00400000     MSVCRT:thread_safe_statics.obj
 0002:fff84000       __guard_fids__             00400000     MSVCRT:thread_safe_statics.obj
 0002:fff84000       __guard_fids__             00400000     MSVCRT:throw_bad_alloc.obj
 0002:fff84000       __guard_fids__             00400000     MSVCRT:throw_bad_alloc.obj
 0002:fff84000       __guard_fids__             00400000     MSVCRT:throw_bad_alloc.obj
 0002:fff84000       __guard_fids__             00400000     MSVCRT:throw_bad_alloc.obj
 0002:fff84000       __guard_fids__             00400000     MSVCRT:throw_bad_alloc.obj
 0002:fff84000       __guard_fids__             00400000     MSVCRT:throw_bad_alloc.obj
 0002:fff84000       __guard_fids__             00400000     MSVCRT:throw_bad_alloc.obj
 0002:fff84000       __guard_fids__             00400000     MSVCRT:throw_bad_alloc.obj
 0002:fff84000       __guard_fids____scrt_set_unhandled_exception_filter 00400000     MSVCRT:utility_desktop.obj
 0000:fff6a000       .debug$S                   00400000     msvcprt:MSVCP140.dll
 0000:fff6a000       .debug$S                   00400000     msvcprt:MSVCP140.dll
 0000:fff6a000       .debug$S                   00400000     msvcprt:MSVCP140.dll
 0000:fff6a000       .debug$S                   00400000     msvcprt:MSVCP140.dll
 0000:fff6a000       .debug$S                   00400000     msvcprt:MSVCP140.dll
 0000:fff6a000       .debug$S                   00400000     msvcprt:MSVCP140.dll
 0000:fff6a000       .debug$S                   00400000     msvcprt:MSVCP140.dll
 0000:fff6a000       .debug$S                   00400000     msvcprt:MSVCP140.dll
 0000:fff6a000       .debug$S                   00400000     msvcprt:MSVCP140.dll
 0000:fff6a000       .debug$S                   00400000     msvcprt:MSVCP140.dll
 0000:fff6a000       .debug$S                   00400000     msvcprt:MSVCP140.dll
 0000:fff6a000       .debug$S                   00400000     msvcprt:MSVCP140.dll
 0000:fff6a000       .debug$S                   00400000     msvcprt:MSVCP140.dll
 0000:fff6a000       .debug$S                   00400000     msvcprt:MSVCP140.dll
 0000:fff6a000       .debug$S                   00400000     msvcprt:MSVCP140.dll
 0000:fff6a000       .debug$S                   00400000     msvcprt:MSVCP140.dll
 0000:fff6a000       .debug$S                   00400000     msvcprt:MSVCP140.dll
 0000:fff6a000       .debug$S                   00400000     msvcprt:MSVCP140.dll
 0000:fff6a000       .debug$S                   00400000     msvcprt:MSVCP140.dll
 0000:fff6a000       .debug$S                   00400000     msvcprt:MSVCP140.dll
 0000:fff6a000       .debug$S                   00400000     msvcprt:MSVCP140.dll
 0000:fff6a000       .debug$S                   00400000     msvcprt:MSVCP140.dll
 0000:fff6a000       .debug$S                   00400000     msvcprt:MSVCP140.dll
 0000:fff6a000       .debug$S                   00400000     msvcprt:MSVCP140.dll
 0000:fff6a000       .debug$S                   00400000     msvcprt:MSVCP140.dll
 0000:fff6a000       .debug$S                   00400000     msvcprt:MSVCP140.dll
 0000:fff6a000       .debug$S                   00400000     msvcprt:MSVCP140.dll
 0000:fff6a000       .debug$S                   00400000     msvcprt:MSVCP140.dll
 0000:fff6a000       .debug$S                   00400000     msvcprt:MSVCP140.dll
 0000:fff6a000       .debug$S                   00400000     msvcprt:MSVCP140.dll
 0000:fff6a000       .debug$S                   00400000     msvcprt:MSVCP140.dll
 0000:fff6a000       .debug$S                   00400000     msvcprt:MSVCP140.dll
 0000:fff6a000       .debug$S                   00400000     msvcprt:MSVCP140.dll
 0000:fff6a000       .debug$S                   00400000     msvcprt:MSVCP140.dll
 0000:fff6a000       .debug$S                   00400000     msvcprt:MSVCP140.dll
 0000:fff6a000       .debug$S                   00400000     msvcprt:MSVCP140.dll
 0000:fff6a000       .debug$S                   00400000     msvcprt:MSVCP140.dll
 0000:fff6a000       .debug$S                   00400000     msvcprt:MSVCP140.dll
 0000:fff6a000       .debug$S                   00400000     msvcprt:MSVCP140.dll
 0000:fff6a000       .debug$S                   00400000     msvcprt:MSVCP140.dll
 0000:fff6a000       .debug$S                   00400000     msvcprt:MSVCP140.dll
 0000:fff6a000       .debug$S                   00400000     msvcprt:MSVCP140.dll
 0000:fff6a000       .debug$S                   00400000     msvcprt:MSVCP140.dll
 0000:fff6a000       .debug$S                   00400000     msvcprt:MSVCP140.dll
 0000:fff6a000       .debug$S                   00400000     msvcprt:MSVCP140.dll
 0000:fff6a000       .debug$S                   00400000     msvcprt:MSVCP140.dll
 0000:fff6a000       .debug$S                   00400000     msvcprt:MSVCP140.dll
 0000:fff6a000       .debug$S                   00400000     msvcprt:MSVCP140.dll
 0000:fff6a000       .debug$S                   00400000     msvcprt:MSVCP140.dll
 0000:fff6a000       .debug$S                   00400000     msvcprt:MSVCP140.dll
 0000:fff6a000       .debug$S                   00400000     msvcprt:MSVCP140.dll
 0002:fff84000       __guard_fids_??__F_Fac_tidy_reg@std@@YAXXZ 00400000     msvcprt:locale0_implib.obj
 0002:fff84000       __guard_fids__             00400000     msvcprt:locale0_implib.obj
 0000:fff6a000       .debug$S                   00400000     vcruntime:VCRUNTIME140.dll
 0000:fff6a000       .debug$S                   00400000     vcruntime:VCRUNTIME140.dll
 0000:fff6a000       .debug$S                   00400000     vcruntime:VCRUNTIME140.dll
 0000:fff6a000       .debug$S                   00400000     vcruntime:VCRUNTIME140.dll
 0000:fff6a000       .debug$S                   00400000     vcruntime:VCRUNTIME140.dll
 0000:fff6a000       .debug$S                   00400000     vcruntime:VCRUNTIME140.dll
 0000:fff6a000       .debug$S                   00400000     vcruntime:VCRUNTIME140.dll
 0000:fff6a000       .debug$S                   00400000     vcruntime:VCRUNTIME140.dll
 0000:fff6a000       .debug$S                   00400000     vcruntime:VCRUNTIME140.dll
 0000:fff6a000       .debug$S                   00400000     vcruntime:VCRUNTIME140.dll
 0000:fff6a000       .debug$S                   00400000     vcruntime:VCRUNTIME140.dll
 0000:fff6a000       .debug$S                   00400000     vcruntime:VCRUNTIME140.dll
 0000:fff6a000       .debug$S                   00400000     vcruntime:VCRUNTIME140.dll
 0000:fff6a000       .debug$S                   00400000     vcruntime:VCRUNTIME140.dll
 0000:fff6a000       .debug$S                   00400000     vcruntime:VCRUNTIME140.dll
 0000:fff6a000       .debug$S                   00400000     vcruntime:VCRUNTIME140.dll
 0000:fff6a000       .debug$S                   00400000     vcruntime:VCRUNTIME140.dll
 0002:fff84000       __ehfuncinfo$??1Fl_Browser@@UAE@XZ 00400000     fltk:Fl_Browser.obj
 0001:fffff000       __ehhandler$??1Fl_Browser@@UAE@XZ 00400000 f   fltk:Fl_Browser.obj
 0001:fffff000       __unwindfunclet$??0Fl_Pixmap@@QAE@PBQAD@Z$0 00400000 f   fltk:Fl_XPM_Image.obj
 0002:fff84000       __unwindtable$??0Fl_Pixmap@@QAE@PBQAD@Z 00400000     fltk:Fl_XPM_Image.obj
 0001:fffff000       __unwindfunclet$??0Fl_Pixmap@@QAE@PBQBD@Z$0 00400000 f   fltk:Fl_get_system_colors.obj
 0002:fff84000       __unwindtable$??0Fl_Pixmap@@QAE@PBQBD@Z 00400000     fltk:Fl_get_system_colors.obj
 0001:fffff000       __unwindfunclet$??0Fl_Pixmap@@QAE@PBQBD@Z$0 00400000 f   fltk:fl_cursor.obj
 0002:fff84000       __unwindtable$??0Fl_Pixmap@@QAE@PBQBD@Z 00400000     fltk:fl_cursor.obj
 0002:fff84004       __guard_fids__             00400004     MSVCRT:exe_winmain.obj
 0002:fff84008       __ehfuncinfo$??0sentry@?$basic_ostream@DU?$char_traits@D@std@@@std@@QAE@AAV12@@Z 00400008     read.obj
 0002:fff84008       __ehfuncinfo$??1sentry@?$basic_ostream@DU?$char_traits@D@std@@@std@@QAE@XZ 00400008     read.obj
 0001:fffff008       __ehhandler$??$?6U?$char_traits@D@std@@@std@@YAAAV?$basic_ostream@DU?$char_traits@D@std@@@0@AAV10@PBD@Z 00400008 f   read.obj
 0001:fffff008       __ehhandler$??$_Insert_string@DU?$char_traits@D@std@@I@std@@YAAAV?$basic_ostream@DU?$char_traits@D@std@@@0@AAV10@QBDI@Z 00400008 f   read.obj
 0001:fffff008       __ehhandler$??0sentry@?$basic_ostream@DU?$char_traits@D@std@@@std@@QAE@AAV12@@Z 00400008 f   read.obj
 0002:fff84008       __guard_fids__             00400008     MSVCRT:exe_winmain.obj
 0002:fff84008       __ehfuncinfo$??0Fl_Pixmap@@QAE@PBQAD@Z 00400008     fltk:Fl_XPM_Image.obj
 0001:fffff008       __ehhandler$??0Fl_Pixmap@@QAE@PBQAD@Z 00400008 f   fltk:Fl_XPM_Image.obj
 0002:fff84008       __ehfuncinfo$??0Fl_Pixmap@@QAE@PBQBD@Z 00400008     fltk:Fl_get_system_colors.obj
 0001:fffff008       __ehhandler$??0Fl_Pixmap@@QAE@PBQBD@Z 00400008 f   fltk:Fl_get_system_colors.obj
 0002:fff84008       __ehfuncinfo$??0Fl_Pixmap@@QAE@PBQBD@Z 00400008     fltk:fl_cursor.obj
 0001:fffff008       __ehhandler$??0Fl_Pixmap@@QAE@PBQBD@Z 00400008 f   fltk:fl_cursor.obj
 0002:fff84010       __tryblocktable$??$?6U?$char_traits@D@std@@@std@@YAAAV?$basic_ostream@DU?$char_traits@D@std@@@0@AAV10@PBD@Z 00400010     read.obj
 0002:fff84010       __tryblocktable$??$_Insert_string@DU?$char_traits@D@std@@I@std@@YAAAV?$basic_ostream@DU?$char_traits@D@std@@@0@AAV10@QBDI@Z 00400010     read.obj
 0002:fff84024       __ehfuncinfo$??$?6U?$char_traits@D@std@@@std@@YAAAV?$basic_ostream@DU?$char_traits@D@std@@@0@AAV10@PBD@Z 00400024     read.obj
 0002:fff84024       __ehfuncinfo$??$_Insert_string@DU?$char_traits@D@std@@I@std@@YAAAV?$basic_ostream@DU?$char_traits@D@std@@@0@AAV10@QBDI@Z 00400024     read.obj
 0002:fff84048       __unwindtable$??$?6U?$char_traits@D@std@@@std@@YAAAV?$basic_ostream@DU?$char_traits@D@std@@@0@AAV10@PBD@Z 00400048     read.obj
 0002:fff84048       __unwindtable$??$_Insert_string@DU?$char_traits@D@std@@I@std@@YAAAV?$basic_ostream@DU?$char_traits@D@std@@@0@AAV10@QBDI@Z 00400048     read.obj
 0001:fffff126       __catch$??$_Insert_string@DU?$char_traits@D@std@@I@std@@YAAAV?$basic_ostream@DU?$char_traits@D@std@@@0@AAV10@QBDI@Z$0 00400126 f   read.obj
 0001:fffff165       __catch$??$?6U?$char_traits@D@std@@@std@@YAAAV?$basic_ostream@DU?$char_traits@D@std@@@0@AAV10@PBD@Z$0 00400165 f   read.obj
 0001:00000000       ??__Efl_display@@YAXXZ     00401000 f   fltk:Fl.obj
 0001:00000020       ??__Efl_gdi_display@@YAXXZ 00401020 f   fltk:Fl.obj
 0001:00000050       ??__Efl_gdi_driver@@YAXXZ  00401050 f   fltk:Fl.obj
 0001:00000080       ??__Ewin32_at_exit@@YAXXZ  00401080 f   fltk:Fl.obj
 0001:000000a0       ??__Ecurrent_label@@YAXXZ  004010a0 f   fltk:fl_file_dir.obj
 0001:000000b0       ??__E?color_@Fl_Tooltip@@0IA@@YAXXZ 004010b0 f   fltk:Fl_Tooltip.obj
 0001:000000d0       ??__Etile@@YAXXZ           004010d0 f   fltk:Fl_get_system_colors.obj
 0001:00000100       ??__EflDropTarget@@YAXXZ   00401100 f   fltk:fl_dnd.obj
 0001:00000130       ??__Eimage_new@@YAXXZ      00401130 f   fltk:Fl_File_Chooser.obj
 0001:00000160       ??__E?prefs_@Fl_File_Chooser@@0VFl_Preferences@@A@@YAXXZ 00401160 f   fltk:Fl_File_Chooser2.obj
 0001:00000190       ??__EGl_Device_Plugin@@YAXXZ 00401190 f   fltkgl:Fl_Gl_Device_Plugin.obj
 0001:000001ca       ??__F_Fac_tidy_reg@std@@YAXXZ 004011ca f   msvcprt:locale0_implib.obj
 0001:000004ac       $LN17                      004014ac     main.obj
 0001:000004c0       $LN16                      004014c0     main.obj
 0001:000007fc       $LN35                      004017fc     main.obj
 0001:00000810       $LN34                      00401810     main.obj
 0001:00000820       ?RayTracing_SuperSampling_getSample_grid@@YA_NPAVvec2f@@0H@Z 00401820 f   RayTracer.obj
 0001:000008e0       ?RayTracing_SuperSampling_getSample_random@@YA_NPAVvec2f@@0H@Z 004018e0 f   RayTracer.obj
 0001:000009a0       ?RayTracing_SuperSampling_getSample_jittered@@YA_NPAVvec2f@@0H@Z 004019a0 f   RayTracer.obj
 0001:000012a0       ?Linker_tracer@@YA?AVvec3f@@NNPAX@Z 004022a0 f   RayTracer.obj
 0001:000012d0       ?RayTracing_SuperSampling_adaptive@@YA?AVvec3f@@PAVvec2f@@0HP6A?AV1@NNPAX@Z1@Z 004022d0 f   RayTracer.obj
 0001:00001de9       __catch$?loadScene@RayTracer@@QAE_NPAD@Z$0 00402de9 f   RayTracer.obj
 0001:00005420       ?FL_createValueSlider@@YAPAVFl_Value_Slider@@PAVGraphic_Rect@@PAVGraphic_FontOption@@PAVGraphic_Range@@IPAXP6AXPAVFl_Widget@@3@Z@Z 00406420 f   TraceUI.obj
 0001:00006051       __catch$??$?6U?$char_traits@D@std@@@std@@YAAAV?$basic_ostream@DU?$char_traits@D@std@@@0@AAV10@D@Z$0 00407051 f i parse.obj
 0001:00006255       __catch$??$?6U?$char_traits@D@std@@@std@@YAAAV?$basic_ostream@DU?$char_traits@D@std@@@0@AAV10@PBD@Z$0 00407255 f i parse.obj
 0001:000065be       __catch$??$_Copy_nodes@U_Copy_tag@?$_Tree@V?$_Tmap_traits@V?$basic_string@DU?$char_traits@D@std@@V?$allocator@D@2@@std@@PAVObj@@U?$less@V?$basic_string@DU?$char_traits@D@std@@V?$allocator@D@2@@std@@@2@V?$allocator@U?$pair@$$CBV?$basic_string@DU?$char_traits@D@std@@V?$allocator@D@2@@std@@PAVObj@@@std@@@2@$0A@@std@@@std@@@?$_Tree@V?$_Tmap_traits@V?$basic_string@DU?$char_traits@D@std@@V?$allocator@D@2@@std@@PAVObj@@U?$less@V?$basic_string@DU?$char_traits@D@std@@V?$allocator@D@2@@std@@@2@V?$allocator@U?$pair@$$CBV?$basic_string@DU?$char_traits@D@std@@V?$allocator@D@2@@std@@PAVObj@@@std@@@2@$0A@@std@@@std@@IAEPAU?$_Tree_node@U?$pair@$$CBV?$basic_string@DU?$char_traits@D@std@@V?$allocator@D@2@@std@@PAVObj@@@std@@PAX@1@PAU21@0U_Copy_tag@01@@Z$0 004075be f i parse.obj
 0001:00006956       __catch$??$_Insert_string@DU?$char_traits@D@std@@I@std@@YAAAV?$basic_ostream@DU?$char_traits@D@std@@@0@AAV10@QBDI@Z$0 00407956 f i parse.obj
 0001:00007db0       ?eat@@YA_NAAV?$basic_istream@DU?$char_traits@D@std@@@std@@@Z 00408db0 f   parse.obj
 0001:000089e0       ?readDict@@YAPAVObj@@AAV?$basic_istream@DU?$char_traits@D@std@@@std@@@Z 004099e0 f   parse.obj
 0001:00008e70       ?readID@@YA?AV?$basic_string@DU?$char_traits@D@std@@V?$allocator@D@2@@std@@AAV?$basic_istream@DU?$char_traits@D@std@@@2@@Z 00409e70 f   parse.obj
 0001:00009180       ?readName@@YAPAVObj@@AAV?$basic_istream@DU?$char_traits@D@std@@@std@@@Z 0040a180 f   parse.obj
 0001:00009350       ?readObject@@YAPAVObj@@AAV?$basic_istream@DU?$char_traits@D@std@@@std@@@Z 0040a350 f   parse.obj
 0001:000093d0       ?readScalar@@YAPAVObj@@AAV?$basic_istream@DU?$char_traits@D@std@@@std@@@Z 0040a3d0 f   parse.obj
 0001:00009650       ?readString@@YAPAVObj@@AAV?$basic_istream@DU?$char_traits@D@std@@@std@@@Z 0040a650 f   parse.obj
 0001:00009960       ?readTuple@@YAPAVObj@@AAV?$basic_istream@DU?$char_traits@D@std@@@std@@@Z 0040a960 f   parse.obj
 0001:0000c8a0       ?getColorField@@YAPAVObj@@PAV1@@Z 0040d8a0 f   read.obj
 0001:0000c9d0       ?getField@@YAPAVObj@@PAV1@ABV?$basic_string@DU?$char_traits@D@std@@V?$allocator@D@2@@std@@@Z 0040d9d0 f   read.obj
 0001:0000cb00       ?getMaterial@@YAPAVMaterial@@PAVObj@@ABV?$map@V?$basic_string@DU?$char_traits@D@std@@V?$allocator@D@2@@std@@PAVMaterial@@U?$less@V?$basic_string@DU?$char_traits@D@std@@V?$allocator@D@2@@std@@@2@V?$allocator@U?$pair@$$CBV?$basic_string@DU?$char_traits@D@std@@V?$allocator@D@2@@std@@PAVMaterial@@@std@@@2@@std@@@Z 0040db00 f   read.obj
 0001:0000ccf0       ?maybeExtractField@@YA_NPAVObj@@ABV?$basic_string@DU?$char_traits@D@std@@V?$allocator@D@2@@std@@AAN@Z 0040dcf0 f   read.obj
 0001:0000cd50       ?maybeExtractField@@YA_NPAVObj@@ABV?$basic_string@DU?$char_traits@D@std@@V?$allocator@D@2@@std@@AA_N@Z 0040dd50 f   read.obj
 0001:0000d190       ?processCamera@@YAXPAVObj@@PAVScene@@@Z 0040e190 f   read.obj
 0001:0000daa0       ?processGeometry@@YAXPAVObj@@PAVScene@@ABV?$map@V?$basic_string@DU?$char_traits@D@std@@V?$allocator@D@2@@std@@PAVMaterial@@U?$less@V?$basic_string@DU?$char_traits@D@std@@V?$allocator@D@2@@std@@@2@V?$allocator@U?$pair@$$CBV?$basic_string@DU?$char_traits@D@std@@V?$allocator@D@2@@std@@PAVMaterial@@@std@@@2@@std@@PAVTransformNode@@@Z 0040eaa0 f   read.obj
 0001:0000ddc0       ?processGeometry@@YAXV?$basic_string@DU?$char_traits@D@std@@V?$allocator@D@2@@std@@PAVObj@@PAVScene@@ABV?$map@V?$basic_string@DU?$char_traits@D@std@@V?$allocator@D@2@@std@@PAVMaterial@@U?$less@V?$basic_string@DU?$char_traits@D@std@@V?$allocator@D@2@@std@@@2@V?$allocator@U?$pair@$$CBV?$basic_string@DU?$char_traits@D@std@@V?$allocator@D@2@@std@@PAVMaterial@@@std@@@2@@2@PAVTransformNode@@@Z 0040edc0 f   read.obj
 0001:0000edc0       ?processMaterial@@YAPAVMaterial@@PAVObj@@PAV?$map@V?$basic_string@DU?$char_traits@D@std@@V?$allocator@D@2@@std@@PAVMaterial@@U?$less@V?$basic_string@DU?$char_traits@D@std@@V?$allocator@D@2@@std@@@2@V?$allocator@U?$pair@$$CBV?$basic_string@DU?$char_traits@D@std@@V?$allocator@D@2@@std@@PAVMaterial@@@std@@@2@@std@@@Z 0040fdc0 f   read.obj
 0001:0000fca0       ?processObject@@YAXPAVObj@@PAVScene@@AAV?$map@V?$basic_string@DU?$char_traits@D@std@@V?$allocator@D@2@@std@@PAVMaterial@@U?$less@V?$basic_string@DU?$char_traits@D@std@@V?$allocator@D@2@@std@@@2@V?$allocator@U?$pair@$$CBV?$basic_string@DU?$char_traits@D@std@@V?$allocator@D@2@@std@@PAVMaterial@@@std@@@2@@std@@@Z 00410ca0 f   read.obj
 0001:00010960       ?processTrimesh@@YAXV?$basic_string@DU?$char_traits@D@std@@V?$allocator@D@2@@std@@PAVObj@@PAVScene@@ABV?$map@V?$basic_string@DU?$char_traits@D@std@@V?$allocator@D@2@@std@@PAVMaterial@@U?$less@V?$basic_string@DU?$char_traits@D@std@@V?$allocator@D@2@@std@@@2@V?$allocator@U?$pair@$$CBV?$basic_string@DU?$char_traits@D@std@@V?$allocator@D@2@@std@@PAVMaterial@@@std@@@2@@2@PAVTransformNode@@@Z 00411960 f   read.obj
 0001:0001157d       __catch$?readScene@@YAPAVScene@@ABV?$basic_string@DU?$char_traits@D@std@@V?$allocator@D@2@@std@@@Z$0 0041257d f   read.obj
 0001:00011b60       ?tupleToVec@@YA?AVvec3f@@PAVObj@@@Z 00412b60 f   read.obj
 0001:00011f80       ?verifyTuple@@YAXABV?$vector@PAVObj@@V?$allocator@PAVObj@@@std@@@std@@I@Z 00412f80 f   read.obj
 0001:00013fd0       ?RayTrace_PhongModel_getAmbientLightIntensity@@YA?AVvec3f@@PAVScene@@ABV1@@Z 00414fd0 f   material.obj
 0001:0001a3a0       $LN180                     0041b3a0     fltk:Fl.obj
 0001:0001c21c       $LN126                     0041d21c     fltk:Fl.obj
 0001:0001e2e0       $LN22                      0041f2e0     fltk:Fl.obj
 0001:0001e310       $LN21                      0041f310     fltk:Fl.obj
 0001:0001f410       ?run_checks@@YAXXZ         00420410 f   fltk:Fl.obj
 0001:0001fa10       ?send_handlers@@YAHH@Z     00420a10 f   fltk:Fl.obj
 0001:0001faa0       ?nothing@@YAXPAVFl_Widget@@@Z 00420aa0 f   fltk:Fl.obj
 0001:0001fd60       ?send@@YAHHPAVFl_Widget@@PAVFl_Window@@@Z 00420d60 f   fltk:Fl.obj
 0001:00020560       ?fl_clipboard_notify_target@@YAXPAUHWND__@@@Z 00421560 f   fltk:Fl.obj
 0001:00020590       ?fl_clipboard_notify_untarget@@YAXPAUHWND__@@@Z 00421590 f   fltk:Fl.obj
 0001:00020670       ?get_wsock_mod@@YAPAUHINSTANCE__@@XZ 00421670 f   fltk:Fl.obj
 0001:000206e0       ?get_imm_module@@YAXXZ     004216e0 f   fltk:Fl.obj
 0001:00020770       ?nothing@@YAXXZ            00421770 f   fltk:Fl.obj
 0001:00020840       ?mouse_event@@YAHPAVFl_Window@@HHIJ@Z 00421840 f   fltk:Fl.obj
 0001:00020af0       ?ms2fltk@@YAHIH@Z          00421af0 f   fltk:Fl.obj
 0001:00020c70       ?realloc_timers@@YAXXZ     00421c70 f   fltk:Fl.obj
 0001:00020d20       ?delete_timer@@YAXAAUWin32Timer@@@Z 00421d20 f   fltk:Fl.obj
 0001:00020d50       ?WndProc@@YGJPAUHWND__@@IIJ@Z 00421d50 f   fltk:Fl.obj
 0001:00021adc       $LN178                     00422adc     fltk:Fl.obj
 0001:00021b1c       $LN175                     00422b1c     fltk:Fl.obj
 0001:00021ba4       $LN179                     00422ba4     fltk:Fl.obj
 0001:00021bbc       $LN180                     00422bbc     fltk:Fl.obj
 0001:00021bf4       $LN176                     00422bf4     fltk:Fl.obj
 0001:00021c98       $LN181                     00422c98     fltk:Fl.obj
 0001:00021cac       $LN177                     00422cac     fltk:Fl.obj
 0001:00021cb8       $LN182                     00422cb8     fltk:Fl.obj
 0001:00021d00       ?s_TimerProc@@YGJPAUHWND__@@IIJ@Z 00422d00 f   fltk:Fl.obj
 0001:00021e30       ?image_to_icon@@YAPAUHICON__@@PBVFl_RGB_Image@@_NHH@Z 00422e30 f   fltk:Fl.obj
 0001:000222b8       $LN47                      004232b8     fltk:Fl.obj
 0001:000222d0       ?find_best_icon@@YAPBVFl_RGB_Image@@HQAPBV1@H@Z 004232d0 f   fltk:Fl.obj
 0001:00022a98       $LN10                      00423a98     fltk:fl_ask.obj
 0001:00022d60       ?button_cb@@YAXPAVFl_Widget@@J@Z 00423d60 f   fltk:fl_ask.obj
 0001:00022d80       ?makeform@@YAPAVFl_Window@@XZ 00423d80 f   fltk:fl_ask.obj
 0001:000231e0       ?resizeform@@YAXXZ         004241e0 f   fltk:fl_ask.obj
 0001:000235e0       ?innards@@YAHPBDPAD000@Z   004245e0 f   fltk:fl_ask.obj
 0001:00023aa0       ?input_innards@@YAPBDPBDPAD0E@Z 00424aa0 f   fltk:fl_ask.obj
 0001:000248e4       $LN39                      004258e4     fltk:Fl_Widget.obj
 0001:000248ec       $LN38                      004258ec     fltk:Fl_Widget.obj
 0001:000250b0       ?cleanup_readqueue@@YAXPAVFl_Widget@@@Z 004260b0 f   fltk:Fl_Widget.obj
 0001:00025360       $LN49                      00426360     fltk:Fl_Group.obj
 0001:00026638       $LN202                     00427638     fltk:Fl_Group.obj
 0001:00026668       $LN200                     00427668     fltk:Fl_Group.obj
 0001:00026680       $LN203                     00427680     fltk:Fl_Group.obj
 0001:00027620       ?send@@YAHPAVFl_Widget@@H@Z 00428620 f   fltk:Fl_Group.obj
 0001:00027740       ?navkey@@YAHXZ             00428740 f   fltk:Fl_Group.obj
 0001:000277c0       $LN20                      004287c0     fltk:Fl_Group.obj
 0001:000277d8       $LN19                      004287d8     fltk:Fl_Group.obj
 0001:00029308       $LN36                      0042a308     fltk:Fl_Menu_Bar.obj
 0001:00029318       $LN35                      0042a318     fltk:Fl_Menu_Bar.obj
 0001:0002a9c0       $LN148                     0042b9c0     fltk:Fl_Button.obj
 0001:0002b764       $LN235                     0042c764     fltk:Fl_Light_Button.obj
 0001:0002b770       $LN234                     0042c770     fltk:Fl_Light_Button.obj
 0001:0002b790       $LN236                     0042c790     fltk:Fl_Light_Button.obj
 0001:0002c2f8       $LN84                      0042d2f8     fltk:Fl_Choice.obj
 0001:0002c310       $LN83                      0042d310     fltk:Fl_Choice.obj
 0001:0002c970       ?callback@@YAXPAVFl_File_Chooser@@PAX@Z 0042d970 f   fltk:fl_file_dir.obj
 0001:0002dc60       _mk_wcwidth                0042ec60 f   fltk:fl_utf.obj
 0001:0002ddb0       _bisearch                  0042edb0 f   fltk:fl_utf.obj
 0001:0002e220       ?screen_cb@@YGHPAUHMONITOR__@@PAUHDC__@@PAUtagRECT@@J@Z 0042f220 f   fltk:screen_xywh.obj
 0001:0002e350       ?screen_init@@YAXXZ        0042f350 f   fltk:screen_xywh.obj
 0001:0002e450       ?fl_intersection@@YAMHHHHHHHH@Z 0042f450 f   fltk:screen_xywh.obj
 0001:0002e760       ?lock_ring@@YAXXZ          0042f760 f   fltk:Fl_lock.obj
 0001:0002e7a0       ?unlock_ring@@YAXXZ        0042f7a0 f   fltk:Fl_lock.obj
 0001:0002e7c0       ?unlock_function@@YAXXZ    0042f7c0 f   fltk:Fl_lock.obj
 0001:0002e7d0       ?lock_function@@YAXXZ      0042f7d0 f   fltk:Fl_lock.obj
 0001:00030c10       ?start@@YAHPAVFl_RGB_Image@@HHHHHHAAH11111@Z 00431c10 f   fltk:Fl_Image.obj
 0001:00031490       ?recent_timeout@@YAXPAX@Z  00432490 f   fltk:Fl_Tooltip.obj
 0001:000314a0       ?tooltip_timeout@@YAXPAX@Z 004324a0 f   fltk:Fl_Tooltip.obj
 0001:00031f40       ?clear_xmap@@YAXAAUFl_XMap@@@Z 00432f40 f   fltk:fl_color.obj
 0001:00031fb0       ?set_xmap@@YAXAAUFl_XMap@@K@Z 00432fb0 f   fltk:fl_color.obj
 0001:000363c0       ?decodeText@@YAPADPBD@Z    004373c0 f   fltk:Fl_Preferences.obj
 0001:000365b0       ?decodeHex@@YAPAXPBDAAH@Z  004375b0 f   fltk:Fl_Preferences.obj
 0001:000366c0       ?x2i@@YAEDD@Z              004376c0 f   fltk:Fl_Preferences.obj
 0001:000366e0       ?i2x@@YAXEPAD@Z            004376e0 f   fltk:Fl_Preferences.obj
 0001:00036720       ?a2p@@YAPAXPBD@Z           00437720 f   fltk:Fl_Preferences.obj
 0001:00036790       ?p2a@@YAXPAXPAD@Z          00437790 f   fltk:Fl_Preferences.obj
 0001:000390b0       ?_fl_hypot@@YANNN@Z        0043a0b0 f   fltk:fl_arc.obj
 0001:0003a45c       $LN15                      0043b45c     fltk:fl_font.obj
 0001:0003a470       $LN14                      0043b470     fltk:fl_font.obj
 0001:0003a530       ?find@@YAPAVFl_Font_Descriptor@@HHH@Z 0043b530 f   fltk:fl_font.obj
 0001:0003a630       ?fl_font@@YAXPAVFl_Graphics_Driver@@HHH@Z 0043b630 f   fltk:fl_font.obj
 0001:0003a6d0       ?GetGlyphIndices_init@@YAXXZ 0043b6d0 f   fltk:fl_font.obj
 0001:0003a710       ?on_printer_extents_update@@YAXAAH000@Z 0043b710 f   fltk:fl_font.obj
 0001:0003c480       ?start@@YAHPAVFl_Pixmap@@HHHHHHAAH11111@Z 0043d480 f   fltk:Fl_Pixmap.obj
 0001:0003d760       ?fl_create_bitmap@@YAPAUHBITMAP__@@HHPBE@Z 0043e760 f   fltk:Fl_Bitmap.obj
 0001:0003dbe0       ?dither@@YAXPAEPBEHH@Z     0043ebe0 f   fltk:fl_draw_image.obj
 0001:0003ddd0       ?monodither@@YAXPAEPBEHH@Z 0043edd0 f   fltk:fl_draw_image.obj
 0001:0003ded0       ?innards@@YAXPBEHHHHHHHP6AXPAXHHHPAE@Z1@Z 0043eed0 f   fltk:fl_draw_image.obj
 0001:0003e6a4       $LN77                      0043f6a4     fltk:fl_draw_image.obj
 0001:0003e6c0       ?fl_abs@@YAHH@Z            0043f6c0 f   fltk:fl_draw_image.obj
 0001:0003f6ac       $LN17                      004406ac     fltk:Fl_get_system_colors.obj
 0001:0003f6c0       ?set_selection_color@@YAXEEE@Z 004406c0 f   fltk:Fl_get_system_colors.obj
 0001:0003f6e0       ?getsyscolor@@YAXHPBDP6AXEEE@Z@Z 004406e0 f   fltk:Fl_get_system_colors.obj
 0001:0003f770       ?warning@@YAXPBDZZ         00440770 f   fltk:Fl_abort.obj
 0001:0003f780       ?error@@YAXPBDZZ           00440780 f   fltk:Fl_abort.obj
 0001:0003f800       ?fatal@@YAXPBDZZ           00440800 f   fltk:Fl_abort.obj
 0001:00041ee0       ?Toupper@@YAHH@Z           00442ee0 f   fltk:fl_utf8.obj
 0001:00042a2c       $LN70                      00443a2c     fltk:vsnprintf.obj
 0001:00042a48       $LN69                      00443a48     fltk:vsnprintf.obj
 0001:000466d4       $LN135                     004476d4     fltk:Fl_Input_.obj
 0001:000478a0       ?isword@@YAHD@Z            004488a0 f   fltk:Fl_Input_.obj
 0001:000478f0       ?strict_word_start@@YAHPBDHH@Z 004488f0 f   fltk:Fl_Input_.obj
 0001:00047930       ?strict_word_end@@YAHPBDHHH@Z 00448930 f   fltk:Fl_Input_.obj
 0001:00047970       ?undobuffersize@@YAXH@Z    00448970 f   fltk:Fl_Input_.obj
 0001:000483b4       $LN199                     004493b4     fltk:Fl_Input.obj
 0001:000483cc       $LN197                     004493cc     fltk:Fl_Input.obj
 0001:000483e8       $LN200                     004493e8     fltk:Fl_Input.obj
 0001:0004841c       $LN198                     0044941c     fltk:Fl_Input.obj
 0001:00048514       $LN201                     00449514     fltk:Fl_Input.obj
 0001:00049a8c       $LN201                     0044aa8c     fltk:Fl_Input.obj
 0001:00049ab4       $LN199                     0044aab4     fltk:Fl_Input.obj
 0001:00049acc       $LN202                     0044aacc     fltk:Fl_Input.obj
 0001:00049ae4       $LN200                     0044aae4     fltk:Fl_Input.obj
 0001:0004b460       ?expand_text_@@YAPBDPBDAAPADHNAAHAANHH@Z 0044c460 f   fltk:fl_draw.obj
 0001:0004bce0       ?bitmap2region@@YAPAUHRGN__@@PAVFl_Bitmap@@@Z 0044cce0 f   fltk:Fl_Window_shape.obj
 0001:0004d160       $LN63                      0044e160     fltk:Fl_Menu_Button.obj
 0001:0004d178       $LN62                      0044e178     fltk:Fl_Menu_Button.obj
 0001:0004d4c8       $LN23                      0044e4c8     fltk:Fl_Repeat_Button.obj
 0001:0004d4d4       $LN22                      0044e4d4     fltk:Fl_Repeat_Button.obj
 0001:0004e000       $LN128                     0044f000     fltk:Fl_Menu.obj
 0001:0004ed30       ?next_visible_or_not@@YAPBUFl_Menu_Item@@PBU1@@Z 0044fd30 f   fltk:Fl_Menu.obj
 0001:0004faa4       $LN99                      00450aa4     fltk:Fl_Menu.obj
 0001:0004fab8       $LN97                      00450ab8     fltk:Fl_Menu.obj
 0001:0004fac4       $LN100                     00450ac4     fltk:Fl_Menu.obj
 0001:0004fad8       $LN98                      00450ad8     fltk:Fl_Menu.obj
 0001:00050890       ?setitem@@YAXHH@Z          00451890 f   fltk:Fl_Menu.obj
 0001:000508f0       ?forward@@YAHH@Z           004518f0 f   fltk:Fl_Menu.obj
 0001:000509c0       ?backward@@YAHH@Z          004519c0 f   fltk:Fl_Menu.obj
 0001:00051470       ?array_insert@@YAPAUFl_Menu_Item@@PAU1@HHPBDH@Z 00452470 f   fltk:Fl_Menu_add.obj
 0001:000515b0       ?compare@@YAHPBD0@Z        004525b0 f   fltk:Fl_Menu_add.obj
 0001:00052cec       $LN191                     00453cec     fltk:Fl_Slider.obj
 0001:00052d0c       $LN192                     00453d0c     fltk:Fl_Slider.obj
 0001:00059780       ?compare_dirnames@@YAHPBD0@Z 0045a780 f   fltk:Fl_File_Chooser2.obj
 0001:00059820       ?quote_pathname@@YAXPADPBDH@Z 0045a820 f   fltk:Fl_File_Chooser2.obj
 0001:000598b0       ?unquote_pathname@@YAXPADPBDH@Z 0045a8b0 f   fltk:Fl_File_Chooser2.obj
 0001:00059b90       ?make_unused_color@@YAXAAE00@Z 0045ab90 f   fltk:fl_draw_pixmap.obj
 0001:0005a9a8       $LN63                      0045b9a8     fltk:filename_match.obj
 0001:0005a9cc       $LN61                      0045b9cc     fltk:filename_match.obj
 0001:0005aa4c       $LN64                      0045ba4c     fltk:filename_match.obj
 0001:0005aa64       $LN62                      0045ba64     fltk:filename_match.obj
 0001:0005ab30       _numericsort               0045bb30 f   fltk:numericsort.obj
 0001:0005aed0       ?frame_rect@@YAXHHHHPBDI@Z 0045bed0 f   fltk:fl_plastic.obj
 0001:0005b190       ?frame_round@@YAXHHHHPBDI@Z 0045c190 f   fltk:fl_plastic.obj
 0001:0005bbc0       ?shade_rect@@YAXHHHHPBDI@Z 0045cbc0 f   fltk:fl_plastic.obj
 0001:0005c330       ?shade_round@@YAXHHHHPBDI@Z 0045d330 f   fltk:fl_plastic.obj
 0001:0005cd70       ?up_frame@@YAXHHHHI@Z      0045dd70 f   fltk:fl_plastic.obj
 0001:0005cda0       ?narrow_thin_box@@YAXHHHHI@Z 0045dda0 f   fltk:fl_plastic.obj
 0001:0005cf50       ?thin_up_box@@YAXHHHHI@Z   0045df50 f   fltk:fl_plastic.obj
 0001:0005cfd0       ?up_box@@YAXHHHHI@Z        0045dfd0 f   fltk:fl_plastic.obj
 0001:0005d050       ?up_round@@YAXHHHHI@Z      0045e050 f   fltk:fl_plastic.obj
 0001:0005d0a0       ?down_frame@@YAXHHHHI@Z    0045e0a0 f   fltk:fl_plastic.obj
 0001:0005d0d0       ?down_box@@YAXHHHHI@Z      0045e0d0 f   fltk:fl_plastic.obj
 0001:0005d150       ?down_round@@YAXHHHHI@Z    0045e150 f   fltk:fl_plastic.obj
 0001:0005d240       ?gtk_color@@YAXI@Z         0045e240 f   fltk:fl_gtk.obj
 0001:0005d290       ?gtk_up_frame@@YAXHHHHI@Z  0045e290 f   fltk:fl_gtk.obj
 0001:0005d530       ?gtk_up_box@@YAXHHHHI@Z    0045e530 f   fltk:fl_gtk.obj
 0001:0005d7c0       ?gtk_down_frame@@YAXHHHHI@Z 0045e7c0 f   fltk:fl_gtk.obj
 0001:0005dab0       ?gtk_down_box@@YAXHHHHI@Z  0045eab0 f   fltk:fl_gtk.obj
 0001:0005db40       ?gtk_thin_up_frame@@YAXHHHHI@Z 0045eb40 f   fltk:fl_gtk.obj
 0001:0005dc50       ?gtk_thin_up_box@@YAXHHHHI@Z 0045ec50 f   fltk:fl_gtk.obj
 0001:0005deb0       ?gtk_thin_down_frame@@YAXHHHHI@Z 0045eeb0 f   fltk:fl_gtk.obj
 0001:0005dfc0       ?gtk_thin_down_box@@YAXHHHHI@Z 0045efc0 f   fltk:fl_gtk.obj
 0001:0005e020       ?fl_arc_i@@YAXHHHHNN@Z     0045f020 f   fltk:fl_gtk.obj
 0001:0005e070       ?draw@@YAXHHHHHH@Z         0045f070 f   fltk:fl_gtk.obj
 0001:0005e500       ?gtk_round_up_box@@YAXHHHHI@Z 0045f500 f   fltk:fl_gtk.obj
 0001:0005e840       ?gtk_round_down_box@@YAXHHHHI@Z 0045f840 f   fltk:fl_gtk.obj
 0001:0005ea60       ?gleam_color@@YAXI@Z       0045fa60 f   fltk:fl_gleam.obj
 0001:0005eab0       ?shade_rect_top_bottom@@YAXHHHHIIM@Z 0045fab0 f   fltk:fl_gleam.obj
 0001:0005ed20       ?shade_rect_top_bottom_up@@YAXHHHHIM@Z 0045fd20 f   fltk:fl_gleam.obj
 0001:0005ed60       ?shade_rect_top_bottom_down@@YAXHHHHIM@Z 0045fd60 f   fltk:fl_gleam.obj
 0001:0005ed90       ?frame_rect@@YAXHHHHIII@Z  0045fd90 f   fltk:fl_gleam.obj
 0001:0005ef60       ?frame_rect_up@@YAXHHHHIIMM@Z 0045ff60 f   fltk:fl_gleam.obj
 0001:0005efe0       ?frame_rect_down@@YAXHHHHIIMM@Z 0045ffe0 f   fltk:fl_gleam.obj
 0001:0005f040       ?up_frame@@YAXHHHHI@Z      00460040 f   fltk:fl_gleam.obj
 0001:0005f0b0       ?up_box@@YAXHHHHI@Z        004600b0 f   fltk:fl_gleam.obj
 0001:0005f150       ?thin_up_box@@YAXHHHHI@Z   00460150 f   fltk:fl_gleam.obj
 0001:0005f1f0       ?down_frame@@YAXHHHHI@Z    004601f0 f   fltk:fl_gleam.obj
 0001:0005f280       ?down_box@@YAXHHHHI@Z      00460280 f   fltk:fl_gleam.obj
 0001:0005f320       ?thin_down_box@@YAXHHHHI@Z 00460320 f   fltk:fl_gleam.obj
 0001:0005f830       ?fl_arc_i@@YAXHHHHNN@Z     00460830 f   fltk:fl_round_box.obj
 0001:0005f880       ?draw@@YAXHHHHHHI@Z        00460880 f   fltk:fl_round_box.obj
 0001:000606c0       ?fallback_cursor@@YAXPAVFl_Window@@W4Fl_Cursor@@@Z 004616c0 f   fltk:fl_cursor.obj
 0001:00060800       $LN21                      00461800     fltk:fl_cursor.obj
 0001:00060818       $LN19                      00461818     fltk:fl_cursor.obj
 0001:00060e74       $LN54                      00461e74     fltk:fl_symbols.obj
 0001:00060f10       ?find@@YAHPBD@Z            00461f10 f   fltk:fl_symbols.obj
 0001:000610e0       ?fl_init_symbols@@YAXXZ    004620e0 f   fltk:fl_symbols.obj
 0001:00061400       ?set_outline_color@@YAXI@Z 00462400 f   fltk:fl_symbols.obj
 0001:00061440       ?rectangle@@YAXNNNNI@Z     00462440 f   fltk:fl_symbols.obj
 0001:00061630       ?draw_fltk@@YAXI@Z         00462630 f   fltk:fl_symbols.obj
 0001:000625a0       ?draw_search@@YAXI@Z       004635a0 f   fltk:fl_symbols.obj
 0001:00062860       ?draw_arrow1@@YAXI@Z       00463860 f   fltk:fl_symbols.obj
 0001:00062c40       ?draw_arrow1bar@@YAXI@Z    00463c40 f   fltk:fl_symbols.obj
 0001:00062ca0       ?draw_arrow2@@YAXI@Z       00463ca0 f   fltk:fl_symbols.obj
 0001:00062e50       ?draw_arrow3@@YAXI@Z       00463e50 f   fltk:fl_symbols.obj
 0001:00063180       ?draw_arrowbar@@YAXI@Z     00464180 f   fltk:fl_symbols.obj
 0001:00063520       ?draw_arrowbox@@YAXI@Z     00464520 f   fltk:fl_symbols.obj
 0001:000638c0       ?draw_bararrow@@YAXI@Z     004648c0 f   fltk:fl_symbols.obj
 0001:00063c60       ?draw_doublebar@@YAXI@Z    00464c60 f   fltk:fl_symbols.obj
 0001:00063d00       ?draw_arrow01@@YAXI@Z      00464d00 f   fltk:fl_symbols.obj
 0001:00063d30       ?draw_arrow02@@YAXI@Z      00464d30 f   fltk:fl_symbols.obj
 0001:00063d60       ?draw_arrow03@@YAXI@Z      00464d60 f   fltk:fl_symbols.obj
 0001:00063d90       ?draw_0arrowbar@@YAXI@Z    00464d90 f   fltk:fl_symbols.obj
 0001:00063dc0       ?draw_0arrowbox@@YAXI@Z    00464dc0 f   fltk:fl_symbols.obj
 0001:00063df0       ?draw_0bararrow@@YAXI@Z    00464df0 f   fltk:fl_symbols.obj
 0001:00063e20       ?draw_doublearrow@@YAXI@Z  00464e20 f   fltk:fl_symbols.obj
 0001:000642f0       ?draw_arrow@@YAXI@Z        004652f0 f   fltk:fl_symbols.obj
 0001:000645c0       ?draw_square@@YAXI@Z       004655c0 f   fltk:fl_symbols.obj
 0001:00064620       ?draw_circle@@YAXI@Z       00465620 f   fltk:fl_symbols.obj
 0001:00064730       ?draw_line@@YAXI@Z         00465730 f   fltk:fl_symbols.obj
 0001:000647e0       ?draw_plus@@YAXI@Z         004657e0 f   fltk:fl_symbols.obj
 0001:00064c80       ?draw_uparrow@@YAXI@Z      00465c80 f   fltk:fl_symbols.obj
 0001:00064e00       ?draw_downarrow@@YAXI@Z    00465e00 f   fltk:fl_symbols.obj
 0001:00064f80       ?draw_menu@@YAXI@Z         00465f80 f   fltk:fl_symbols.obj
 0001:00065020       ?draw_filenew@@YAXI@Z      00466020 f   fltk:fl_symbols.obj
 0001:000654c0       ?draw_fileopen@@YAXI@Z     004664c0 f   fltk:fl_symbols.obj
 0001:00065a90       ?draw_filesave@@YAXI@Z     00466a90 f   fltk:fl_symbols.obj
 0001:000661a0       ?draw_filesaveas@@YAXI@Z   004671a0 f   fltk:fl_symbols.obj
 0001:00066540       ?draw_fileprint@@YAXI@Z    00467540 f   fltk:fl_symbols.obj
 0001:00066c70       ?draw_round_arrow@@YAXIM@Z 00467c70 f   fltk:fl_symbols.obj
 0001:00066fc0       ?draw_refresh@@YAXI@Z      00467fc0 f   fltk:fl_symbols.obj
 0001:00067030       ?draw_reload@@YAXI@Z       00468030 f   fltk:fl_symbols.obj
 0001:00067080       ?draw_undo@@YAXI@Z         00468080 f   fltk:fl_symbols.obj
 0001:00067270       ?draw_redo@@YAXI@Z         00468270 f   fltk:fl_symbols.obj
 0001:00067828       $LN100                     00468828     fltk:Fl_Tile.obj
 0001:00067838       $LN99                      00468838     fltk:Fl_Tile.obj
 0001:00067cf0       ?set_cursor@@YAXPAVFl_Tile@@W4Fl_Cursor@@@Z 00468cf0 f   fltk:Fl_Tile.obj
 0001:0006aac8       $LN332                     0046bac8     fltk:Fl_Browser_.obj
 0001:0006b460       ?scrollbar_callback@@YAXPAVFl_Widget@@PAX@Z 0046c460 f   fltk:Fl_Browser_.obj
 0001:0006b490       ?hscrollbar_callback@@YAXPAVFl_Widget@@PAX@Z 0046c490 f   fltk:Fl_Browser_.obj
 0001:0006d14c       $LN33                      0046e14c     fltk:Fl_File_Input.obj
 0001:0006d15c       $LN31                      0046e15c     fltk:Fl_File_Input.obj
 0001:0006d760       $LN66                      0046e760     fltk:Fl_Browser.obj
 0001:0006d790       $LN65                      0046e790     fltk:Fl_Browser.obj
 0001:0006da98       $LN41                      0046ea98     fltk:Fl_Browser.obj
 0001:0006dac8       $LN40                      0046eac8     fltk:Fl_Browser.obj
 0001:0006e038       $LN90                      0046f038     fltk:Fl_Browser.obj
 0001:0006e080       $LN89                      0046f080     fltk:Fl_Browser.obj
 0001:0006fd3c       $LN129                     00470d3c     fltk:Fl_File_Icon.obj
 0001:0006fd58       $LN130                     00470d58     fltk:Fl_File_Icon.obj
 0001:0006fd68       $LN131                     00470d68     fltk:Fl_File_Icon.obj
 0001:00072dac       $LN189                     00473dac     fltk:Fl_Scrollbar.obj
 0001:00072dc8       $LN188                     00473dc8     fltk:Fl_Scrollbar.obj
 0001:00072ddc       $LN190                     00473ddc     fltk:Fl_Scrollbar.obj
 0001:0007391c       $LN59                      0047491c     fltk:Fl_XPM_Image.obj
 0001:0007392c       $LN57                      0047492c     fltk:Fl_XPM_Image.obj
 0001:000739b0       ?hexdigit@@YAHH@Z          004749b0 f   fltk:Fl_XPM_Image.obj
 0001:00074bc0       ?add_context@@YAXPAUHGLRC__@@@Z 00475bc0 f   fltkgl:Fl_Gl_Choice.obj
 0001:00074c40       ?del_context@@YAXPAUHGLRC__@@@Z 00475c40 f   fltkgl:Fl_Gl_Choice.obj
 0001:00074ce0       ?print_gl_window@@YAXPAVFl_Gl_Window@@HHH@Z 00475ce0 f   fltkgl:Fl_Gl_Device_Plugin.obj
 0001:00075560       ?get_list@@YAXH@Z          00476560 f   fltkgl:gl_draw.obj
 0001:000755e0       ?gl_draw_invert@@YAXPBDHHH@Z 004765e0 f   fltkgl:gl_draw.obj
 0001:00075e21       ?pre_c_initialization@@YAHXZ 00476e21 f   MSVCRT:exe_winmain.obj
 0001:00075ecc       ?post_pgo_initialization@@YAHXZ 00476ecc f   MSVCRT:exe_winmain.obj
 0001:00075ed4       ?pre_cpp_initialization@@YAXXZ 00476ed4 f   MSVCRT:exe_winmain.obj
 0001:00075ee6       ?__scrt_common_main@@YAHXZ 00476ee6 f   MSVCRT:exe_winmain.obj
 0001:00075ef0       ?__scrt_common_main_seh@@YAHXZ 00476ef0 f   MSVCRT:exe_winmain.obj
 0001:0007607e       ?invoke_main@@YAHXZ        0047707e f   MSVCRT:exe_winmain.obj
 0001:000760cd       ?find_pe_section@@YAPAU_IMAGE_SECTION_HEADER@@QAEI@Z 004770cd f   MSVCRT:utility.obj
 0001:00076111       ?is_potentially_valid_image_base@@YA_NQAX@Z 00477111 f   MSVCRT:utility.obj
 0001:00076445       ?__scrt_initialize_thread_safe_statics@@YAHXZ 00477445 f   MSVCRT:thread_safe_statics.obj
 0001:0007646c       ?__scrt_initialize_thread_safe_statics_platform_specific@@YAXXZ 0047746c f   MSVCRT:thread_safe_statics.obj
 0001:000764ee       ?__scrt_uninitialize_thread_safe_statics@@YAXXZ 004774ee f   MSVCRT:thread_safe_statics.obj
 0001:00076670       $$000000                   00477670     MSVCRT:ftol3.obj
 0001:00076a10       $$000000                   00477a10     MSVCRT:llshr.obj
 0001:00076a40       $$000000                   00477a40     MSVCRT:ftol2.obj
 0001:00076ce0       $$000000                   00477ce0     MSVCRT:chkstk.obj
 0001:00076daf       ___get_entropy             00477daf f   MSVCRT:gs_support.obj
 0001:00077130       $$000000                   00478130     MSVCRT:sehprolg4.obj
 0001:00077aa0       _mbcs2utf                  00478aa0 f   fltk:fl_call_main.obj
 0001:00077c40       __unwindfunclet$_main$0    00478c40 f   main.obj
 0001:00077c4f       __unwindfunclet$_main$1    00478c4f f   main.obj
 0001:00077c61       __unwindfunclet$_main$2    00478c61 f   main.obj
 0001:00077c70       __ehhandler$_main          00478c70 f   main.obj
 0001:00077c90       __ehhandler$??0RayData@RayTracer@@QAE@XZ 00478c90 f   RayTracer.obj
 0001:00077cb0       __unwindfunclet$?loadScene@RayTracer@@QAE_NPAD@Z$2 00478cb0 f   RayTracer.obj
 0001:00077cb8       __unwindfunclet$?loadScene@RayTracer@@QAE_NPAD@Z$3 00478cb8 f   RayTracer.obj
 0001:00077cc0       __ehhandler$?loadScene@RayTracer@@QAE_NPAD@Z 00478cc0 f   RayTracer.obj
 0001:00077cf0       __unwindfunclet$?trace@RayTracer@@QAE?AVvec3f@@PAVScene@@NN@Z$0 00478cf0 f   RayTracer.obj
 0001:00077cf8       __ehhandler$?trace@RayTracer@@QAE?AVvec3f@@PAVScene@@NN@Z 00478cf8 f   RayTracer.obj
 0001:00077d20       __unwindfunclet$?traceLightSource@RayTracer@@IAE?AVvec3f@@PBVRayData@1@@Z$0 00478d20 f   RayTracer.obj
 0001:00077d28       __ehhandler$?traceLightSource@RayTracer@@IAE?AVvec3f@@PBVRayData@1@@Z 00478d28 f   RayTracer.obj
 0001:00077d50       __unwindfunclet$?traceRay@RayTracer@@QAE?AVvec3f@@PAVRayData@1@@Z$0 00478d50 f   RayTracer.obj
 0001:00077d58       __ehhandler$?traceRay@RayTracer@@QAE?AVvec3f@@PAVRayData@1@@Z 00478d58 f   RayTracer.obj
 0001:00077d80       __unwindfunclet$?traceRay@RayTracer@@QAE?AVvec3f@@PAVScene@@ABVray@@ABV2@H@Z$0 00478d80 f   RayTracer.obj
 0001:00077d88       __ehhandler$?traceRay@RayTracer@@QAE?AVvec3f@@PAVScene@@ABVray@@ABV2@H@Z 00478d88 f   RayTracer.obj
 0001:00077db0       __unwindfunclet$?traceReflection@RayTracer@@IAE?AVvec3f@@PBVRayData@1@@Z$0 00478db0 f   RayTracer.obj
 0001:00077dbb       __unwindfunclet$?traceReflection@RayTracer@@IAE?AVvec3f@@PBVRayData@1@@Z$1 00478dbb f   RayTracer.obj
 0001:00077dc6       __ehhandler$?traceReflection@RayTracer@@IAE?AVvec3f@@PBVRayData@1@@Z 00478dc6 f   RayTracer.obj
 0001:00077df0       __unwindfunclet$?traceRefraction@RayTracer@@IAE?AVvec3f@@PBVRayData@1@@Z$4 00478df0 f   RayTracer.obj
 0001:00077dfb       __unwindfunclet$?traceRefraction@RayTracer@@IAE?AVvec3f@@PBVRayData@1@@Z$5 00478dfb f   RayTracer.obj
 0001:00077e06       __unwindfunclet$?traceRefraction@RayTracer@@IAE?AVvec3f@@PBVRayData@1@@Z$0 00478e06 f   RayTracer.obj
 0001:00077e11       __unwindfunclet$?traceRefraction@RayTracer@@IAE?AVvec3f@@PBVRayData@1@@Z$1 00478e11 f   RayTracer.obj
 0001:00077e1c       __unwindfunclet$?traceRefraction@RayTracer@@IAE?AVvec3f@@PBVRayData@1@@Z$2 00478e1c f   RayTracer.obj
 0001:00077e27       __ehhandler$?traceRefraction@RayTracer@@IAE?AVvec3f@@PBVRayData@1@@Z 00478e27 f   RayTracer.obj
 0001:00077e50       __unwindfunclet$??0TraceGLWindow@@QAE@HHHHPBD@Z$1 00478e50 f   TraceGLWindow.obj
 0001:00077e58       __ehhandler$??0TraceGLWindow@@QAE@HHHHPBD@Z 00478e58 f   TraceGLWindow.obj
 0001:00077e80       __unwindfunclet$??0TraceUI@@QAE@XZ$0 00478e80 f   TraceUI.obj
 0001:00077e92       __unwindfunclet$??0TraceUI@@QAE@XZ$1 00478e92 f   TraceUI.obj
 0001:00077ea1       __unwindfunclet$??0TraceUI@@QAE@XZ$3 00478ea1 f   TraceUI.obj
 0001:00077eb0       __unwindfunclet$??0TraceUI@@QAE@XZ$4 00478eb0 f   TraceUI.obj
 0001:00077ebf       __unwindfunclet$??0TraceUI@@QAE@XZ$5 00478ebf f   TraceUI.obj
 0001:00077ece       __unwindfunclet$??0TraceUI@@QAE@XZ$6 00478ece f   TraceUI.obj
 0001:00077edd       __unwindfunclet$??0TraceUI@@QAE@XZ$7 00478edd f   TraceUI.obj
 0001:00077eec       __unwindfunclet$??0TraceUI@@QAE@XZ$8 00478eec f   TraceUI.obj
 0001:00077efb       __unwindfunclet$??0TraceUI@@QAE@XZ$9 00478efb f   TraceUI.obj
 0001:00077f0a       __unwindfunclet$??0TraceUI@@QAE@XZ$10 00478f0a f   TraceUI.obj
 0001:00077f19       __unwindfunclet$??0TraceUI@@QAE@XZ$11 00478f19 f   TraceUI.obj
 0001:00077f28       __unwindfunclet$??0TraceUI@@QAE@XZ$2 00478f28 f   TraceUI.obj
 0001:00077f3a       __ehhandler$??0TraceUI@@QAE@XZ 00478f3a f   TraceUI.obj
 0001:00077f60       __unwindfunclet$?FL_createValueSlider@@YAPAVFl_Value_Slider@@PAVGraphic_Rect@@PAVGraphic_FontOption@@PAVGraphic_Range@@IPAXP6AXPAVFl_Widget@@3@Z@Z$0 00478f60 f   TraceUI.obj
 0001:00077f72       __ehhandler$?FL_createValueSlider@@YAPAVFl_Value_Slider@@PAVGraphic_Rect@@PAVGraphic_FontOption@@PAVGraphic_Range@@IPAXP6AXPAVFl_Widget@@3@Z@Z 00478f72 f   TraceUI.obj
 0001:00077f90       __unwindfunclet$??$?6U?$char_traits@D@std@@@std@@YAAAV?$basic_ostream@DU?$char_traits@D@std@@@0@AAV10@D@Z$2 00478f90 f   parse.obj
 0001:00077f98       __ehhandler$??$?6U?$char_traits@D@std@@@std@@YAAAV?$basic_ostream@DU?$char_traits@D@std@@@0@AAV10@D@Z 00478f98 f   parse.obj
 0001:00077fc0       __unwindfunclet$??$?6U?$char_traits@D@std@@@std@@YAAAV?$basic_ostream@DU?$char_traits@D@std@@@0@AAV10@PBD@Z$2 00478fc0 f   parse.obj
 0001:00077fc8       __ehhandler$??$?6U?$char_traits@D@std@@@std@@YAAAV?$basic_ostream@DU?$char_traits@D@std@@@0@AAV10@PBD@Z 00478fc8 f   parse.obj
 0001:00077ff0       __unwindfunclet$??$_Copy_nodes@U_Copy_tag@?$_Tree@V?$_Tmap_traits@V?$basic_string@DU?$char_traits@D@std@@V?$allocator@D@2@@std@@PAVObj@@U?$less@V?$basic_string@DU?$char_traits@D@std@@V?$allocator@D@2@@std@@@2@V?$allocator@U?$pair@$$CBV?$basic_string@DU?$char_traits@D@std@@V?$allocator@D@2@@std@@PAVObj@@@std@@@2@$0A@@std@@@std@@@?$_Tree@V?$_Tmap_traits@V?$basic_string@DU?$char_traits@D@std@@V?$allocator@D@2@@std@@PAVObj@@U?$less@V?$basic_string@DU?$char_traits@D@std@@V?$allocator@D@2@@std@@@2@V?$allocator@U?$pair@$$CBV?$basic_string@DU?$char_traits@D@std@@V?$allocator@D@2@@std@@PAVObj@@@std@@@2@$0A@@std@@@std@@IAEPAU?$_Tree_node@U?$pair@$$CBV?$basic_string@DU?$char_traits@D@std@@V?$allocator@D@2@@std@@PAVObj@@@std@@PAX@1@PAU21@0U_Copy_tag@01@@Z$2 00478ff0 f   parse.obj
 0001:00077ff8       __ehhandler$??$_Copy_nodes@U_Copy_tag@?$_Tree@V?$_Tmap_traits@V?$basic_string@DU?$char_traits@D@std@@V?$allocator@D@2@@std@@PAVObj@@U?$less@V?$basic_string@DU?$char_traits@D@std@@V?$allocator@D@2@@std@@@2@V?$allocator@U?$pair@$$CBV?$basic_string@DU?$char_traits@D@std@@V?$allocator@D@2@@std@@PAVObj@@@std@@@2@$0A@@std@@@std@@@?$_Tree@V?$_Tmap_traits@V?$basic_string@DU?$char_traits@D@std@@V?$allocator@D@2@@std@@PAVObj@@U?$less@V?$basic_string@DU?$char_traits@D@std@@V?$allocator@D@2@@std@@@2@V?$allocator@U?$pair@$$CBV?$basic_string@DU?$char_traits@D@std@@V?$allocator@D@2@@std@@PAVObj@@@std@@@2@$0A@@std@@@std@@IAEPAU?$_Tree_node@U?$pair@$$CBV?$basic_string@DU?$char_traits@D@std@@V?$allocator@D@2@@std@@PAVObj@@@std@@PAX@1@PAU21@0U_Copy_tag@01@@Z 00478ff8 f   parse.obj
 0001:00078020       __unwindfunclet$??$_Insert_string@DU?$char_traits@D@std@@I@std@@YAAAV?$basic_ostream@DU?$char_traits@D@std@@@0@AAV10@QBDI@Z$2 00479020 f   parse.obj
 0001:00078028       __ehhandler$??$_Insert_string@DU?$char_traits@D@std@@I@std@@YAAAV?$basic_ostream@DU?$char_traits@D@std@@@0@AAV10@QBDI@Z 00479028 f   parse.obj
 0001:00078050       __unwindfunclet$??0IdObj@@QAE@ABV?$basic_string@DU?$char_traits@D@std@@V?$allocator@D@2@@std@@@Z$0 00479050 f   parse.obj
 0001:00078058       __ehhandler$??0IdObj@@QAE@ABV?$basic_string@DU?$char_traits@D@std@@V?$allocator@D@2@@std@@@Z 00479058 f   parse.obj
 0001:00078080       __unwindfunclet$??0ObjTypeMismatch@@QAE@V?$basic_string@DU?$char_traits@D@std@@V?$allocator@D@2@@std@@0@Z$0 00479080 f   parse.obj
 0001:00078088       __unwindfunclet$??0ObjTypeMismatch@@QAE@V?$basic_string@DU?$char_traits@D@std@@V?$allocator@D@2@@std@@0@Z$1 00479088 f   parse.obj
 0001:00078090       __unwindfunclet$??0ObjTypeMismatch@@QAE@V?$basic_string@DU?$char_traits@D@std@@V?$allocator@D@2@@std@@0@Z$2 00479090 f   parse.obj
 0001:0007809b       __unwindfunclet$??0ObjTypeMismatch@@QAE@V?$basic_string@DU?$char_traits@D@std@@V?$allocator@D@2@@std@@0@Z$3 0047909b f   parse.obj
 0001:000780a3       __unwindfunclet$??0ObjTypeMismatch@@QAE@V?$basic_string@DU?$char_traits@D@std@@V?$allocator@D@2@@std@@0@Z$4 004790a3 f   parse.obj
 0001:000780ab       __unwindfunclet$??0ObjTypeMismatch@@QAE@V?$basic_string@DU?$char_traits@D@std@@V?$allocator@D@2@@std@@0@Z$5 004790ab f   parse.obj
 0001:000780b3       __unwindfunclet$??0ObjTypeMismatch@@QAE@V?$basic_string@DU?$char_traits@D@std@@V?$allocator@D@2@@std@@0@Z$6 004790b3 f   parse.obj
 0001:000780be       __unwindfunclet$??0ObjTypeMismatch@@QAE@V?$basic_string@DU?$char_traits@D@std@@V?$allocator@D@2@@std@@0@Z$7 004790be f   parse.obj
 0001:000780c6       __unwindfunclet$??0ObjTypeMismatch@@QAE@V?$basic_string@DU?$char_traits@D@std@@V?$allocator@D@2@@std@@0@Z$8 004790c6 f   parse.obj
 0001:000780d1       __ehhandler$??0ObjTypeMismatch@@QAE@V?$basic_string@DU?$char_traits@D@std@@V?$allocator@D@2@@std@@0@Z 004790d1 f   parse.obj
 0001:00078100       __unwindfunclet$??0sentry@?$basic_ostream@DU?$char_traits@D@std@@@std@@QAE@AAV12@@Z$0 00479100 f   parse.obj
 0001:00078108       __ehhandler$??0sentry@?$basic_ostream@DU?$char_traits@D@std@@@std@@QAE@AAV12@@Z 00479108 f   parse.obj
 0001:00078130       __ehhandler$??1_Sentry_base@?$basic_ostream@DU?$char_traits@D@std@@@std@@QAE@XZ 00479130 f   parse.obj
 0001:00078150       __ehhandler$??1sentry@?$basic_ostream@DU?$char_traits@D@std@@@std@@QAE@XZ 00479150 f   parse.obj
 0001:00078170       __unwindfunclet$?eat@@YA_NAAV?$basic_istream@DU?$char_traits@D@std@@@std@@@Z$0 00479170 f   parse.obj
 0001:00078178       __unwindfunclet$?eat@@YA_NAAV?$basic_istream@DU?$char_traits@D@std@@@std@@@Z$1 00479178 f   parse.obj
 0001:00078180       __ehhandler$?eat@@YA_NAAV?$basic_istream@DU?$char_traits@D@std@@@std@@@Z 00479180 f   parse.obj
 0001:000781b0       __unwindfunclet$?getBoolean@Obj@@UBE_NXZ$0 004791b0 f   parse.obj
 0001:000781b8       __ehhandler$?getBoolean@Obj@@UBE_NXZ 004791b8 f   parse.obj
 0001:000781e0       __unwindfunclet$?getChild@Obj@@UBEPAV1@XZ$0 004791e0 f   parse.obj
 0001:000781e8       __ehhandler$?getChild@Obj@@UBEPAV1@XZ 004791e8 f   parse.obj
 0001:00078210       __unwindfunclet$?getDict@Obj@@UBEABV?$map@V?$basic_string@DU?$char_traits@D@std@@V?$allocator@D@2@@std@@PAVObj@@U?$less@V?$basic_string@DU?$char_traits@D@std@@V?$allocator@D@2@@std@@@2@V?$allocator@U?$pair@$$CBV?$basic_string@DU?$char_traits@D@std@@V?$allocator@D@2@@std@@PAVObj@@@std@@@2@@std@@XZ$0 00479210 f   parse.obj
 0001:00078218       __ehhandler$?getDict@Obj@@UBEABV?$map@V?$basic_string@DU?$char_traits@D@std@@V?$allocator@D@2@@std@@PAVObj@@U?$less@V?$basic_string@DU?$char_traits@D@std@@V?$allocator@D@2@@std@@@2@V?$allocator@U?$pair@$$CBV?$basic_string@DU?$char_traits@D@std@@V?$allocator@D@2@@std@@PAVObj@@@std@@@2@@std@@XZ 00479218 f   parse.obj
 0001:00078240       __unwindfunclet$?getID@Obj@@UBE?AV?$basic_string@DU?$char_traits@D@std@@V?$allocator@D@2@@std@@XZ$0 00479240 f   parse.obj
 0001:00078248       __ehhandler$?getID@Obj@@UBE?AV?$basic_string@DU?$char_traits@D@std@@V?$allocator@D@2@@std@@XZ 00479248 f   parse.obj
 0001:00078270       __unwindfunclet$?getName@Obj@@UBE?AV?$basic_string@DU?$char_traits@D@std@@V?$allocator@D@2@@std@@XZ$0 00479270 f   parse.obj
 0001:00078278       __ehhandler$?getName@Obj@@UBE?AV?$basic_string@DU?$char_traits@D@std@@V?$allocator@D@2@@std@@XZ 00479278 f   parse.obj
 0001:000782a0       __unwindfunclet$?getScalar@Obj@@UBENXZ$0 004792a0 f   parse.obj
 0001:000782a8       __ehhandler$?getScalar@Obj@@UBENXZ 004792a8 f   parse.obj
 0001:000782d0       __unwindfunclet$?getString@Obj@@UBE?AV?$basic_string@DU?$char_traits@D@std@@V?$allocator@D@2@@std@@XZ$0 004792d0 f   parse.obj
 0001:000782d8       __ehhandler$?getString@Obj@@UBE?AV?$basic_string@DU?$char_traits@D@std@@V?$allocator@D@2@@std@@XZ 004792d8 f   parse.obj
 0001:00078300       __unwindfunclet$?getTuple@Obj@@UBEABV?$vector@PAVObj@@V?$allocator@PAVObj@@@std@@@std@@XZ$0 00479300 f   parse.obj
 0001:00078308       __ehhandler$?getTuple@Obj@@UBEABV?$vector@PAVObj@@V?$allocator@PAVObj@@@std@@@std@@XZ 00479308 f   parse.obj
 0001:00078330       __unwindfunclet$?readDict@@YAPAVObj@@AAV?$basic_istream@DU?$char_traits@D@std@@@std@@@Z$0 00479330 f   parse.obj
 0001:00078338       __unwindfunclet$?readDict@@YAPAVObj@@AAV?$basic_istream@DU?$char_traits@D@std@@@std@@@Z$1 00479338 f   parse.obj
 0001:00078340       __unwindfunclet$?readDict@@YAPAVObj@@AAV?$basic_istream@DU?$char_traits@D@std@@@std@@@Z$17 00479340 f   parse.obj
 0001:00078348       __unwindfunclet$?readDict@@YAPAVObj@@AAV?$basic_istream@DU?$char_traits@D@std@@@std@@@Z$16 00479348 f   parse.obj
 0001:00078350       __unwindfunclet$?readDict@@YAPAVObj@@AAV?$basic_istream@DU?$char_traits@D@std@@@std@@@Z$2 00479350 f   parse.obj
 0001:0007835f       __unwindfunclet$?readDict@@YAPAVObj@@AAV?$basic_istream@DU?$char_traits@D@std@@@std@@@Z$8 0047935f f   parse.obj
 0001:00078367       __unwindfunclet$?readDict@@YAPAVObj@@AAV?$basic_istream@DU?$char_traits@D@std@@@std@@@Z$11 00479367 f   parse.obj
 0001:0007836f       __unwindfunclet$?readDict@@YAPAVObj@@AAV?$basic_istream@DU?$char_traits@D@std@@@std@@@Z$5 0047936f f   parse.obj
 0001:00078377       __unwindfunclet$?readDict@@YAPAVObj@@AAV?$basic_istream@DU?$char_traits@D@std@@@std@@@Z$4 00479377 f   parse.obj
 0001:0007837f       __ehhandler$?readDict@@YAPAVObj@@AAV?$basic_istream@DU?$char_traits@D@std@@@std@@@Z 0047937f f   parse.obj
 0001:000783b0       __unwindfunclet$?readID@@YA?AV?$basic_string@DU?$char_traits@D@std@@V?$allocator@D@2@@std@@AAV?$basic_istream@DU?$char_traits@D@std@@@2@@Z$0 004793b0 f   parse.obj
 0001:000783c9       __ehhandler$?readID@@YA?AV?$basic_string@DU?$char_traits@D@std@@V?$allocator@D@2@@std@@AAV?$basic_istream@DU?$char_traits@D@std@@@2@@Z 004793c9 f   parse.obj
 0001:000783f0       __unwindfunclet$?readName@@YAPAVObj@@AAV?$basic_istream@DU?$char_traits@D@std@@@std@@@Z$0 004793f0 f   parse.obj
 0001:000783f8       __unwindfunclet$?readName@@YAPAVObj@@AAV?$basic_istream@DU?$char_traits@D@std@@@std@@@Z$3 004793f8 f   parse.obj
 0001:00078407       __unwindfunclet$?readName@@YAPAVObj@@AAV?$basic_istream@DU?$char_traits@D@std@@@std@@@Z$6 00479407 f   parse.obj
 0001:0007840f       __unwindfunclet$?readName@@YAPAVObj@@AAV?$basic_istream@DU?$char_traits@D@std@@@std@@@Z$4 0047940f f   parse.obj
 0001:0007841e       __unwindfunclet$?readName@@YAPAVObj@@AAV?$basic_istream@DU?$char_traits@D@std@@@std@@@Z$5 0047941e f   parse.obj
 0001:0007842d       __unwindfunclet$?readName@@YAPAVObj@@AAV?$basic_istream@DU?$char_traits@D@std@@@std@@@Z$12 0047942d f   parse.obj
 0001:00078435       __ehhandler$?readName@@YAPAVObj@@AAV?$basic_istream@DU?$char_traits@D@std@@@std@@@Z 00479435 f   parse.obj
 0001:00078460       __unwindfunclet$?readScalar@@YAPAVObj@@AAV?$basic_istream@DU?$char_traits@D@std@@@std@@@Z$0 00479460 f   parse.obj
 0001:00078468       __ehhandler$?readScalar@@YAPAVObj@@AAV?$basic_istream@DU?$char_traits@D@std@@@std@@@Z 00479468 f   parse.obj
 0001:00078490       __unwindfunclet$?readString@@YAPAVObj@@AAV?$basic_istream@DU?$char_traits@D@std@@@std@@@Z$0 00479490 f   parse.obj
 0001:00078498       __unwindfunclet$?readString@@YAPAVObj@@AAV?$basic_istream@DU?$char_traits@D@std@@@std@@@Z$1 00479498 f   parse.obj
 0001:000784a7       __unwindfunclet$?readString@@YAPAVObj@@AAV?$basic_istream@DU?$char_traits@D@std@@@std@@@Z$2 004794a7 f   parse.obj
 0001:000784af       __ehhandler$?readString@@YAPAVObj@@AAV?$basic_istream@DU?$char_traits@D@std@@@std@@@Z 004794af f   parse.obj
 0001:000784e0       __unwindfunclet$?readTuple@@YAPAVObj@@AAV?$basic_istream@DU?$char_traits@D@std@@@std@@@Z$0 004794e0 f   parse.obj
 0001:000784e8       __unwindfunclet$?readTuple@@YAPAVObj@@AAV?$basic_istream@DU?$char_traits@D@std@@@std@@@Z$1 004794e8 f   parse.obj
 0001:000784f7       __unwindfunclet$?readTuple@@YAPAVObj@@AAV?$basic_istream@DU?$char_traits@D@std@@@std@@@Z$4 004794f7 f   parse.obj
 0001:000784ff       __unwindfunclet$?readTuple@@YAPAVObj@@AAV?$basic_istream@DU?$char_traits@D@std@@@std@@@Z$2 004794ff f   parse.obj
 0001:00078507       __ehhandler$?readTuple@@YAPAVObj@@AAV?$basic_istream@DU?$char_traits@D@std@@@std@@@Z 00479507 f   parse.obj
 0001:00078530       __unwindfunclet$??$use_facet@V?$codecvt@DDU_Mbstatet@@@std@@@std@@YAABV?$codecvt@DDU_Mbstatet@@@0@ABVlocale@0@@Z$0 00479530 f   read.obj
 0001:00078539       __unwindfunclet$??$use_facet@V?$codecvt@DDU_Mbstatet@@@std@@@std@@YAABV?$codecvt@DDU_Mbstatet@@@0@ABVlocale@0@@Z$1 00479539 f   read.obj
 0001:00078541       __ehhandler$??$use_facet@V?$codecvt@DDU_Mbstatet@@@std@@@std@@YAABV?$codecvt@DDU_Mbstatet@@@0@ABVlocale@0@@Z 00479541 f   read.obj
 0001:00078560       __unwindfunclet$??0?$basic_ifstream@DU?$char_traits@D@std@@@std@@QAE@PBDHH@Z$0 00479560 f   read.obj
 0001:0007857d       __unwindfunclet$??0?$basic_ifstream@DU?$char_traits@D@std@@@std@@QAE@PBDHH@Z$1 0047957d f   read.obj
 0001:00078589       __unwindfunclet$??0?$basic_ifstream@DU?$char_traits@D@std@@@std@@QAE@PBDHH@Z$3 00479589 f   read.obj
 0001:00078592       __unwindfunclet$??0?$basic_ifstream@DU?$char_traits@D@std@@@std@@QAE@PBDHH@Z$2 00479592 f   read.obj
 0001:0007859d       __unwindfunclet$??0?$basic_ifstream@DU?$char_traits@D@std@@@std@@QAE@PBDHH@Z$4 0047959d f   read.obj
 0001:000785a5       __ehhandler$??0?$basic_ifstream@DU?$char_traits@D@std@@@std@@QAE@PBDHH@Z 004795a5 f   read.obj
 0001:000785c0       __unwindfunclet$??0Scene@@QAE@XZ$0 004795c0 f   read.obj
 0001:000785ce       __unwindfunclet$??0Scene@@QAE@XZ$1 004795ce f   read.obj
 0001:000785df       __unwindfunclet$??0Scene@@QAE@XZ$2 004795df f   read.obj
 0001:000785f0       __unwindfunclet$??0Scene@@QAE@XZ$3 004795f0 f   read.obj
 0001:00078601       __unwindfunclet$??0Scene@@QAE@XZ$4 00479601 f   read.obj
 0001:00078612       __unwindfunclet$??0Scene@@QAE@XZ$5 00479612 f   read.obj
 0001:00078623       __ehhandler$??0Scene@@QAE@XZ 00479623 f   read.obj
 0001:00078650       __unwindfunclet$??0TransformNode@@IAE@PAV0@ABVmat4f@@@Z$0 00479650 f   read.obj
 0001:00078661       __ehhandler$??0TransformNode@@IAE@PAV0@ABVmat4f@@@Z 00479661 f   read.obj
 0001:00078690       __unwindfunclet$??0ostrstream@std@@QAE@XZ$0 00479690 f   read.obj
 0001:000786ad       __unwindfunclet$??0ostrstream@std@@QAE@XZ$1 004796ad f   read.obj
 0001:000786b9       __unwindfunclet$??0ostrstream@std@@QAE@XZ$3 004796b9 f   read.obj
 0001:000786c2       __ehhandler$??0ostrstream@std@@QAE@XZ 004796c2 f   read.obj
 0001:000786e0       __ehhandler$??1?$basic_filebuf@DU?$char_traits@D@std@@@std@@UAE@XZ 004796e0 f   read.obj
 0001:00078700       __ehhandler$??1ostrstream@std@@UAE@XZ 00479700 f   read.obj
 0001:00078720       __ehhandler$??1strstreambuf@std@@UAE@XZ 00479720 f   read.obj
 0001:00078740       __unwindfunclet$??6@YAAAV?$basic_ostream@DU?$char_traits@D@std@@@std@@AAV01@ABVException@@@Z$0 00479740 f   read.obj
 0001:00078748       __ehhandler$??6@YAAAV?$basic_ostream@DU?$char_traits@D@std@@@std@@AAV01@ABVException@@@Z 00479748 f   read.obj
 0001:00078770       __ehhandler$??_Dostrstream@std@@QAEXXZ 00479770 f   read.obj
 0001:00078790       __ehhandler$??_Gstrstreambuf@std@@UAEPAXI@Z 00479790 f   read.obj
 0001:000787b0       __unwindfunclet$?add@Scene@@QAEXPAVGeometry@@@Z$1 004797b0 f   read.obj
 0001:000787b8       __ehhandler$?add@Scene@@QAEXPAVGeometry@@@Z 004797b8 f   read.obj
 0001:000787e0       __unwindfunclet$?add@Scene@@QAEXPAVLight@@@Z$1 004797e0 f   read.obj
 0001:000787e8       __ehhandler$?add@Scene@@QAEXPAVLight@@@Z 004797e8 f   read.obj
 0001:00078810       __unwindfunclet$?createChild@TransformNode@@QAEPAV1@ABVmat4f@@@Z$0 00479810 f   read.obj
 0001:00078822       __unwindfunclet$?createChild@TransformNode@@QAEPAV1@ABVmat4f@@@Z$2 00479822 f   read.obj
 0001:0007882a       __ehhandler$?createChild@TransformNode@@QAEPAV1@ABVmat4f@@@Z 0047982a f   read.obj
 0001:00078850       __unwindfunclet$?getColorField@@YAPAVObj@@PAV1@@Z$3 00479850 f   read.obj
 0001:00078858       __unwindfunclet$?getColorField@@YAPAVObj@@PAV1@@Z$0 00479858 f   read.obj
 0001:00078860       __ehhandler$?getColorField@@YAPAVObj@@PAV1@@Z 00479860 f   read.obj
 0001:00078890       __unwindfunclet$?getField@@YAPAVObj@@PAV1@ABV?$basic_string@DU?$char_traits@D@std@@V?$allocator@D@2@@std@@@Z$3 00479890 f   read.obj
 0001:0007889b       __unwindfunclet$?getField@@YAPAVObj@@PAV1@ABV?$basic_string@DU?$char_traits@D@std@@V?$allocator@D@2@@std@@@Z$4 0047989b f   read.obj
 0001:000788a6       __unwindfunclet$?getField@@YAPAVObj@@PAV1@ABV?$basic_string@DU?$char_traits@D@std@@V?$allocator@D@2@@std@@@Z$5 004798a6 f   read.obj
 0001:000788b1       __unwindfunclet$?getField@@YAPAVObj@@PAV1@ABV?$basic_string@DU?$char_traits@D@std@@V?$allocator@D@2@@std@@@Z$0 004798b1 f   read.obj
 0001:000788b9       __unwindfunclet$?getField@@YAPAVObj@@PAV1@ABV?$basic_string@DU?$char_traits@D@std@@V?$allocator@D@2@@std@@@Z$1 004798b9 f   read.obj
 0001:000788c1       __unwindfunclet$?getField@@YAPAVObj@@PAV1@ABV?$basic_string@DU?$char_traits@D@std@@V?$allocator@D@2@@std@@@Z$2 004798c1 f   read.obj
 0001:000788cc       __ehhandler$?getField@@YAPAVObj@@PAV1@ABV?$basic_string@DU?$char_traits@D@std@@V?$allocator@D@2@@std@@@Z 004798cc f   read.obj
 0001:00078900       __unwindfunclet$?getMaterial@@YAPAVMaterial@@PAVObj@@ABV?$map@V?$basic_string@DU?$char_traits@D@std@@V?$allocator@D@2@@std@@PAVMaterial@@U?$less@V?$basic_string@DU?$char_traits@D@std@@V?$allocator@D@2@@std@@@2@V?$allocator@U?$pair@$$CBV?$basic_string@DU?$char_traits@D@std@@V?$allocator@D@2@@std@@PAVMaterial@@@std@@@2@@std@@@Z$0 00479900 f   read.obj
 0001:00078908       __ehhandler$?getMaterial@@YAPAVMaterial@@PAVObj@@ABV?$map@V?$basic_string@DU?$char_traits@D@std@@V?$allocator@D@2@@std@@PAVMaterial@@U?$less@V?$basic_string@DU?$char_traits@D@std@@V?$allocator@D@2@@std@@@2@V?$allocator@U?$pair@$$CBV?$basic_string@DU?$char_traits@D@std@@V?$allocator@D@2@@std@@PAVMaterial@@@std@@@2@@std@@@Z 00479908 f   read.obj
 0001:00078930       __unwindfunclet$?processCamera@@YAXPAVObj@@PAVScene@@@Z$0 00479930 f   read.obj
 0001:00078938       __unwindfunclet$?processCamera@@YAXPAVObj@@PAVScene@@@Z$1 00479938 f   read.obj
 0001:00078940       __unwindfunclet$?processCamera@@YAXPAVObj@@PAVScene@@@Z$2 00479940 f   read.obj
 0001:00078948       __unwindfunclet$?processCamera@@YAXPAVObj@@PAVScene@@@Z$3 00479948 f   read.obj
 0001:00078950       __unwindfunclet$?processCamera@@YAXPAVObj@@PAVScene@@@Z$5 00479950 f   read.obj
 0001:00078958       __unwindfunclet$?processCamera@@YAXPAVObj@@PAVScene@@@Z$6 00479958 f   read.obj
 0001:00078960       __unwindfunclet$?processCamera@@YAXPAVObj@@PAVScene@@@Z$7 00479960 f   read.obj
 0001:00078968       __unwindfunclet$?processCamera@@YAXPAVObj@@PAVScene@@@Z$8 00479968 f   read.obj
 0001:00078970       __unwindfunclet$?processCamera@@YAXPAVObj@@PAVScene@@@Z$9 00479970 f   read.obj
 0001:00078989       __unwindfunclet$?processCamera@@YAXPAVObj@@PAVScene@@@Z$10 00479989 f   read.obj
 0001:000789a2       __unwindfunclet$?processCamera@@YAXPAVObj@@PAVScene@@@Z$11 004799a2 f   read.obj
 0001:000789aa       __unwindfunclet$?processCamera@@YAXPAVObj@@PAVScene@@@Z$12 004799aa f   read.obj
 0001:000789b2       __unwindfunclet$?processCamera@@YAXPAVObj@@PAVScene@@@Z$4 004799b2 f   read.obj
 0001:000789ba       __ehhandler$?processCamera@@YAXPAVObj@@PAVScene@@@Z 004799ba f   read.obj
 0001:000789f0       __unwindfunclet$?processGeometry@@YAXPAVObj@@PAVScene@@ABV?$map@V?$basic_string@DU?$char_traits@D@std@@V?$allocator@D@2@@std@@PAVMaterial@@U?$less@V?$basic_string@DU?$char_traits@D@std@@V?$allocator@D@2@@std@@@2@V?$allocator@U?$pair@$$CBV?$basic_string@DU?$char_traits@D@std@@V?$allocator@D@2@@std@@PAVMaterial@@@std@@@2@@std@@PAVTransformNode@@@Z$0 004799f0 f   read.obj
 0001:000789f8       __unwindfunclet$?processGeometry@@YAXPAVObj@@PAVScene@@ABV?$map@V?$basic_string@DU?$char_traits@D@std@@V?$allocator@D@2@@std@@PAVMaterial@@U?$less@V?$basic_string@DU?$char_traits@D@std@@V?$allocator@D@2@@std@@@2@V?$allocator@U?$pair@$$CBV?$basic_string@DU?$char_traits@D@std@@V?$allocator@D@2@@std@@PAVMaterial@@@std@@@2@@std@@PAVTransformNode@@@Z$5 004799f8 f   read.obj
 0001:00078a03       __unwindfunclet$?processGeometry@@YAXPAVObj@@PAVScene@@ABV?$map@V?$basic_string@DU?$char_traits@D@std@@V?$allocator@D@2@@std@@PAVMaterial@@U?$less@V?$basic_string@DU?$char_traits@D@std@@V?$allocator@D@2@@std@@@2@V?$allocator@U?$pair@$$CBV?$basic_string@DU?$char_traits@D@std@@V?$allocator@D@2@@std@@PAVMaterial@@@std@@@2@@std@@PAVTransformNode@@@Z$6 00479a03 f   read.obj
 0001:00078a0b       __ehhandler$?processGeometry@@YAXPAVObj@@PAVScene@@ABV?$map@V?$basic_string@DU?$char_traits@D@std@@V?$allocator@D@2@@std@@PAVMaterial@@U?$less@V?$basic_string@DU?$char_traits@D@std@@V?$allocator@D@2@@std@@@2@V?$allocator@U?$pair@$$CBV?$basic_string@DU?$char_traits@D@std@@V?$allocator@D@2@@std@@PAVMaterial@@@std@@@2@@std@@PAVTransformNode@@@Z 00479a0b f   read.obj
 0001:00078a40       __unwindfunclet$?processGeometry@@YAXV?$basic_string@DU?$char_traits@D@std@@V?$allocator@D@2@@std@@PAVObj@@PAVScene@@ABV?$map@V?$basic_string@DU?$char_traits@D@std@@V?$allocator@D@2@@std@@PAVMaterial@@U?$less@V?$basic_string@DU?$char_traits@D@std@@V?$allocator@D@2@@std@@@2@V?$allocator@U?$pair@$$CBV?$basic_string@DU?$char_traits@D@std@@V?$allocator@D@2@@std@@PAVMaterial@@@std@@@2@@2@PAVTransformNode@@@Z$0 00479a40 f   read.obj
 0001:00078a4b       __unwindfunclet$?processGeometry@@YAXV?$basic_string@DU?$char_traits@D@std@@V?$allocator@D@2@@std@@PAVObj@@PAVScene@@ABV?$map@V?$basic_string@DU?$char_traits@D@std@@V?$allocator@D@2@@std@@PAVMaterial@@U?$less@V?$basic_string@DU?$char_traits@D@std@@V?$allocator@D@2@@std@@@2@V?$allocator@U?$pair@$$CBV?$basic_string@DU?$char_traits@D@std@@V?$allocator@D@2@@std@@PAVMaterial@@@std@@@2@@2@PAVTransformNode@@@Z$2 00479a4b f   read.obj
 0001:00078a53       __unwindfunclet$?processGeometry@@YAXV?$basic_string@DU?$char_traits@D@std@@V?$allocator@D@2@@std@@PAVObj@@PAVScene@@ABV?$map@V?$basic_string@DU?$char_traits@D@std@@V?$allocator@D@2@@std@@PAVMaterial@@U?$less@V?$basic_string@DU?$char_traits@D@std@@V?$allocator@D@2@@std@@@2@V?$allocator@U?$pair@$$CBV?$basic_string@DU?$char_traits@D@std@@V?$allocator@D@2@@std@@PAVMaterial@@@std@@@2@@2@PAVTransformNode@@@Z$5 00479a53 f   read.obj
 0001:00078a5b       __unwindfunclet$?processGeometry@@YAXV?$basic_string@DU?$char_traits@D@std@@V?$allocator@D@2@@std@@PAVObj@@PAVScene@@ABV?$map@V?$basic_string@DU?$char_traits@D@std@@V?$allocator@D@2@@std@@PAVMaterial@@U?$less@V?$basic_string@DU?$char_traits@D@std@@V?$allocator@D@2@@std@@@2@V?$allocator@U?$pair@$$CBV?$basic_string@DU?$char_traits@D@std@@V?$allocator@D@2@@std@@PAVMaterial@@@std@@@2@@2@PAVTransformNode@@@Z$7 00479a5b f   read.obj
 0001:00078a63       __unwindfunclet$?processGeometry@@YAXV?$basic_string@DU?$char_traits@D@std@@V?$allocator@D@2@@std@@PAVObj@@PAVScene@@ABV?$map@V?$basic_string@DU?$char_traits@D@std@@V?$allocator@D@2@@std@@PAVMaterial@@U?$less@V?$basic_string@DU?$char_traits@D@std@@V?$allocator@D@2@@std@@@2@V?$allocator@U?$pair@$$CBV?$basic_string@DU?$char_traits@D@std@@V?$allocator@D@2@@std@@PAVMaterial@@@std@@@2@@2@PAVTransformNode@@@Z$8 00479a63 f   read.obj
 0001:00078a6b       __unwindfunclet$?processGeometry@@YAXV?$basic_string@DU?$char_traits@D@std@@V?$allocator@D@2@@std@@PAVObj@@PAVScene@@ABV?$map@V?$basic_string@DU?$char_traits@D@std@@V?$allocator@D@2@@std@@PAVMaterial@@U?$less@V?$basic_string@DU?$char_traits@D@std@@V?$allocator@D@2@@std@@@2@V?$allocator@U?$pair@$$CBV?$basic_string@DU?$char_traits@D@std@@V?$allocator@D@2@@std@@PAVMaterial@@@std@@@2@@2@PAVTransformNode@@@Z$9 00479a6b f   read.obj
 0001:00078a73       __unwindfunclet$?processGeometry@@YAXV?$basic_string@DU?$char_traits@D@std@@V?$allocator@D@2@@std@@PAVObj@@PAVScene@@ABV?$map@V?$basic_string@DU?$char_traits@D@std@@V?$allocator@D@2@@std@@PAVMaterial@@U?$less@V?$basic_string@DU?$char_traits@D@std@@V?$allocator@D@2@@std@@@2@V?$allocator@U?$pair@$$CBV?$basic_string@DU?$char_traits@D@std@@V?$allocator@D@2@@std@@PAVMaterial@@@std@@@2@@2@PAVTransformNode@@@Z$10 00479a73 f   read.obj
 0001:00078a7b       __ehhandler$?processGeometry@@YAXV?$basic_string@DU?$char_traits@D@std@@V?$allocator@D@2@@std@@PAVObj@@PAVScene@@ABV?$map@V?$basic_string@DU?$char_traits@D@std@@V?$allocator@D@2@@std@@PAVMaterial@@U?$less@V?$basic_string@DU?$char_traits@D@std@@V?$allocator@D@2@@std@@@2@V?$allocator@U?$pair@$$CBV?$basic_string@DU?$char_traits@D@std@@V?$allocator@D@2@@std@@PAVMaterial@@@std@@@2@@2@PAVTransformNode@@@Z 00479a7b f   read.obj
 0001:00078ab0       __unwindfunclet$?processMaterial@@YAPAVMaterial@@PAVObj@@PAV?$map@V?$basic_string@DU?$char_traits@D@std@@V?$allocator@D@2@@std@@PAVMaterial@@U?$less@V?$basic_string@DU?$char_traits@D@std@@V?$allocator@D@2@@std@@@2@V?$allocator@U?$pair@$$CBV?$basic_string@DU?$char_traits@D@std@@V?$allocator@D@2@@std@@PAVMaterial@@@std@@@2@@std@@@Z$1 00479ab0 f   read.obj
 0001:00078ab8       __unwindfunclet$?processMaterial@@YAPAVMaterial@@PAVObj@@PAV?$map@V?$basic_string@DU?$char_traits@D@std@@V?$allocator@D@2@@std@@PAVMaterial@@U?$less@V?$basic_string@DU?$char_traits@D@std@@V?$allocator@D@2@@std@@@2@V?$allocator@U?$pair@$$CBV?$basic_string@DU?$char_traits@D@std@@V?$allocator@D@2@@std@@PAVMaterial@@@std@@@2@@std@@@Z$2 00479ab8 f   read.obj
 0001:00078ac0       __unwindfunclet$?processMaterial@@YAPAVMaterial@@PAVObj@@PAV?$map@V?$basic_string@DU?$char_traits@D@std@@V?$allocator@D@2@@std@@PAVMaterial@@U?$less@V?$basic_string@DU?$char_traits@D@std@@V?$allocator@D@2@@std@@@2@V?$allocator@U?$pair@$$CBV?$basic_string@DU?$char_traits@D@std@@V?$allocator@D@2@@std@@PAVMaterial@@@std@@@2@@std@@@Z$3 00479ac0 f   read.obj
 0001:00078ac8       __unwindfunclet$?processMaterial@@YAPAVMaterial@@PAVObj@@PAV?$map@V?$basic_string@DU?$char_traits@D@std@@V?$allocator@D@2@@std@@PAVMaterial@@U?$less@V?$basic_string@DU?$char_traits@D@std@@V?$allocator@D@2@@std@@@2@V?$allocator@U?$pair@$$CBV?$basic_string@DU?$char_traits@D@std@@V?$allocator@D@2@@std@@PAVMaterial@@@std@@@2@@std@@@Z$4 00479ac8 f   read.obj
 0001:00078ad0       __unwindfunclet$?processMaterial@@YAPAVMaterial@@PAVObj@@PAV?$map@V?$basic_string@DU?$char_traits@D@std@@V?$allocator@D@2@@std@@PAVMaterial@@U?$less@V?$basic_string@DU?$char_traits@D@std@@V?$allocator@D@2@@std@@@2@V?$allocator@U?$pair@$$CBV?$basic_string@DU?$char_traits@D@std@@V?$allocator@D@2@@std@@PAVMaterial@@@std@@@2@@std@@@Z$5 00479ad0 f   read.obj
 0001:00078ad8       __unwindfunclet$?processMaterial@@YAPAVMaterial@@PAVObj@@PAV?$map@V?$basic_string@DU?$char_traits@D@std@@V?$allocator@D@2@@std@@PAVMaterial@@U?$less@V?$basic_string@DU?$char_traits@D@std@@V?$allocator@D@2@@std@@@2@V?$allocator@U?$pair@$$CBV?$basic_string@DU?$char_traits@D@std@@V?$allocator@D@2@@std@@PAVMaterial@@@std@@@2@@std@@@Z$6 00479ad8 f   read.obj
 0001:00078ae0       __unwindfunclet$?processMaterial@@YAPAVMaterial@@PAVObj@@PAV?$map@V?$basic_string@DU?$char_traits@D@std@@V?$allocator@D@2@@std@@PAVMaterial@@U?$less@V?$basic_string@DU?$char_traits@D@std@@V?$allocator@D@2@@std@@@2@V?$allocator@U?$pair@$$CBV?$basic_string@DU?$char_traits@D@std@@V?$allocator@D@2@@std@@PAVMaterial@@@std@@@2@@std@@@Z$7 00479ae0 f   read.obj
 0001:00078ae8       __unwindfunclet$?processMaterial@@YAPAVMaterial@@PAVObj@@PAV?$map@V?$basic_string@DU?$char_traits@D@std@@V?$allocator@D@2@@std@@PAVMaterial@@U?$less@V?$basic_string@DU?$char_traits@D@std@@V?$allocator@D@2@@std@@@2@V?$allocator@U?$pair@$$CBV?$basic_string@DU?$char_traits@D@std@@V?$allocator@D@2@@std@@PAVMaterial@@@std@@@2@@std@@@Z$8 00479ae8 f   read.obj
 0001:00078af0       __unwindfunclet$?processMaterial@@YAPAVMaterial@@PAVObj@@PAV?$map@V?$basic_string@DU?$char_traits@D@std@@V?$allocator@D@2@@std@@PAVMaterial@@U?$less@V?$basic_string@DU?$char_traits@D@std@@V?$allocator@D@2@@std@@@2@V?$allocator@U?$pair@$$CBV?$basic_string@DU?$char_traits@D@std@@V?$allocator@D@2@@std@@PAVMaterial@@@std@@@2@@std@@@Z$9 00479af0 f   read.obj
 0001:00078af8       __unwindfunclet$?processMaterial@@YAPAVMaterial@@PAVObj@@PAV?$map@V?$basic_string@DU?$char_traits@D@std@@V?$allocator@D@2@@std@@PAVMaterial@@U?$less@V?$basic_string@DU?$char_traits@D@std@@V?$allocator@D@2@@std@@@2@V?$allocator@U?$pair@$$CBV?$basic_string@DU?$char_traits@D@std@@V?$allocator@D@2@@std@@PAVMaterial@@@std@@@2@@std@@@Z$10 00479af8 f   read.obj
 0001:00078b00       __unwindfunclet$?processMaterial@@YAPAVMaterial@@PAVObj@@PAV?$map@V?$basic_string@DU?$char_traits@D@std@@V?$allocator@D@2@@std@@PAVMaterial@@U?$less@V?$basic_string@DU?$char_traits@D@std@@V?$allocator@D@2@@std@@@2@V?$allocator@U?$pair@$$CBV?$basic_string@DU?$char_traits@D@std@@V?$allocator@D@2@@std@@PAVMaterial@@@std@@@2@@std@@@Z$11 00479b00 f   read.obj
 0001:00078b08       __unwindfunclet$?processMaterial@@YAPAVMaterial@@PAVObj@@PAV?$map@V?$basic_string@DU?$char_traits@D@std@@V?$allocator@D@2@@std@@PAVMaterial@@U?$less@V?$basic_string@DU?$char_traits@D@std@@V?$allocator@D@2@@std@@@2@V?$allocator@U?$pair@$$CBV?$basic_string@DU?$char_traits@D@std@@V?$allocator@D@2@@std@@PAVMaterial@@@std@@@2@@std@@@Z$12 00479b08 f   read.obj
 0001:00078b10       __unwindfunclet$?processMaterial@@YAPAVMaterial@@PAVObj@@PAV?$map@V?$basic_string@DU?$char_traits@D@std@@V?$allocator@D@2@@std@@PAVMaterial@@U?$less@V?$basic_string@DU?$char_traits@D@std@@V?$allocator@D@2@@std@@@2@V?$allocator@U?$pair@$$CBV?$basic_string@DU?$char_traits@D@std@@V?$allocator@D@2@@std@@PAVMaterial@@@std@@@2@@std@@@Z$13 00479b10 f   read.obj
 0001:00078b18       __unwindfunclet$?processMaterial@@YAPAVMaterial@@PAVObj@@PAV?$map@V?$basic_string@DU?$char_traits@D@std@@V?$allocator@D@2@@std@@PAVMaterial@@U?$less@V?$basic_string@DU?$char_traits@D@std@@V?$allocator@D@2@@std@@@2@V?$allocator@U?$pair@$$CBV?$basic_string@DU?$char_traits@D@std@@V?$allocator@D@2@@std@@PAVMaterial@@@std@@@2@@std@@@Z$14 00479b18 f   read.obj
 0001:00078b20       __unwindfunclet$?processMaterial@@YAPAVMaterial@@PAVObj@@PAV?$map@V?$basic_string@DU?$char_traits@D@std@@V?$allocator@D@2@@std@@PAVMaterial@@U?$less@V?$basic_string@DU?$char_traits@D@std@@V?$allocator@D@2@@std@@@2@V?$allocator@U?$pair@$$CBV?$basic_string@DU?$char_traits@D@std@@V?$allocator@D@2@@std@@PAVMaterial@@@std@@@2@@std@@@Z$15 00479b20 f   read.obj
 0001:00078b28       __unwindfunclet$?processMaterial@@YAPAVMaterial@@PAVObj@@PAV?$map@V?$basic_string@DU?$char_traits@D@std@@V?$allocator@D@2@@std@@PAVMaterial@@U?$less@V?$basic_string@DU?$char_traits@D@std@@V?$allocator@D@2@@std@@@2@V?$allocator@U?$pair@$$CBV?$basic_string@DU?$char_traits@D@std@@V?$allocator@D@2@@std@@PAVMaterial@@@std@@@2@@std@@@Z$16 00479b28 f   read.obj
 0001:00078b30       __unwindfunclet$?processMaterial@@YAPAVMaterial@@PAVObj@@PAV?$map@V?$basic_string@DU?$char_traits@D@std@@V?$allocator@D@2@@std@@PAVMaterial@@U?$less@V?$basic_string@DU?$char_traits@D@std@@V?$allocator@D@2@@std@@@2@V?$allocator@U?$pair@$$CBV?$basic_string@DU?$char_traits@D@std@@V?$allocator@D@2@@std@@PAVMaterial@@@std@@@2@@std@@@Z$17 00479b30 f   read.obj
 0001:00078b38       __unwindfunclet$?processMaterial@@YAPAVMaterial@@PAVObj@@PAV?$map@V?$basic_string@DU?$char_traits@D@std@@V?$allocator@D@2@@std@@PAVMaterial@@U?$less@V?$basic_string@DU?$char_traits@D@std@@V?$allocator@D@2@@std@@@2@V?$allocator@U?$pair@$$CBV?$basic_string@DU?$char_traits@D@std@@V?$allocator@D@2@@std@@PAVMaterial@@@std@@@2@@std@@@Z$18 00479b38 f   read.obj
 0001:00078b40       __unwindfunclet$?processMaterial@@YAPAVMaterial@@PAVObj@@PAV?$map@V?$basic_string@DU?$char_traits@D@std@@V?$allocator@D@2@@std@@PAVMaterial@@U?$less@V?$basic_string@DU?$char_traits@D@std@@V?$allocator@D@2@@std@@@2@V?$allocator@U?$pair@$$CBV?$basic_string@DU?$char_traits@D@std@@V?$allocator@D@2@@std@@PAVMaterial@@@std@@@2@@std@@@Z$19 00479b40 f   read.obj
 0001:00078b48       __unwindfunclet$?processMaterial@@YAPAVMaterial@@PAVObj@@PAV?$map@V?$basic_string@DU?$char_traits@D@std@@V?$allocator@D@2@@std@@PAVMaterial@@U?$less@V?$basic_string@DU?$char_traits@D@std@@V?$allocator@D@2@@std@@@2@V?$allocator@U?$pair@$$CBV?$basic_string@DU?$char_traits@D@std@@V?$allocator@D@2@@std@@PAVMaterial@@@std@@@2@@std@@@Z$20 00479b48 f   read.obj
 0001:00078b50       __unwindfunclet$?processMaterial@@YAPAVMaterial@@PAVObj@@PAV?$map@V?$basic_string@DU?$char_traits@D@std@@V?$allocator@D@2@@std@@PAVMaterial@@U?$less@V?$basic_string@DU?$char_traits@D@std@@V?$allocator@D@2@@std@@@2@V?$allocator@U?$pair@$$CBV?$basic_string@DU?$char_traits@D@std@@V?$allocator@D@2@@std@@PAVMaterial@@@std@@@2@@std@@@Z$45 00479b50 f   read.obj
 0001:00078b5b       __unwindfunclet$?processMaterial@@YAPAVMaterial@@PAVObj@@PAV?$map@V?$basic_string@DU?$char_traits@D@std@@V?$allocator@D@2@@std@@PAVMaterial@@U?$less@V?$basic_string@DU?$char_traits@D@std@@V?$allocator@D@2@@std@@@2@V?$allocator@U?$pair@$$CBV?$basic_string@DU?$char_traits@D@std@@V?$allocator@D@2@@std@@PAVMaterial@@@std@@@2@@std@@@Z$44 00479b5b f   read.obj
 0001:00078b66       __unwindfunclet$?processMaterial@@YAPAVMaterial@@PAVObj@@PAV?$map@V?$basic_string@DU?$char_traits@D@std@@V?$allocator@D@2@@std@@PAVMaterial@@U?$less@V?$basic_string@DU?$char_traits@D@std@@V?$allocator@D@2@@std@@@2@V?$allocator@U?$pair@$$CBV?$basic_string@DU?$char_traits@D@std@@V?$allocator@D@2@@std@@PAVMaterial@@@std@@@2@@std@@@Z$23 00479b66 f   read.obj
 0001:00078b71       __ehhandler$?processMaterial@@YAPAVMaterial@@PAVObj@@PAV?$map@V?$basic_string@DU?$char_traits@D@std@@V?$allocator@D@2@@std@@PAVMaterial@@U?$less@V?$basic_string@DU?$char_traits@D@std@@V?$allocator@D@2@@std@@@2@V?$allocator@U?$pair@$$CBV?$basic_string@DU?$char_traits@D@std@@V?$allocator@D@2@@std@@PAVMaterial@@@std@@@2@@std@@@Z 00479b71 f   read.obj
 0001:00078ba0       __unwindfunclet$?processObject@@YAXPAVObj@@PAVScene@@AAV?$map@V?$basic_string@DU?$char_traits@D@std@@V?$allocator@D@2@@std@@PAVMaterial@@U?$less@V?$basic_string@DU?$char_traits@D@std@@V?$allocator@D@2@@std@@@2@V?$allocator@U?$pair@$$CBV?$basic_string@DU?$char_traits@D@std@@V?$allocator@D@2@@std@@PAVMaterial@@@std@@@2@@std@@@Z$0 00479ba0 f   read.obj
 0001:00078ba8       __unwindfunclet$?processObject@@YAXPAVObj@@PAVScene@@AAV?$map@V?$basic_string@DU?$char_traits@D@std@@V?$allocator@D@2@@std@@PAVMaterial@@U?$less@V?$basic_string@DU?$char_traits@D@std@@V?$allocator@D@2@@std@@@2@V?$allocator@U?$pair@$$CBV?$basic_string@DU?$char_traits@D@std@@V?$allocator@D@2@@std@@PAVMaterial@@@std@@@2@@std@@@Z$8 00479ba8 f   read.obj
 0001:00078bba       __unwindfunclet$?processObject@@YAXPAVObj@@PAVScene@@AAV?$map@V?$basic_string@DU?$char_traits@D@std@@V?$allocator@D@2@@std@@PAVMaterial@@U?$less@V?$basic_string@DU?$char_traits@D@std@@V?$allocator@D@2@@std@@@2@V?$allocator@U?$pair@$$CBV?$basic_string@DU?$char_traits@D@std@@V?$allocator@D@2@@std@@PAVMaterial@@@std@@@2@@std@@@Z$9 00479bba f   read.obj
 0001:00078bd9       __unwindfunclet$?processObject@@YAXPAVObj@@PAVScene@@AAV?$map@V?$basic_string@DU?$char_traits@D@std@@V?$allocator@D@2@@std@@PAVMaterial@@U?$less@V?$basic_string@DU?$char_traits@D@std@@V?$allocator@D@2@@std@@@2@V?$allocator@U?$pair@$$CBV?$basic_string@DU?$char_traits@D@std@@V?$allocator@D@2@@std@@PAVMaterial@@@std@@@2@@std@@@Z$11 00479bd9 f   read.obj
 0001:00078beb       __unwindfunclet$?processObject@@YAXPAVObj@@PAVScene@@AAV?$map@V?$basic_string@DU?$char_traits@D@std@@V?$allocator@D@2@@std@@PAVMaterial@@U?$less@V?$basic_string@DU?$char_traits@D@std@@V?$allocator@D@2@@std@@@2@V?$allocator@U?$pair@$$CBV?$basic_string@DU?$char_traits@D@std@@V?$allocator@D@2@@std@@PAVMaterial@@@std@@@2@@std@@@Z$12 00479beb f   read.obj
 0001:00078c0a       __unwindfunclet$?processObject@@YAXPAVObj@@PAVScene@@AAV?$map@V?$basic_string@DU?$char_traits@D@std@@V?$allocator@D@2@@std@@PAVMaterial@@U?$less@V?$basic_string@DU?$char_traits@D@std@@V?$allocator@D@2@@std@@@2@V?$allocator@U?$pair@$$CBV?$basic_string@DU?$char_traits@D@std@@V?$allocator@D@2@@std@@PAVMaterial@@@std@@@2@@std@@@Z$13 00479c0a f   read.obj
 0001:00078c12       __unwindfunclet$?processObject@@YAXPAVObj@@PAVScene@@AAV?$map@V?$basic_string@DU?$char_traits@D@std@@V?$allocator@D@2@@std@@PAVMaterial@@U?$less@V?$basic_string@DU?$char_traits@D@std@@V?$allocator@D@2@@std@@@2@V?$allocator@U?$pair@$$CBV?$basic_string@DU?$char_traits@D@std@@V?$allocator@D@2@@std@@PAVMaterial@@@std@@@2@@std@@@Z$14 00479c12 f   read.obj
 0001:00078c1a       __unwindfunclet$?processObject@@YAXPAVObj@@PAVScene@@AAV?$map@V?$basic_string@DU?$char_traits@D@std@@V?$allocator@D@2@@std@@PAVMaterial@@U?$less@V?$basic_string@DU?$char_traits@D@std@@V?$allocator@D@2@@std@@@2@V?$allocator@U?$pair@$$CBV?$basic_string@DU?$char_traits@D@std@@V?$allocator@D@2@@std@@PAVMaterial@@@std@@@2@@std@@@Z$15 00479c1a f   read.obj
 0001:00078c22       __unwindfunclet$?processObject@@YAXPAVObj@@PAVScene@@AAV?$map@V?$basic_string@DU?$char_traits@D@std@@V?$allocator@D@2@@std@@PAVMaterial@@U?$less@V?$basic_string@DU?$char_traits@D@std@@V?$allocator@D@2@@std@@@2@V?$allocator@U?$pair@$$CBV?$basic_string@DU?$char_traits@D@std@@V?$allocator@D@2@@std@@PAVMaterial@@@std@@@2@@std@@@Z$16 00479c22 f   read.obj
 0001:00078c2a       __unwindfunclet$?processObject@@YAXPAVObj@@PAVScene@@AAV?$map@V?$basic_string@DU?$char_traits@D@std@@V?$allocator@D@2@@std@@PAVMaterial@@U?$less@V?$basic_string@DU?$char_traits@D@std@@V?$allocator@D@2@@std@@@2@V?$allocator@U?$pair@$$CBV?$basic_string@DU?$char_traits@D@std@@V?$allocator@D@2@@std@@PAVMaterial@@@std@@@2@@std@@@Z$17 00479c2a f   read.obj
 0001:00078c32       __unwindfunclet$?processObject@@YAXPAVObj@@PAVScene@@AAV?$map@V?$basic_string@DU?$char_traits@D@std@@V?$allocator@D@2@@std@@PAVMaterial@@U?$less@V?$basic_string@DU?$char_traits@D@std@@V?$allocator@D@2@@std@@@2@V?$allocator@U?$pair@$$CBV?$basic_string@DU?$char_traits@D@std@@V?$allocator@D@2@@std@@PAVMaterial@@@std@@@2@@std@@@Z$18 00479c32 f   read.obj
 0001:00078c3a       __unwindfunclet$?processObject@@YAXPAVObj@@PAVScene@@AAV?$map@V?$basic_string@DU?$char_traits@D@std@@V?$allocator@D@2@@std@@PAVMaterial@@U?$less@V?$basic_string@DU?$char_traits@D@std@@V?$allocator@D@2@@std@@@2@V?$allocator@U?$pair@$$CBV?$basic_string@DU?$char_traits@D@std@@V?$allocator@D@2@@std@@PAVMaterial@@@std@@@2@@std@@@Z$20 00479c3a f   read.obj
 0001:00078c4c       __unwindfunclet$?processObject@@YAXPAVObj@@PAVScene@@AAV?$map@V?$basic_string@DU?$char_traits@D@std@@V?$allocator@D@2@@std@@PAVMaterial@@U?$less@V?$basic_string@DU?$char_traits@D@std@@V?$allocator@D@2@@std@@@2@V?$allocator@U?$pair@$$CBV?$basic_string@DU?$char_traits@D@std@@V?$allocator@D@2@@std@@PAVMaterial@@@std@@@2@@std@@@Z$37 00479c4c f   read.obj
 0001:00078c57       __unwindfunclet$?processObject@@YAXPAVObj@@PAVScene@@AAV?$map@V?$basic_string@DU?$char_traits@D@std@@V?$allocator@D@2@@std@@PAVMaterial@@U?$less@V?$basic_string@DU?$char_traits@D@std@@V?$allocator@D@2@@std@@@2@V?$allocator@U?$pair@$$CBV?$basic_string@DU?$char_traits@D@std@@V?$allocator@D@2@@std@@PAVMaterial@@@std@@@2@@std@@@Z$22 00479c57 f   read.obj
 0001:00078c62       __unwindfunclet$?processObject@@YAXPAVObj@@PAVScene@@AAV?$map@V?$basic_string@DU?$char_traits@D@std@@V?$allocator@D@2@@std@@PAVMaterial@@U?$less@V?$basic_string@DU?$char_traits@D@std@@V?$allocator@D@2@@std@@@2@V?$allocator@U?$pair@$$CBV?$basic_string@DU?$char_traits@D@std@@V?$allocator@D@2@@std@@PAVMaterial@@@std@@@2@@std@@@Z$23 00479c62 f   read.obj
 0001:00078c6a       __unwindfunclet$?processObject@@YAXPAVObj@@PAVScene@@AAV?$map@V?$basic_string@DU?$char_traits@D@std@@V?$allocator@D@2@@std@@PAVMaterial@@U?$less@V?$basic_string@DU?$char_traits@D@std@@V?$allocator@D@2@@std@@@2@V?$allocator@U?$pair@$$CBV?$basic_string@DU?$char_traits@D@std@@V?$allocator@D@2@@std@@PAVMaterial@@@std@@@2@@std@@@Z$5 00479c6a f   read.obj
 0001:00078c75       __unwindfunclet$?processObject@@YAXPAVObj@@PAVScene@@AAV?$map@V?$basic_string@DU?$char_traits@D@std@@V?$allocator@D@2@@std@@PAVMaterial@@U?$less@V?$basic_string@DU?$char_traits@D@std@@V?$allocator@D@2@@std@@@2@V?$allocator@U?$pair@$$CBV?$basic_string@DU?$char_traits@D@std@@V?$allocator@D@2@@std@@PAVMaterial@@@std@@@2@@std@@@Z$6 00479c75 f   read.obj
 0001:00078c80       __unwindfunclet$?processObject@@YAXPAVObj@@PAVScene@@AAV?$map@V?$basic_string@DU?$char_traits@D@std@@V?$allocator@D@2@@std@@PAVMaterial@@U?$less@V?$basic_string@DU?$char_traits@D@std@@V?$allocator@D@2@@std@@@2@V?$allocator@U?$pair@$$CBV?$basic_string@DU?$char_traits@D@std@@V?$allocator@D@2@@std@@PAVMaterial@@@std@@@2@@std@@@Z$7 00479c80 f   read.obj
 0001:00078c88       __unwindfunclet$?processObject@@YAXPAVObj@@PAVScene@@AAV?$map@V?$basic_string@DU?$char_traits@D@std@@V?$allocator@D@2@@std@@PAVMaterial@@U?$less@V?$basic_string@DU?$char_traits@D@std@@V?$allocator@D@2@@std@@@2@V?$allocator@U?$pair@$$CBV?$basic_string@DU?$char_traits@D@std@@V?$allocator@D@2@@std@@PAVMaterial@@@std@@@2@@std@@@Z$10 00479c88 f   read.obj
 0001:00078c90       __unwindfunclet$?processObject@@YAXPAVObj@@PAVScene@@AAV?$map@V?$basic_string@DU?$char_traits@D@std@@V?$allocator@D@2@@std@@PAVMaterial@@U?$less@V?$basic_string@DU?$char_traits@D@std@@V?$allocator@D@2@@std@@@2@V?$allocator@U?$pair@$$CBV?$basic_string@DU?$char_traits@D@std@@V?$allocator@D@2@@std@@PAVMaterial@@@std@@@2@@std@@@Z$19 00479c90 f   read.obj
 0001:00078c98       __ehhandler$?processObject@@YAXPAVObj@@PAVScene@@AAV?$map@V?$basic_string@DU?$char_traits@D@std@@V?$allocator@D@2@@std@@PAVMaterial@@U?$less@V?$basic_string@DU?$char_traits@D@std@@V?$allocator@D@2@@std@@@2@V?$allocator@U?$pair@$$CBV?$basic_string@DU?$char_traits@D@std@@V?$allocator@D@2@@std@@PAVMaterial@@@std@@@2@@std@@@Z 00479c98 f   read.obj
 0001:00078cc0       __unwindfunclet$?processTrimesh@@YAXV?$basic_string@DU?$char_traits@D@std@@V?$allocator@D@2@@std@@PAVObj@@PAVScene@@ABV?$map@V?$basic_string@DU?$char_traits@D@std@@V?$allocator@D@2@@std@@PAVMaterial@@U?$less@V?$basic_string@DU?$char_traits@D@std@@V?$allocator@D@2@@std@@@2@V?$allocator@U?$pair@$$CBV?$basic_string@DU?$char_traits@D@std@@V?$allocator@D@2@@std@@PAVMaterial@@@std@@@2@@2@PAVTransformNode@@@Z$0 00479cc0 f   read.obj
 0001:00078cc8       __unwindfunclet$?processTrimesh@@YAXV?$basic_string@DU?$char_traits@D@std@@V?$allocator@D@2@@std@@PAVObj@@PAVScene@@ABV?$map@V?$basic_string@DU?$char_traits@D@std@@V?$allocator@D@2@@std@@PAVMaterial@@U?$less@V?$basic_string@DU?$char_traits@D@std@@V?$allocator@D@2@@std@@@2@V?$allocator@U?$pair@$$CBV?$basic_string@DU?$char_traits@D@std@@V?$allocator@D@2@@std@@PAVMaterial@@@std@@@2@@2@PAVTransformNode@@@Z$1 00479cc8 f   read.obj
 0001:00078cd0       __unwindfunclet$?processTrimesh@@YAXV?$basic_string@DU?$char_traits@D@std@@V?$allocator@D@2@@std@@PAVObj@@PAVScene@@ABV?$map@V?$basic_string@DU?$char_traits@D@std@@V?$allocator@D@2@@std@@PAVMaterial@@U?$less@V?$basic_string@DU?$char_traits@D@std@@V?$allocator@D@2@@std@@@2@V?$allocator@U?$pair@$$CBV?$basic_string@DU?$char_traits@D@std@@V?$allocator@D@2@@std@@PAVMaterial@@@std@@@2@@2@PAVTransformNode@@@Z$2 00479cd0 f   read.obj
 0001:00078cd8       __unwindfunclet$?processTrimesh@@YAXV?$basic_string@DU?$char_traits@D@std@@V?$allocator@D@2@@std@@PAVObj@@PAVScene@@ABV?$map@V?$basic_string@DU?$char_traits@D@std@@V?$allocator@D@2@@std@@PAVMaterial@@U?$less@V?$basic_string@DU?$char_traits@D@std@@V?$allocator@D@2@@std@@@2@V?$allocator@U?$pair@$$CBV?$basic_string@DU?$char_traits@D@std@@V?$allocator@D@2@@std@@PAVMaterial@@@std@@@2@@2@PAVTransformNode@@@Z$5 00479cd8 f   read.obj
 0001:00078ce0       __unwindfunclet$?processTrimesh@@YAXV?$basic_string@DU?$char_traits@D@std@@V?$allocator@D@2@@std@@PAVObj@@PAVScene@@ABV?$map@V?$basic_string@DU?$char_traits@D@std@@V?$allocator@D@2@@std@@PAVMaterial@@U?$less@V?$basic_string@DU?$char_traits@D@std@@V?$allocator@D@2@@std@@@2@V?$allocator@U?$pair@$$CBV?$basic_string@DU?$char_traits@D@std@@V?$allocator@D@2@@std@@PAVMaterial@@@std@@@2@@2@PAVTransformNode@@@Z$6 00479ce0 f   read.obj
 0001:00078ce8       __unwindfunclet$?processTrimesh@@YAXV?$basic_string@DU?$char_traits@D@std@@V?$allocator@D@2@@std@@PAVObj@@PAVScene@@ABV?$map@V?$basic_string@DU?$char_traits@D@std@@V?$allocator@D@2@@std@@PAVMaterial@@U?$less@V?$basic_string@DU?$char_traits@D@std@@V?$allocator@D@2@@std@@@2@V?$allocator@U?$pair@$$CBV?$basic_string@DU?$char_traits@D@std@@V?$allocator@D@2@@std@@PAVMaterial@@@std@@@2@@2@PAVTransformNode@@@Z$9 00479ce8 f   read.obj
 0001:00078cf0       __unwindfunclet$?processTrimesh@@YAXV?$basic_string@DU?$char_traits@D@std@@V?$allocator@D@2@@std@@PAVObj@@PAVScene@@ABV?$map@V?$basic_string@DU?$char_traits@D@std@@V?$allocator@D@2@@std@@PAVMaterial@@U?$less@V?$basic_string@DU?$char_traits@D@std@@V?$allocator@D@2@@std@@@2@V?$allocator@U?$pair@$$CBV?$basic_string@DU?$char_traits@D@std@@V?$allocator@D@2@@std@@PAVMaterial@@@std@@@2@@2@PAVTransformNode@@@Z$10 00479cf0 f   read.obj
 0001:00078cf8       __unwindfunclet$?processTrimesh@@YAXV?$basic_string@DU?$char_traits@D@std@@V?$allocator@D@2@@std@@PAVObj@@PAVScene@@ABV?$map@V?$basic_string@DU?$char_traits@D@std@@V?$allocator@D@2@@std@@PAVMaterial@@U?$less@V?$basic_string@DU?$char_traits@D@std@@V?$allocator@D@2@@std@@@2@V?$allocator@U?$pair@$$CBV?$basic_string@DU?$char_traits@D@std@@V?$allocator@D@2@@std@@PAVMaterial@@@std@@@2@@2@PAVTransformNode@@@Z$11 00479cf8 f   read.obj
 0001:00078d00       __unwindfunclet$?processTrimesh@@YAXV?$basic_string@DU?$char_traits@D@std@@V?$allocator@D@2@@std@@PAVObj@@PAVScene@@ABV?$map@V?$basic_string@DU?$char_traits@D@std@@V?$allocator@D@2@@std@@PAVMaterial@@U?$less@V?$basic_string@DU?$char_traits@D@std@@V?$allocator@D@2@@std@@@2@V?$allocator@U?$pair@$$CBV?$basic_string@DU?$char_traits@D@std@@V?$allocator@D@2@@std@@PAVMaterial@@@std@@@2@@2@PAVTransformNode@@@Z$12 00479d00 f   read.obj
